
fw-bootloader.elf:     file format elf32-littlearm

Sections:
Idx Name          Size      VMA       LMA       File off  Algn
  0 .meta_data    00000029  08005000  08005000  00007000  2**0
                  ALLOC, READONLY
  1 .isr_vector   000000c0  08000000  08000000  00001000  2**0
                  CONTENTS, ALLOC, LOAD, READONLY, DATA
  2 .text         0000475c  080000c0  080000c0  000010c0  2**2
                  CONTENTS, ALLOC, LOAD, READONLY, CODE
  3 .rodata       000000c4  0800481c  0800481c  0000581c  2**2
                  CONTENTS, ALLOC, LOAD, READONLY, DATA
  4 .ARM.extab    00000000  080048e0  080048e0  00006060  2**0
                  CONTENTS, READONLY
  5 .ARM          00000000  080048e0  080048e0  00006060  2**0
                  CONTENTS, READONLY
  6 .preinit_array 00000000  080048e0  080048e0  00006060  2**0
                  CONTENTS, ALLOC, LOAD, DATA
  7 .init_array   00000008  080048e0  080048e0  000058e0  2**2
                  CONTENTS, ALLOC, LOAD, READONLY, DATA
  8 .fini_array   00000004  080048e8  080048e8  000058e8  2**2
                  CONTENTS, ALLOC, LOAD, READONLY, DATA
  9 .data         00000060  20000000  080048ec  00006000  2**2
                  CONTENTS, ALLOC, LOAD, DATA
 10 .bss          000006e4  20000060  0800494c  00006060  2**3
                  ALLOC
 11 ._user_heap_stack 00000604  20000744  0800494c  00006744  2**0
                  ALLOC
 12 .ARM.attributes 00000028  00000000  00000000  00006060  2**0
                  CONTENTS, READONLY
 13 .debug_info   0001b7ce  00000000  00000000  00006088  2**0
                  CONTENTS, READONLY, DEBUGGING, OCTETS
 14 .debug_abbrev 00004878  00000000  00000000  00021856  2**0
                  CONTENTS, READONLY, DEBUGGING, OCTETS
 15 .debug_loclists 000032a8  00000000  00000000  000260ce  2**0
                  CONTENTS, READONLY, DEBUGGING, OCTETS
 16 .debug_aranges 00000e30  00000000  00000000  00029378  2**3
                  CONTENTS, READONLY, DEBUGGING, OCTETS
 17 .debug_rnglists 00000ea5  00000000  00000000  0002a1a8  2**0
                  CONTENTS, READONLY, DEBUGGING, OCTETS
 18 .debug_macro  0001b98f  00000000  00000000  0002b04d  2**0
                  CONTENTS, READONLY, DEBUGGING, OCTETS
 19 .debug_line   00015df9  00000000  00000000  000469dc  2**0
                  CONTENTS, READONLY, DEBUGGING, OCTETS
 20 .debug_str    0009cb10  00000000  00000000  0005c7d5  2**0
                  CONTENTS, READONLY, DEBUGGING, OCTETS
 21 .comment      00000043  00000000  00000000  000f92e5  2**0
                  CONTENTS, READONLY
 22 .debug_frame  00003180  00000000  00000000  000f9328  2**2
                  CONTENTS, READONLY, DEBUGGING, OCTETS
 23 .debug_line_str 00000066  00000000  00000000  000fc4a8  2**0
                  CONTENTS, READONLY, DEBUGGING, OCTETS

Disassembly of section .text:

080000c0 <__do_global_dtors_aux>:
 80000c0:	b510      	push	{r4, lr}
 80000c2:	4c06      	ldr	r4, [pc, #24]	@ (80000dc <__do_global_dtors_aux+0x1c>)
 80000c4:	7823      	ldrb	r3, [r4, #0]
 80000c6:	2b00      	cmp	r3, #0
 80000c8:	d107      	bne.n	80000da <__do_global_dtors_aux+0x1a>
 80000ca:	4b05      	ldr	r3, [pc, #20]	@ (80000e0 <__do_global_dtors_aux+0x20>)
 80000cc:	2b00      	cmp	r3, #0
 80000ce:	d002      	beq.n	80000d6 <__do_global_dtors_aux+0x16>
 80000d0:	4804      	ldr	r0, [pc, #16]	@ (80000e4 <__do_global_dtors_aux+0x24>)
 80000d2:	e000      	b.n	80000d6 <__do_global_dtors_aux+0x16>
 80000d4:	bf00      	nop
 80000d6:	2301      	movs	r3, #1
 80000d8:	7023      	strb	r3, [r4, #0]
 80000da:	bd10      	pop	{r4, pc}
 80000dc:	20000060 	.word	0x20000060
 80000e0:	00000000 	.word	0x00000000
 80000e4:	08004804 	.word	0x08004804

080000e8 <frame_dummy>:
 80000e8:	4b04      	ldr	r3, [pc, #16]	@ (80000fc <frame_dummy+0x14>)
 80000ea:	b510      	push	{r4, lr}
 80000ec:	2b00      	cmp	r3, #0
 80000ee:	d003      	beq.n	80000f8 <frame_dummy+0x10>
 80000f0:	4903      	ldr	r1, [pc, #12]	@ (8000100 <frame_dummy+0x18>)
 80000f2:	4804      	ldr	r0, [pc, #16]	@ (8000104 <frame_dummy+0x1c>)
 80000f4:	e000      	b.n	80000f8 <frame_dummy+0x10>
 80000f6:	bf00      	nop
 80000f8:	bd10      	pop	{r4, pc}
 80000fa:	46c0      	nop			@ (mov r8, r8)
 80000fc:	00000000 	.word	0x00000000
 8000100:	20000064 	.word	0x20000064
 8000104:	08004804 	.word	0x08004804

08000108 <__gnu_thumb1_case_uqi>:
 8000108:	b402      	push	{r1}
 800010a:	4671      	mov	r1, lr
 800010c:	0849      	lsrs	r1, r1, #1
 800010e:	0049      	lsls	r1, r1, #1
 8000110:	5c09      	ldrb	r1, [r1, r0]
 8000112:	0049      	lsls	r1, r1, #1
 8000114:	448e      	add	lr, r1
 8000116:	bc02      	pop	{r1}
 8000118:	4770      	bx	lr
 800011a:	46c0      	nop			@ (mov r8, r8)

0800011c <__udivsi3>:
 800011c:	2200      	movs	r2, #0
 800011e:	0843      	lsrs	r3, r0, #1
 8000120:	428b      	cmp	r3, r1
 8000122:	d374      	bcc.n	800020e <__udivsi3+0xf2>
 8000124:	0903      	lsrs	r3, r0, #4
 8000126:	428b      	cmp	r3, r1
 8000128:	d35f      	bcc.n	80001ea <__udivsi3+0xce>
 800012a:	0a03      	lsrs	r3, r0, #8
 800012c:	428b      	cmp	r3, r1
 800012e:	d344      	bcc.n	80001ba <__udivsi3+0x9e>
 8000130:	0b03      	lsrs	r3, r0, #12
 8000132:	428b      	cmp	r3, r1
 8000134:	d328      	bcc.n	8000188 <__udivsi3+0x6c>
 8000136:	0c03      	lsrs	r3, r0, #16
 8000138:	428b      	cmp	r3, r1
 800013a:	d30d      	bcc.n	8000158 <__udivsi3+0x3c>
 800013c:	22ff      	movs	r2, #255	@ 0xff
 800013e:	0209      	lsls	r1, r1, #8
 8000140:	ba12      	rev	r2, r2
 8000142:	0c03      	lsrs	r3, r0, #16
 8000144:	428b      	cmp	r3, r1
 8000146:	d302      	bcc.n	800014e <__udivsi3+0x32>
 8000148:	1212      	asrs	r2, r2, #8
 800014a:	0209      	lsls	r1, r1, #8
 800014c:	d065      	beq.n	800021a <__udivsi3+0xfe>
 800014e:	0b03      	lsrs	r3, r0, #12
 8000150:	428b      	cmp	r3, r1
 8000152:	d319      	bcc.n	8000188 <__udivsi3+0x6c>
 8000154:	e000      	b.n	8000158 <__udivsi3+0x3c>
 8000156:	0a09      	lsrs	r1, r1, #8
 8000158:	0bc3      	lsrs	r3, r0, #15
 800015a:	428b      	cmp	r3, r1
 800015c:	d301      	bcc.n	8000162 <__udivsi3+0x46>
 800015e:	03cb      	lsls	r3, r1, #15
 8000160:	1ac0      	subs	r0, r0, r3
 8000162:	4152      	adcs	r2, r2
 8000164:	0b83      	lsrs	r3, r0, #14
 8000166:	428b      	cmp	r3, r1
 8000168:	d301      	bcc.n	800016e <__udivsi3+0x52>
 800016a:	038b      	lsls	r3, r1, #14
 800016c:	1ac0      	subs	r0, r0, r3
 800016e:	4152      	adcs	r2, r2
 8000170:	0b43      	lsrs	r3, r0, #13
 8000172:	428b      	cmp	r3, r1
 8000174:	d301      	bcc.n	800017a <__udivsi3+0x5e>
 8000176:	034b      	lsls	r3, r1, #13
 8000178:	1ac0      	subs	r0, r0, r3
 800017a:	4152      	adcs	r2, r2
 800017c:	0b03      	lsrs	r3, r0, #12
 800017e:	428b      	cmp	r3, r1
 8000180:	d301      	bcc.n	8000186 <__udivsi3+0x6a>
 8000182:	030b      	lsls	r3, r1, #12
 8000184:	1ac0      	subs	r0, r0, r3
 8000186:	4152      	adcs	r2, r2
 8000188:	0ac3      	lsrs	r3, r0, #11
 800018a:	428b      	cmp	r3, r1
 800018c:	d301      	bcc.n	8000192 <__udivsi3+0x76>
 800018e:	02cb      	lsls	r3, r1, #11
 8000190:	1ac0      	subs	r0, r0, r3
 8000192:	4152      	adcs	r2, r2
 8000194:	0a83      	lsrs	r3, r0, #10
 8000196:	428b      	cmp	r3, r1
 8000198:	d301      	bcc.n	800019e <__udivsi3+0x82>
 800019a:	028b      	lsls	r3, r1, #10
 800019c:	1ac0      	subs	r0, r0, r3
 800019e:	4152      	adcs	r2, r2
 80001a0:	0a43      	lsrs	r3, r0, #9
 80001a2:	428b      	cmp	r3, r1
 80001a4:	d301      	bcc.n	80001aa <__udivsi3+0x8e>
 80001a6:	024b      	lsls	r3, r1, #9
 80001a8:	1ac0      	subs	r0, r0, r3
 80001aa:	4152      	adcs	r2, r2
 80001ac:	0a03      	lsrs	r3, r0, #8
 80001ae:	428b      	cmp	r3, r1
 80001b0:	d301      	bcc.n	80001b6 <__udivsi3+0x9a>
 80001b2:	020b      	lsls	r3, r1, #8
 80001b4:	1ac0      	subs	r0, r0, r3
 80001b6:	4152      	adcs	r2, r2
 80001b8:	d2cd      	bcs.n	8000156 <__udivsi3+0x3a>
 80001ba:	09c3      	lsrs	r3, r0, #7
 80001bc:	428b      	cmp	r3, r1
 80001be:	d301      	bcc.n	80001c4 <__udivsi3+0xa8>
 80001c0:	01cb      	lsls	r3, r1, #7
 80001c2:	1ac0      	subs	r0, r0, r3
 80001c4:	4152      	adcs	r2, r2
 80001c6:	0983      	lsrs	r3, r0, #6
 80001c8:	428b      	cmp	r3, r1
 80001ca:	d301      	bcc.n	80001d0 <__udivsi3+0xb4>
 80001cc:	018b      	lsls	r3, r1, #6
 80001ce:	1ac0      	subs	r0, r0, r3
 80001d0:	4152      	adcs	r2, r2
 80001d2:	0943      	lsrs	r3, r0, #5
 80001d4:	428b      	cmp	r3, r1
 80001d6:	d301      	bcc.n	80001dc <__udivsi3+0xc0>
 80001d8:	014b      	lsls	r3, r1, #5
 80001da:	1ac0      	subs	r0, r0, r3
 80001dc:	4152      	adcs	r2, r2
 80001de:	0903      	lsrs	r3, r0, #4
 80001e0:	428b      	cmp	r3, r1
 80001e2:	d301      	bcc.n	80001e8 <__udivsi3+0xcc>
 80001e4:	010b      	lsls	r3, r1, #4
 80001e6:	1ac0      	subs	r0, r0, r3
 80001e8:	4152      	adcs	r2, r2
 80001ea:	08c3      	lsrs	r3, r0, #3
 80001ec:	428b      	cmp	r3, r1
 80001ee:	d301      	bcc.n	80001f4 <__udivsi3+0xd8>
 80001f0:	00cb      	lsls	r3, r1, #3
 80001f2:	1ac0      	subs	r0, r0, r3
 80001f4:	4152      	adcs	r2, r2
 80001f6:	0883      	lsrs	r3, r0, #2
 80001f8:	428b      	cmp	r3, r1
 80001fa:	d301      	bcc.n	8000200 <__udivsi3+0xe4>
 80001fc:	008b      	lsls	r3, r1, #2
 80001fe:	1ac0      	subs	r0, r0, r3
 8000200:	4152      	adcs	r2, r2
 8000202:	0843      	lsrs	r3, r0, #1
 8000204:	428b      	cmp	r3, r1
 8000206:	d301      	bcc.n	800020c <__udivsi3+0xf0>
 8000208:	004b      	lsls	r3, r1, #1
 800020a:	1ac0      	subs	r0, r0, r3
 800020c:	4152      	adcs	r2, r2
 800020e:	1a41      	subs	r1, r0, r1
 8000210:	d200      	bcs.n	8000214 <__udivsi3+0xf8>
 8000212:	4601      	mov	r1, r0
 8000214:	4152      	adcs	r2, r2
 8000216:	4610      	mov	r0, r2
 8000218:	4770      	bx	lr
 800021a:	e7ff      	b.n	800021c <__udivsi3+0x100>
 800021c:	b501      	push	{r0, lr}
 800021e:	2000      	movs	r0, #0
 8000220:	f000 f806 	bl	8000230 <__aeabi_idiv0>
 8000224:	bd02      	pop	{r1, pc}
 8000226:	46c0      	nop			@ (mov r8, r8)

08000228 <__aeabi_uidivmod>:
 8000228:	2900      	cmp	r1, #0
 800022a:	d0f7      	beq.n	800021c <__udivsi3+0x100>
 800022c:	e776      	b.n	800011c <__udivsi3>
 800022e:	4770      	bx	lr

08000230 <__aeabi_idiv0>:
 8000230:	4770      	bx	lr
 8000232:	46c0      	nop			@ (mov r8, r8)

08000234 <_ZN13CommInterface5writeEPKht>:

  inline bool isDataReceived() const { return *receive_size_ > 0; }
  inline bool isTransmitAvailable() const { return *transmit_flag_; }
  inline uint16_t getDataReceivedSize() const { return *receive_size_; }

  virtual InterfaceStatus write(const uint8_t* data, const uint16_t size) { return InterfaceStatus::INTERFACE_ERROR; }
 8000234:	2001      	movs	r0, #1
 8000236:	4770      	bx	lr

08000238 <_ZZN14BootloaderMain22initializeCanInterfaceEvENUlvE_4_FUNEv>:
    if (status != InterfaceStatus::INTERFACE_OK) {
        return status;
    }

    comm_can_->setTxCompleteCallback([]() {
        if (interrupt_instance_ != nullptr and interrupt_instance_->can_messenger_) {
 8000238:	4b05      	ldr	r3, [pc, #20]	@ (8000250 <_ZZN14BootloaderMain22initializeCanInterfaceEvENUlvE_4_FUNEv+0x18>)
    comm_can_->setTxCompleteCallback([]() {
 800023a:	b510      	push	{r4, lr}
        if (interrupt_instance_ != nullptr and interrupt_instance_->can_messenger_) {
 800023c:	681b      	ldr	r3, [r3, #0]
 800023e:	2b00      	cmp	r3, #0
 8000240:	d004      	beq.n	800024c <_ZZN14BootloaderMain22initializeCanInterfaceEvENUlvE_4_FUNEv+0x14>
 8000242:	6858      	ldr	r0, [r3, #4]
 8000244:	2800      	cmp	r0, #0
 8000246:	d001      	beq.n	800024c <_ZZN14BootloaderMain22initializeCanInterfaceEvENUlvE_4_FUNEv+0x14>
            interrupt_instance_->can_messenger_->processQueueFromInterrupt();
 8000248:	f001 f848 	bl	80012dc <_ZN12CanMessenger25processQueueFromInterruptEv>
        }
    });
 800024c:	bd10      	pop	{r4, pc}
 800024e:	46c0      	nop			@ (mov r8, r8)
 8000250:	20000080 	.word	0x20000080

08000254 <_ZN14BootloaderMain18configureCanFilterEv>:
    comm_can_->kickStartTxInterrupts();

    return InterfaceStatus::INTERFACE_OK;
}

InterfaceStatus BootloaderMain::configureCanFilter() {
 8000254:	b51f      	push	{r0, r1, r2, r3, r4, lr}
    uint32_t filterIdHigh = (idToMatch >> 13) & 0xFFFF;
    uint32_t filterIdLow = ((idToMatch << 3) & 0xFFF8) | CAN_ID_EXT;
    uint32_t filterMaskHigh = (idMask >> 13) & 0xFFFF;
    uint32_t filterMaskLow = ((idMask << 3) & 0xFFF8) | CAN_ID_EXT;

    return comm_can_->configCustomFilter(
 8000256:	4b07      	ldr	r3, [pc, #28]	@ (8000274 <_ZN14BootloaderMain18configureCanFilterEv+0x20>)
 8000258:	2100      	movs	r1, #0
 800025a:	9303      	str	r3, [sp, #12]
 800025c:	2307      	movs	r3, #7
 800025e:	9302      	str	r3, [sp, #8]
 8000260:	4b05      	ldr	r3, [pc, #20]	@ (8000278 <_ZN14BootloaderMain18configureCanFilterEv+0x24>)
 8000262:	9100      	str	r1, [sp, #0]
 8000264:	9301      	str	r3, [sp, #4]
 8000266:	000a      	movs	r2, r1
 8000268:	2301      	movs	r3, #1
 800026a:	6800      	ldr	r0, [r0, #0]
 800026c:	f001 faf2 	bl	8001854 <_ZN7CommCan18configCustomFilterEmNS_13CanFilterModeENS_14CanFilterScaleEmmmm>
        filterIdHigh,
        filterIdLow,
        filterMaskHigh,
        filterMaskLow
    );
}
 8000270:	b005      	add	sp, #20
 8000272:	bd00      	pop	{pc}
 8000274:	0000f804 	.word	0x0000f804
 8000278:	00003804 	.word	0x00003804

0800027c <_ZN14BootloaderMain22initializeCanInterfaceEv>:
InterfaceStatus BootloaderMain::initializeCanInterface() {
 800027c:	b570      	push	{r4, r5, r6, lr}
 800027e:	0005      	movs	r5, r0
    InterfaceStatus status = configureCanFilter();
 8000280:	f7ff ffe8 	bl	8000254 <_ZN14BootloaderMain18configureCanFilterEv>
 8000284:	1e04      	subs	r4, r0, #0
    if (status != InterfaceStatus::INTERFACE_OK) {
 8000286:	d113      	bne.n	80002b0 <_ZN14BootloaderMain22initializeCanInterfaceEv+0x34>
    status = comm_can_->startCanPeripheral();
 8000288:	6828      	ldr	r0, [r5, #0]
 800028a:	f001 fa6b 	bl	8001764 <_ZN7CommCan18startCanPeripheralEv>
 800028e:	1e04      	subs	r4, r0, #0
    if (status != InterfaceStatus::INTERFACE_OK) {
 8000290:	d10e      	bne.n	80002b0 <_ZN14BootloaderMain22initializeCanInterfaceEv+0x34>
    status = comm_can_->activateNotifications(notifications);
 8000292:	2103      	movs	r1, #3
 8000294:	6828      	ldr	r0, [r5, #0]
 8000296:	f001 fb01 	bl	800189c <_ZN7CommCan21activateNotificationsEm>
 800029a:	1e04      	subs	r4, r0, #0
    if (status != InterfaceStatus::INTERFACE_OK) {
 800029c:	d108      	bne.n	80002b0 <_ZN14BootloaderMain22initializeCanInterfaceEv+0x34>

  void handleInterruptRxMessage();
  void setTransmitComplete(uint8_t mailbox_number);
  
  static void (*tx_complete_callback_)();
  void setTxCompleteCallback(void (*callback)()) { tx_complete_callback_ = callback; }
 800029e:	4b05      	ldr	r3, [pc, #20]	@ (80002b4 <_ZN14BootloaderMain22initializeCanInterfaceEv+0x38>)
 80002a0:	4a05      	ldr	r2, [pc, #20]	@ (80002b8 <_ZN14BootloaderMain22initializeCanInterfaceEv+0x3c>)
 80002a2:	6828      	ldr	r0, [r5, #0]
 80002a4:	601a      	str	r2, [r3, #0]
  
  static void (*rx_message_callback_)(const CAN_RxHeaderTypeDef&, const uint8_t*, uint8_t);
  void setRxMessageCallback(void (*callback)(const CAN_RxHeaderTypeDef&, const uint8_t*, uint8_t)) { rx_message_callback_ = callback; }
 80002a6:	4b05      	ldr	r3, [pc, #20]	@ (80002bc <_ZN14BootloaderMain22initializeCanInterfaceEv+0x40>)
 80002a8:	4a05      	ldr	r2, [pc, #20]	@ (80002c0 <_ZN14BootloaderMain22initializeCanInterfaceEv+0x44>)
 80002aa:	601a      	str	r2, [r3, #0]
    comm_can_->kickStartTxInterrupts();
 80002ac:	f001 fbd8 	bl	8001a60 <_ZN7CommCan21kickStartTxInterruptsEv>
}
 80002b0:	0020      	movs	r0, r4
 80002b2:	bd70      	pop	{r4, r5, r6, pc}
 80002b4:	2000058c 	.word	0x2000058c
 80002b8:	08000239 	.word	0x08000239
 80002bc:	20000588 	.word	0x20000588
 80002c0:	080003c1 	.word	0x080003c1

080002c4 <_ZN14BootloaderMainC1EP17CAN_HandleTypeDef>:
    uint8_t length;
    uint32_t timestamp;
    uint32_t can_id;
    bool pending;

    RxQueueItem() : priority(RxPriority::METADATA_REQUEST), payload_type_id(0),
 80002c4:	2302      	movs	r3, #2
BootloaderMain::BootloaderMain(CAN_HandleTypeDef* hcan) :
 80002c6:	b5f7      	push	{r0, r1, r2, r4, r5, r6, r7, lr}
                   source_id(0), destination_id(0), length(0), timestamp(0), 
 80002c8:	2500      	movs	r5, #0
 80002ca:	0004      	movs	r4, r0
    RxQueueItem() : priority(RxPriority::METADATA_REQUEST), payload_type_id(0),
 80002cc:	6083      	str	r3, [r0, #8]
                   can_id(0), pending(false) {
 80002ce:	1c43      	adds	r3, r0, #1
                   source_id(0), destination_id(0), length(0), timestamp(0), 
 80002d0:	7505      	strb	r5, [r0, #20]
 80002d2:	6185      	str	r5, [r0, #24]
                   can_id(0), pending(false) {
 80002d4:	61c5      	str	r5, [r0, #28]
      memset(data, 0, sizeof(data));
 80002d6:	2208      	movs	r2, #8
                   can_id(0), pending(false) {
 80002d8:	77dd      	strb	r5, [r3, #31]
 80002da:	9101      	str	r1, [sp, #4]
      memset(data, 0, sizeof(data));
 80002dc:	300c      	adds	r0, #12
 80002de:	0029      	movs	r1, r5
 80002e0:	f004 f9f6 	bl	80046d0 <memset>
    green_led_gpio_(GpioInterface::createDigitalGpio(GREEN_LED_GPIO_Port, GREEN_LED_Pin)) {
 80002e4:	0023      	movs	r3, r4
 80002e6:	2701      	movs	r7, #1
 80002e8:	0020      	movs	r0, r4
 80002ea:	3330      	adds	r3, #48	@ 0x30
 80002ec:	2208      	movs	r2, #8
 80002ee:	0029      	movs	r1, r5
 80002f0:	84a5      	strh	r5, [r4, #36]	@ 0x24
 80002f2:	62a5      	str	r5, [r4, #40]	@ 0x28
 80002f4:	62e7      	str	r7, [r4, #44]	@ 0x2c
 80002f6:	3031      	adds	r0, #49	@ 0x31
 80002f8:	701d      	strb	r5, [r3, #0]
 80002fa:	f004 f9e9 	bl	80046d0 <memset>
 80002fe:	0023      	movs	r3, r4
 8000300:	2180      	movs	r1, #128	@ 0x80
 8000302:	3348      	adds	r3, #72	@ 0x48
 8000304:	63e5      	str	r5, [r4, #60]	@ 0x3c
 8000306:	6425      	str	r5, [r4, #64]	@ 0x40
 8000308:	6465      	str	r5, [r4, #68]	@ 0x44
 800030a:	0109      	lsls	r1, r1, #4
 800030c:	701d      	strb	r5, [r3, #0]
 800030e:	0026      	movs	r6, r4
 8000310:	4820      	ldr	r0, [pc, #128]	@ (8000394 <_ZN14BootloaderMainC1EP17CAN_HandleTypeDef+0xd0>)
 8000312:	f001 fbf1 	bl	8001af8 <_ZN13GpioInterface17createDigitalGpioEP12GPIO_TypeDeft>
 8000316:	0023      	movs	r3, r4
 8000318:	364a      	adds	r6, #74	@ 0x4a
 800031a:	8030      	strh	r0, [r6, #0]
 800031c:	334e      	adds	r3, #78	@ 0x4e
 800031e:	0c00      	lsrs	r0, r0, #16
 8000320:	8070      	strh	r0, [r6, #2]
 8000322:	801d      	strh	r5, [r3, #0]
 8000324:	709d      	strb	r5, [r3, #2]
    comm_can_ = new CommCan(hcan, &can_receive_size_, &can_transmit_flag_);
 8000326:	202c      	movs	r0, #44	@ 0x2c
 8000328:	f004 f8f6 	bl	8004518 <_Znwj>
      : TIMEOUT_(TIMEOUT_DEFAULT_), receive_size_(receive_size), transmit_flag_(transmit_flag) {
 800032c:	2364      	movs	r3, #100	@ 0x64
 800032e:	6043      	str	r3, [r0, #4]
 8000330:	4b19      	ldr	r3, [pc, #100]	@ (8000398 <_ZN14BootloaderMainC1EP17CAN_HandleTypeDef+0xd4>)
 8000332:	4a1a      	ldr	r2, [pc, #104]	@ (800039c <_ZN14BootloaderMainC1EP17CAN_HandleTypeDef+0xd8>)
 8000334:	60c3      	str	r3, [r0, #12]
    *transmit_flag_ = true;
 8000336:	701f      	strb	r7, [r3, #0]
      : CommInterface(receive_size, transmit_flag), handler_(handler) {
 8000338:	4b19      	ldr	r3, [pc, #100]	@ (80003a0 <_ZN14BootloaderMainC1EP17CAN_HandleTypeDef+0xdc>)
 800033a:	0006      	movs	r6, r0
 800033c:	6003      	str	r3, [r0, #0]
 800033e:	9b01      	ldr	r3, [sp, #4]
 8000340:	0029      	movs	r1, r5
      : TIMEOUT_(TIMEOUT_DEFAULT_), receive_size_(receive_size), transmit_flag_(transmit_flag) {
 8000342:	6082      	str	r2, [r0, #8]
    *receive_size_ = 0;
 8000344:	8015      	strh	r5, [r2, #0]
      : CommInterface(receive_size, transmit_flag), handler_(handler) {
 8000346:	6103      	str	r3, [r0, #16]
 8000348:	2218      	movs	r2, #24
 800034a:	3014      	adds	r0, #20
 800034c:	f004 f9c0 	bl	80046d0 <memset>
    tx_header_.DLC = 8;
 8000350:	2308      	movs	r3, #8
    initCanPeripheral(perform_reset);
 8000352:	0039      	movs	r1, r7
    tx_header_.DLC = 8;
 8000354:	6273      	str	r3, [r6, #36]	@ 0x24
    initCanPeripheral(perform_reset);
 8000356:	0030      	movs	r0, r6
 8000358:	f001 f98c 	bl	8001674 <_ZN7CommCan17initCanPeripheralEb>
    can_instance_ = this;
 800035c:	4b11      	ldr	r3, [pc, #68]	@ (80003a4 <_ZN14BootloaderMainC1EP17CAN_HandleTypeDef+0xe0>)
    can_messenger_ = new CanMessenger(comm_can_, bluelink::ComponentId::COMPONENT_ID_BOOTLOADER);
 800035e:	200c      	movs	r0, #12
    comm_can_ = new CommCan(hcan, &can_receive_size_, &can_transmit_flag_);
 8000360:	6026      	str	r6, [r4, #0]
 8000362:	601e      	str	r6, [r3, #0]
    can_messenger_ = new CanMessenger(comm_can_, bluelink::ComponentId::COMPONENT_ID_BOOTLOADER);
 8000364:	f004 f8d8 	bl	8004518 <_Znwj>
 8000368:	0005      	movs	r5, r0
 800036a:	2207      	movs	r2, #7
 800036c:	6821      	ldr	r1, [r4, #0]
 800036e:	f001 f91b 	bl	80015a8 <_ZN12CanMessengerC1EP7CommCanN8bluelink11ComponentIdE>
 8000372:	6065      	str	r5, [r4, #4]
  void updateLedPattern();
  inline void setLedState(bool on) {
    GpioInterface::digitalWrite(green_led_gpio_, on ? GpioPinState::PIN_SET : GpioPinState::PIN_RESET);
  }

  inline uint32_t getCurrentTime() const { return HAL_GetTick(); }
 8000374:	f001 fcd4 	bl	8001d20 <HAL_GetTick>
    interrupt_instance_ = this;
 8000378:	4b0b      	ldr	r3, [pc, #44]	@ (80003a8 <_ZN14BootloaderMainC1EP17CAN_HandleTypeDef+0xe4>)
    boot_start_time_ = getCurrentTime();
 800037a:	6420      	str	r0, [r4, #64]	@ 0x40
    InterfaceStatus status = initializeCanInterface();
 800037c:	0020      	movs	r0, r4
    interrupt_instance_ = this;
 800037e:	601c      	str	r4, [r3, #0]
    InterfaceStatus status = initializeCanInterface();
 8000380:	f7ff ff7c 	bl	800027c <_ZN14BootloaderMain22initializeCanInterfaceEv>
    if (status != InterfaceStatus::INTERFACE_OK) {
 8000384:	2800      	cmp	r0, #0
 8000386:	d000      	beq.n	800038a <_ZN14BootloaderMainC1EP17CAN_HandleTypeDef+0xc6>

void BootloaderMain::processMetaDataRequest() {
    requestMetaDataSend(current_rx_item_.source_id);
}
void BootloaderMain::transitionToState(BootloaderState new_state) {
    bootloader_state_ = new_state;
 8000388:	2006      	movs	r0, #6
}
 800038a:	1d63      	adds	r3, r4, #5
 800038c:	77d8      	strb	r0, [r3, #31]
 800038e:	0020      	movs	r0, r4
 8000390:	bdfe      	pop	{r1, r2, r3, r4, r5, r6, r7, pc}
 8000392:	46c0      	nop			@ (mov r8, r8)
 8000394:	48000400 	.word	0x48000400
 8000398:	20000000 	.word	0x20000000
 800039c:	20000084 	.word	0x20000084
 80003a0:	080048b4 	.word	0x080048b4
 80003a4:	2000059c 	.word	0x2000059c
 80003a8:	20000080 	.word	0x20000080

080003ac <_ZN14BootloaderMain28directEnqueueRxFromInterruptERK19CAN_RxHeaderTypeDefPKhh>:
void BootloaderMain::directEnqueueRxFromInterrupt(const CAN_RxHeaderTypeDef& header, const uint8_t* data, uint8_t length) {
 80003ac:	b510      	push	{r4, lr}
    if (rx_id->destination_id != bluelink::COMPONENT_ID_BOOTLOADER) {
 80003ae:	794c      	ldrb	r4, [r1, #5]
 80003b0:	2c07      	cmp	r4, #7
 80003b2:	d104      	bne.n	80003be <_ZN14BootloaderMain28directEnqueueRxFromInterruptERK19CAN_RxHeaderTypeDefPKhh+0x12>
 80003b4:	6840      	ldr	r0, [r0, #4]
    if (can_messenger_) {
 80003b6:	2800      	cmp	r0, #0
 80003b8:	d001      	beq.n	80003be <_ZN14BootloaderMain28directEnqueueRxFromInterruptERK19CAN_RxHeaderTypeDefPKhh+0x12>
        can_messenger_->enqueueRxMessageFromInterrupt(header, data, length);
 80003ba:	f001 f821 	bl	8001400 <_ZN12CanMessenger29enqueueRxMessageFromInterruptERK19CAN_RxHeaderTypeDefPKhh>
}
 80003be:	bd10      	pop	{r4, pc}

080003c0 <_ZZN14BootloaderMain22initializeCanInterfaceEvENUlRK19CAN_RxHeaderTypeDefPKhhE_4_FUNES2_S4_h>:
    comm_can_->setRxMessageCallback([](const CAN_RxHeaderTypeDef& header, const uint8_t* data, uint8_t length) {
 80003c0:	0013      	movs	r3, r2
        if (interrupt_instance_ != nullptr and interrupt_instance_->can_messenger_) {
 80003c2:	4a07      	ldr	r2, [pc, #28]	@ (80003e0 <_ZZN14BootloaderMain22initializeCanInterfaceEvENUlRK19CAN_RxHeaderTypeDefPKhhE_4_FUNES2_S4_h+0x20>)
    comm_can_->setRxMessageCallback([](const CAN_RxHeaderTypeDef& header, const uint8_t* data, uint8_t length) {
 80003c4:	b510      	push	{r4, lr}
 80003c6:	0004      	movs	r4, r0
        if (interrupt_instance_ != nullptr and interrupt_instance_->can_messenger_) {
 80003c8:	6810      	ldr	r0, [r2, #0]
 80003ca:	2800      	cmp	r0, #0
 80003cc:	d006      	beq.n	80003dc <_ZZN14BootloaderMain22initializeCanInterfaceEvENUlRK19CAN_RxHeaderTypeDefPKhhE_4_FUNES2_S4_h+0x1c>
 80003ce:	6842      	ldr	r2, [r0, #4]
 80003d0:	2a00      	cmp	r2, #0
 80003d2:	d003      	beq.n	80003dc <_ZZN14BootloaderMain22initializeCanInterfaceEvENUlRK19CAN_RxHeaderTypeDefPKhhE_4_FUNES2_S4_h+0x1c>
            interrupt_instance_->directEnqueueRxFromInterrupt(header, data, length);
 80003d4:	000a      	movs	r2, r1
 80003d6:	0021      	movs	r1, r4
 80003d8:	f7ff ffe8 	bl	80003ac <_ZN14BootloaderMain28directEnqueueRxFromInterruptERK19CAN_RxHeaderTypeDefPKhh>
    });
 80003dc:	bd10      	pop	{r4, pc}
 80003de:	46c0      	nop			@ (mov r8, r8)
 80003e0:	20000080 	.word	0x20000080

080003e4 <_ZN14BootloaderMain14sendCanMessageEhN8bluelink14PayloadTypeIdsEPKvj>:
                                    const void* data, size_t data_size) {
 80003e4:	b570      	push	{r4, r5, r6, lr}
 80003e6:	001e      	movs	r6, r3
	unsigned data_page : 1;
	const unsigned extended_data_page : 1;
	unsigned priority : 3;
	const unsigned reserve : 3;

	J1939CanIdStruct(const uint8_t source_id, const uint8_t destination_id, const uint8_t payload_type, const uint8_t data_page = 0) :
 80003e8:	2307      	movs	r3, #7
 80003ea:	b088      	sub	sp, #32
 80003ec:	9301      	str	r3, [sp, #4]
		source_id(source_id), destination_id(destination_id), payload_type(payload_type), data_page(data_page),
 80003ee:	2300      	movs	r3, #0
 80003f0:	0004      	movs	r4, r0
 80003f2:	a801      	add	r0, sp, #4
 80003f4:	70c3      	strb	r3, [r0, #3]
    comm_can_->setupTxHeader(tx_header, can_id, data_size);
 80003f6:	9b0c      	ldr	r3, [sp, #48]	@ 0x30
 80003f8:	7041      	strb	r1, [r0, #1]
 80003fa:	b2dd      	uxtb	r5, r3
 80003fc:	002b      	movs	r3, r5
 80003fe:	7082      	strb	r2, [r0, #2]
 8000400:	a902      	add	r1, sp, #8
 8000402:	0002      	movs	r2, r0
 8000404:	6820      	ldr	r0, [r4, #0]
 8000406:	f001 fac5 	bl	8001994 <_ZN7CommCan13setupTxHeaderER19CAN_TxHeaderTypeDefRKN8bluelink16J1939CanIdStructEh>
    return can_messenger_->enqueueTxMessage(tx_header,
 800040a:	002b      	movs	r3, r5
 800040c:	0032      	movs	r2, r6
 800040e:	6860      	ldr	r0, [r4, #4]
 8000410:	a902      	add	r1, sp, #8
 8000412:	f000 ffad 	bl	8001370 <_ZN12CanMessenger16enqueueTxMessageERK19CAN_TxHeaderTypeDefPKhh>
}
 8000416:	b008      	add	sp, #32
 8000418:	bd70      	pop	{r4, r5, r6, pc}
	...

0800041c <_ZN14BootloaderMain28handlePendingMetadataRequestEv>:
void BootloaderMain::handlePendingMetadataRequest() {
 800041c:	b51f      	push	{r0, r1, r2, r3, r4, lr}
    if (not is_metadata_send_requested_) return;
 800041e:	0004      	movs	r4, r0
 8000420:	344e      	adds	r4, #78	@ 0x4e
 8000422:	7823      	ldrb	r3, [r4, #0]
 8000424:	2b00      	cmp	r3, #0
 8000426:	d01e      	beq.n	8000466 <_ZN14BootloaderMain28handlePendingMetadataRequestEv+0x4a>
        .component_id = meta.MY_COMPONENT_ID,
 8000428:	4a0f      	ldr	r2, [pc, #60]	@ (8000468 <_ZN14BootloaderMain28handlePendingMetadataRequestEv+0x4c>)
    };
 800042a:	ab02      	add	r3, sp, #8
        .component_id = meta.MY_COMPONENT_ID,
 800042c:	7811      	ldrb	r1, [r2, #0]
    };
 800042e:	7019      	strb	r1, [r3, #0]
        .app_version = {meta.APPLICATION_VERSION.major, meta.APPLICATION_VERSION.minor, meta.APPLICATION_VERSION.patch},
 8000430:	7851      	ldrb	r1, [r2, #1]
    };
 8000432:	7059      	strb	r1, [r3, #1]
        .app_version = {meta.APPLICATION_VERSION.major, meta.APPLICATION_VERSION.minor, meta.APPLICATION_VERSION.patch},
 8000434:	7891      	ldrb	r1, [r2, #2]
    };
 8000436:	7099      	strb	r1, [r3, #2]
        .app_version = {meta.APPLICATION_VERSION.major, meta.APPLICATION_VERSION.minor, meta.APPLICATION_VERSION.patch},
 8000438:	78d1      	ldrb	r1, [r2, #3]
    };
 800043a:	70d9      	strb	r1, [r3, #3]
        .config_version = {meta.CONFIGURATION_VERSION.major, meta.CONFIGURATION_VERSION.minor, meta.CONFIGURATION_VERSION.patch},
 800043c:	7911      	ldrb	r1, [r2, #4]
    };
 800043e:	7119      	strb	r1, [r3, #4]
        .config_version = {meta.CONFIGURATION_VERSION.major, meta.CONFIGURATION_VERSION.minor, meta.CONFIGURATION_VERSION.patch},
 8000440:	7951      	ldrb	r1, [r2, #5]
    };
 8000442:	7159      	strb	r1, [r3, #5]
        .config_version = {meta.CONFIGURATION_VERSION.major, meta.CONFIGURATION_VERSION.minor, meta.CONFIGURATION_VERSION.patch},
 8000444:	7991      	ldrb	r1, [r2, #6]
        .config_type = meta.config_type.type
 8000446:	3208      	adds	r2, #8
    };
 8000448:	7199      	strb	r1, [r3, #6]
        .config_type = meta.config_type.type
 800044a:	7fd2      	ldrb	r2, [r2, #31]
    };
 800044c:	71da      	strb	r2, [r3, #7]
    if (sendCanMessage(metadata_destination_id_, bluelink::PayloadTypeIds::CONTROLLER_META_DATA_TELEMETRY,
 800044e:	0002      	movs	r2, r0
 8000450:	324f      	adds	r2, #79	@ 0x4f
 8000452:	7811      	ldrb	r1, [r2, #0]
 8000454:	2208      	movs	r2, #8
 8000456:	9200      	str	r2, [sp, #0]
 8000458:	322e      	adds	r2, #46	@ 0x2e
 800045a:	f7ff ffc3 	bl	80003e4 <_ZN14BootloaderMain14sendCanMessageEhN8bluelink14PayloadTypeIdsEPKvj>
 800045e:	2800      	cmp	r0, #0
 8000460:	d001      	beq.n	8000466 <_ZN14BootloaderMain28handlePendingMetadataRequestEv+0x4a>
        is_metadata_send_requested_ = false;
 8000462:	2300      	movs	r3, #0
 8000464:	7023      	strb	r3, [r4, #0]
}
 8000466:	bd1f      	pop	{r0, r1, r2, r3, r4, pc}
 8000468:	08005000 	.word	0x08005000

0800046c <_ZN14BootloaderMain28handlePendingProgrammingDataEv>:
void BootloaderMain::handlePendingProgrammingData() {
 800046c:	b513      	push	{r0, r1, r4, lr}
    if (not is_programming_data_send_requested_) return;
 800046e:	0004      	movs	r4, r0
 8000470:	3450      	adds	r4, #80	@ 0x50
 8000472:	7823      	ldrb	r3, [r4, #0]
 8000474:	2b00      	cmp	r3, #0
 8000476:	d00a      	beq.n	800048e <_ZN14BootloaderMain28handlePendingProgrammingDataEv+0x22>
                       &programming_data_to_send_, sizeof(programming_data_to_send_))) {
 8000478:	0003      	movs	r3, r0
    if (sendCanMessage(bluelink::ComponentId::COMPONENT_ID_HLC, bluelink::PayloadTypeIds::PROGRAMMING_COMMAND,
 800047a:	2108      	movs	r1, #8
 800047c:	2223      	movs	r2, #35	@ 0x23
                       &programming_data_to_send_, sizeof(programming_data_to_send_))) {
 800047e:	3351      	adds	r3, #81	@ 0x51
    if (sendCanMessage(bluelink::ComponentId::COMPONENT_ID_HLC, bluelink::PayloadTypeIds::PROGRAMMING_COMMAND,
 8000480:	9100      	str	r1, [sp, #0]
 8000482:	f7ff ffaf 	bl	80003e4 <_ZN14BootloaderMain14sendCanMessageEhN8bluelink14PayloadTypeIdsEPKvj>
 8000486:	2800      	cmp	r0, #0
 8000488:	d001      	beq.n	800048e <_ZN14BootloaderMain28handlePendingProgrammingDataEv+0x22>
        is_programming_data_send_requested_ = false;
 800048a:	2300      	movs	r3, #0
 800048c:	7023      	strb	r3, [r4, #0]
}
 800048e:	bd13      	pop	{r0, r1, r4, pc}

08000490 <_ZN14BootloaderMain14processTxQueueEv>:
void BootloaderMain::processTxQueue() {
 8000490:	b510      	push	{r4, lr}
 8000492:	0004      	movs	r4, r0
    can_messenger_->processQueueFromTick();
 8000494:	6840      	ldr	r0, [r0, #4]
 8000496:	f001 f821 	bl	80014dc <_ZN12CanMessenger20processQueueFromTickEv>
    handlePendingMetadataRequest();
 800049a:	0020      	movs	r0, r4
 800049c:	f7ff ffbe 	bl	800041c <_ZN14BootloaderMain28handlePendingMetadataRequestEv>
    handlePendingProgrammingData();
 80004a0:	0020      	movs	r0, r4
 80004a2:	f7ff ffe3 	bl	800046c <_ZN14BootloaderMain28handlePendingProgrammingDataEv>
}
 80004a6:	bd10      	pop	{r4, pc}

080004a8 <_ZN14BootloaderMain25processProgrammingCommandEv>:
void BootloaderMain::processProgrammingCommand() {
 80004a8:	b510      	push	{r4, lr}
 80004aa:	0004      	movs	r4, r0
    memcpy(&received_programming_command_, current_rx_item_.data, sizeof(received_programming_command_));
 80004ac:	0021      	movs	r1, r4
 80004ae:	2208      	movs	r2, #8
 80004b0:	310c      	adds	r1, #12
 80004b2:	3031      	adds	r0, #49	@ 0x31
 80004b4:	f004 f99c 	bl	80047f0 <memcpy>
    auto cmd_type = received_programming_command_.programming_command_union.programming_command_type;
 80004b8:	0023      	movs	r3, r4
 80004ba:	3334      	adds	r3, #52	@ 0x34
 80004bc:	6b22      	ldr	r2, [r4, #48]	@ 0x30
 80004be:	781b      	ldrb	r3, [r3, #0]
 80004c0:	0a12      	lsrs	r2, r2, #8
 80004c2:	061b      	lsls	r3, r3, #24
    if (bootloader_state_ == BootloaderState::WAITING_FOR_COMMAND and 
 80004c4:	1d60      	adds	r0, r4, #5
    auto cmd_type = received_programming_command_.programming_command_union.programming_command_type;
 80004c6:	4313      	orrs	r3, r2
    if (bootloader_state_ == BootloaderState::WAITING_FOR_COMMAND and 
 80004c8:	7fc2      	ldrb	r2, [r0, #31]
 80004ca:	490b      	ldr	r1, [pc, #44]	@ (80004f8 <_ZN14BootloaderMain25processProgrammingCommandEv+0x50>)
 80004cc:	2a01      	cmp	r2, #1
 80004ce:	d104      	bne.n	80004da <_ZN14BootloaderMain25processProgrammingCommandEv+0x32>
 80004d0:	428b      	cmp	r3, r1
 80004d2:	d106      	bne.n	80004e2 <_ZN14BootloaderMain25processProgrammingCommandEv+0x3a>
    bootloader_state_ = new_state;
 80004d4:	2302      	movs	r3, #2
 80004d6:	77c3      	strb	r3, [r0, #31]
}
 80004d8:	bd10      	pop	{r4, pc}
                       (cmd_type == bluelink::CommandsPayload::ProgrammingCommand::PROGRAMMING_STATE_APPLICATION_FLASHING) or
 80004da:	428b      	cmp	r3, r1
 80004dc:	d105      	bne.n	80004ea <_ZN14BootloaderMain25processProgrammingCommandEv+0x42>
    if (is_state_cmd and bootloader_state_ != BootloaderState::WAITING_FOR_COMMAND and 
 80004de:	2a03      	cmp	r2, #3
 80004e0:	d1fa      	bne.n	80004d8 <_ZN14BootloaderMain25processProgrammingCommandEv+0x30>
    is_programming_command_received_ = true;
 80004e2:	2301      	movs	r3, #1
 80004e4:	3430      	adds	r4, #48	@ 0x30
 80004e6:	7023      	strb	r3, [r4, #0]
 80004e8:	e7f6      	b.n	80004d8 <_ZN14BootloaderMain25processProgrammingCommandEv+0x30>
    bool is_state_cmd = (cmd_type == bluelink::CommandsPayload::ProgrammingCommand::PROGRAMMING_STATE_START) or
 80004ea:	4904      	ldr	r1, [pc, #16]	@ (80004fc <_ZN14BootloaderMain25processProgrammingCommandEv+0x54>)
 80004ec:	428b      	cmp	r3, r1
 80004ee:	d0f6      	beq.n	80004de <_ZN14BootloaderMain25processProgrammingCommandEv+0x36>
                       (cmd_type == bluelink::CommandsPayload::ProgrammingCommand::PROGRAMMING_STATE_APPLICATION_FLASHING) or
 80004f0:	4903      	ldr	r1, [pc, #12]	@ (8000500 <_ZN14BootloaderMain25processProgrammingCommandEv+0x58>)
 80004f2:	428b      	cmp	r3, r1
 80004f4:	d1f5      	bne.n	80004e2 <_ZN14BootloaderMain25processProgrammingCommandEv+0x3a>
 80004f6:	e7f2      	b.n	80004de <_ZN14BootloaderMain25processProgrammingCommandEv+0x36>
 80004f8:	33333333 	.word	0x33333333
 80004fc:	44441111 	.word	0x44441111
 8000500:	44442222 	.word	0x44442222

08000504 <_ZN14BootloaderMain22processRxQueuedMessageEv>:
    if (not can_messenger_ or can_messenger_->isRxQueueEmpty()) {
 8000504:	6843      	ldr	r3, [r0, #4]
void BootloaderMain::processRxQueuedMessage() {
 8000506:	b570      	push	{r4, r5, r6, lr}
 8000508:	0004      	movs	r4, r0
    if (not can_messenger_ or can_messenger_->isRxQueueEmpty()) {
 800050a:	2b00      	cmp	r3, #0
 800050c:	d01f      	beq.n	800054e <_ZN14BootloaderMain22processRxQueuedMessageEv+0x4a>
  inline bool isTxQueueEmpty() const { return tx_queue_count_ == 0; }
  inline bool isTxQueueFull() const { return tx_queue_count_ >= TX_QUEUE_SIZE_; }
  inline uint8_t getTxQueueCount() const { return tx_queue_count_; }
  inline uint8_t getTxFreeSlots() const { return TX_QUEUE_SIZE_ - tx_queue_count_; }
  
  inline bool isRxQueueEmpty() const { return rx_queue_count_ == 0; }
 800050e:	4b10      	ldr	r3, [pc, #64]	@ (8000550 <_ZN14BootloaderMain22processRxQueuedMessageEv+0x4c>)
 8000510:	781b      	ldrb	r3, [r3, #0]
 8000512:	2b00      	cmp	r3, #0
 8000514:	d01b      	beq.n	800054e <_ZN14BootloaderMain22processRxQueuedMessageEv+0x4a>
 8000516:	2504      	movs	r5, #4



void BootloaderMain::requestMetaDataSend(uint8_t destination_id) {
    metadata_destination_id_ = destination_id;
    is_metadata_send_requested_ = true;
 8000518:	2601      	movs	r6, #1
           can_messenger_->getNextRxMessage(current_rx_item_)) {
 800051a:	0021      	movs	r1, r4
 800051c:	6860      	ldr	r0, [r4, #4]
 800051e:	3108      	adds	r1, #8
 8000520:	f000 ffc4 	bl	80014ac <_ZN12CanMessenger16getNextRxMessageERNS_11RxQueueItemE>
    while (messages_processed < MAX_RX_MESSAGES_PER_TICK and
 8000524:	2800      	cmp	r0, #0
 8000526:	d012      	beq.n	800054e <_ZN14BootloaderMain22processRxQueuedMessageEv+0x4a>
        const bluelink::PayloadTypeIds payload_type = static_cast<bluelink::PayloadTypeIds>(current_rx_item_.payload_type_id);
 8000528:	7a63      	ldrb	r3, [r4, #9]
        switch (payload_type) {
 800052a:	2b23      	cmp	r3, #35	@ 0x23
 800052c:	d008      	beq.n	8000540 <_ZN14BootloaderMain22processRxQueuedMessageEv+0x3c>
 800052e:	2b36      	cmp	r3, #54	@ 0x36
 8000530:	d109      	bne.n	8000546 <_ZN14BootloaderMain22processRxQueuedMessageEv+0x42>
    metadata_destination_id_ = destination_id;
 8000532:	0023      	movs	r3, r4
 8000534:	7aa2      	ldrb	r2, [r4, #10]
 8000536:	334f      	adds	r3, #79	@ 0x4f
 8000538:	701a      	strb	r2, [r3, #0]
    is_metadata_send_requested_ = true;
 800053a:	3b01      	subs	r3, #1
 800053c:	701e      	strb	r6, [r3, #0]
}
 800053e:	e002      	b.n	8000546 <_ZN14BootloaderMain22processRxQueuedMessageEv+0x42>
            processProgrammingCommand();
 8000540:	0020      	movs	r0, r4
 8000542:	f7ff ffb1 	bl	80004a8 <_ZN14BootloaderMain25processProgrammingCommandEv>
    while (messages_processed < MAX_RX_MESSAGES_PER_TICK and
 8000546:	3d01      	subs	r5, #1
 8000548:	b2ed      	uxtb	r5, r5
 800054a:	2d00      	cmp	r5, #0
 800054c:	d1e5      	bne.n	800051a <_ZN14BootloaderMain22processRxQueuedMessageEv+0x16>
}
 800054e:	bd70      	pop	{r4, r5, r6, pc}
 8000550:	20000140 	.word	0x20000140

08000554 <_ZN14BootloaderMain15handleInitStateEv>:
    return address == bluelink::CommandsPayload::ProgrammingCommand::PROGRAMMING_STATE_START;
}

bool BootloaderMain::isProgrammingCommandMetaDataPresent() const {
    const volatile MetaData& meta_data = NonVolatileMemoryInterface::META_DATA_;
    return meta_data.programming_state == ProgrammingState::PROGRAMMING_STATE_PROGRAMMING_COMMAND;
 8000554:	4b04      	ldr	r3, [pc, #16]	@ (8000568 <_ZN14BootloaderMain15handleInitStateEv+0x14>)
 8000556:	3005      	adds	r0, #5
 8000558:	781b      	ldrb	r3, [r3, #0]
    bootloader_state_ = new_state;
 800055a:	3b01      	subs	r3, #1
 800055c:	425a      	negs	r2, r3
 800055e:	4153      	adcs	r3, r2
 8000560:	3301      	adds	r3, #1
 8000562:	77c3      	strb	r3, [r0, #31]
}
 8000564:	4770      	bx	lr
 8000566:	46c0      	nop			@ (mov r8, r8)
 8000568:	08005028 	.word	0x08005028

0800056c <_ZN14BootloaderMain30handleProgrammingCompleteStateEv>:
    flash_state_ = FlashOperationState::LOCKING;
 800056c:	2204      	movs	r2, #4
 800056e:	1d83      	adds	r3, r0, #6
void BootloaderMain::handleProgrammingCompleteState() {
 8000570:	b510      	push	{r4, lr}
    flash_state_ = FlashOperationState::LOCKING;
 8000572:	77da      	strb	r2, [r3, #31]
void BootloaderMain::handleProgrammingCompleteState() {
 8000574:	0004      	movs	r4, r0
    HAL_FLASH_Lock();
 8000576:	f002 fd7b 	bl	8003070 <HAL_FLASH_Lock>
    bootloader_state_ = new_state;
 800057a:	2307      	movs	r3, #7
 800057c:	84a3      	strh	r3, [r4, #36]	@ 0x24
}
 800057e:	bd10      	pop	{r4, pc}

08000580 <_ZN14BootloaderMain16handleErrorStateEv>:
    flash_state_ = FlashOperationState::LOCKING;
 8000580:	2304      	movs	r3, #4
void BootloaderMain::handleErrorState() {
 8000582:	b570      	push	{r4, r5, r6, lr}
    flash_state_ = FlashOperationState::LOCKING;
 8000584:	1d85      	adds	r5, r0, #6
void BootloaderMain::handleErrorState() {
 8000586:	0004      	movs	r4, r0
    flash_state_ = FlashOperationState::LOCKING;
 8000588:	77eb      	strb	r3, [r5, #31]
    HAL_FLASH_Lock();
 800058a:	f002 fd71 	bl	8003070 <HAL_FLASH_Lock>
    flash_state_ = FlashOperationState::IDLE;
 800058e:	2300      	movs	r3, #0
    ProgrammingState new_state = (programming_state_ == bluelink::CommandsPayload::ProgrammingCommand::PROGRAMMING_STATE_APPLICATION_FLASHING or
 8000590:	6aa2      	ldr	r2, [r4, #40]	@ 0x28
                                  programming_state_ == bluelink::CommandsPayload::ProgrammingCommand::PROGRAMMING_STATE_CONFIG_FLASHING) ?
 8000592:	4909      	ldr	r1, [pc, #36]	@ (80005b8 <_ZN14BootloaderMain16handleErrorStateEv+0x38>)
 8000594:	0018      	movs	r0, r3
    flash_state_ = FlashOperationState::IDLE;
 8000596:	77eb      	strb	r3, [r5, #31]
                                  programming_state_ == bluelink::CommandsPayload::ProgrammingCommand::PROGRAMMING_STATE_CONFIG_FLASHING) ?
 8000598:	428a      	cmp	r2, r1
 800059a:	d003      	beq.n	80005a4 <_ZN14BootloaderMain16handleErrorStateEv+0x24>
    ProgrammingState new_state = (programming_state_ == bluelink::CommandsPayload::ProgrammingCommand::PROGRAMMING_STATE_APPLICATION_FLASHING or
 800059c:	4907      	ldr	r1, [pc, #28]	@ (80005bc <_ZN14BootloaderMain16handleErrorStateEv+0x3c>)
 800059e:	428a      	cmp	r2, r1
 80005a0:	d000      	beq.n	80005a4 <_ZN14BootloaderMain16handleErrorStateEv+0x24>
                                  programming_state_ == bluelink::CommandsPayload::ProgrammingCommand::PROGRAMMING_STATE_CONFIG_FLASHING) ?
 80005a2:	3003      	adds	r0, #3
    NonVolatileMemoryInterface::updateProgrammingStateOnMetaData(new_state);
 80005a4:	f001 fb20 	bl	8001be8 <_ZN26NonVolatileMemoryInterface32updateProgrammingStateOnMetaDataE16ProgrammingState>
    SystemInterface::delay(BOOTLOADER_EXIT_DELAY_MS_);
 80005a8:	2064      	movs	r0, #100	@ 0x64
 80005aa:	f001 fb31 	bl	8001c10 <_ZN15SystemInterface5delayEm>
    bootloader_state_ = new_state;
 80005ae:	2307      	movs	r3, #7
 80005b0:	3405      	adds	r4, #5
 80005b2:	77e3      	strb	r3, [r4, #31]
}
 80005b4:	bd70      	pop	{r4, r5, r6, pc}
 80005b6:	46c0      	nop			@ (mov r8, r8)
 80005b8:	44441111 	.word	0x44441111
 80005bc:	44442222 	.word	0x44442222

080005c0 <_ZN14BootloaderMain11unlockFlashEv>:
    flash_state_ = FlashOperationState::UNLOCKING;
 80005c0:	2301      	movs	r3, #1
bool BootloaderMain::unlockFlash() {
 80005c2:	b510      	push	{r4, lr}
    flash_state_ = FlashOperationState::UNLOCKING;
 80005c4:	1d84      	adds	r4, r0, #6
 80005c6:	77e3      	strb	r3, [r4, #31]
    HAL_StatusTypeDef status = HAL_FLASH_Unlock();
 80005c8:	f002 fd2c 	bl	8003024 <HAL_FLASH_Unlock>
}
 80005cc:	2300      	movs	r3, #0
 80005ce:	77e3      	strb	r3, [r4, #31]
    if (status == HAL_OK) {
 80005d0:	4243      	negs	r3, r0
 80005d2:	4158      	adcs	r0, r3
}
 80005d4:	b2c0      	uxtb	r0, r0
 80005d6:	bd10      	pop	{r4, pc}

080005d8 <_ZN14BootloaderMain10eraseFlashEv>:
    flash_state_ = FlashOperationState::ERASING;
 80005d8:	2302      	movs	r3, #2
bool BootloaderMain::eraseFlash() {
 80005da:	b530      	push	{r4, r5, lr}
    flash_state_ = FlashOperationState::ERASING;
 80005dc:	1d84      	adds	r4, r0, #6
bool BootloaderMain::eraseFlash() {
 80005de:	b085      	sub	sp, #20
bool BootloaderMain::isTimeoutExpired(uint32_t start_time, uint32_t timeout_ms) const {
    return (getCurrentTime() - start_time) > timeout_ms;
}

uint32_t BootloaderMain::getFlashAddressForProgrammingState() const {
    if (programming_state_ == bluelink::CommandsPayload::ProgrammingCommand::PROGRAMMING_STATE_APPLICATION_FLASHING) {
 80005e0:	6a82      	ldr	r2, [r0, #40]	@ 0x28
    flash_state_ = FlashOperationState::ERASING;
 80005e2:	77e3      	strb	r3, [r4, #31]
    if (programming_state_ == bluelink::CommandsPayload::ProgrammingCommand::PROGRAMMING_STATE_APPLICATION_FLASHING) {
 80005e4:	4b0f      	ldr	r3, [pc, #60]	@ (8000624 <_ZN14BootloaderMain10eraseFlashEv+0x4c>)
 80005e6:	429a      	cmp	r2, r3
 80005e8:	d118      	bne.n	800061c <_ZN14BootloaderMain10eraseFlashEv+0x44>
    }
}

uint32_t BootloaderMain::getFlashSizeForProgrammingState() const {
    if (programming_state_ == bluelink::CommandsPayload::ProgrammingCommand::PROGRAMMING_STATE_APPLICATION_FLASHING) {
        return FLASH_APPLICATION_BYTES_SIZE;
 80005ea:	23a0      	movs	r3, #160	@ 0xa0
        return FLASH_APPLICATION_ADDRESS;
 80005ec:	4a0e      	ldr	r2, [pc, #56]	@ (8000628 <_ZN14BootloaderMain10eraseFlashEv+0x50>)
        return FLASH_APPLICATION_BYTES_SIZE;
 80005ee:	021b      	lsls	r3, r3, #8
    FLASH_EraseInitTypeDef EraseInitStruct = {
 80005f0:	2500      	movs	r5, #0
    const uint32_t nbPages = (flash_size + FLASH_PAGE_SIZE_ - 1) / FLASH_PAGE_SIZE_;
 80005f2:	0adb      	lsrs	r3, r3, #11
    HAL_StatusTypeDef status = HAL_FLASHEx_Erase(&EraseInitStruct, &page_error);
 80005f4:	4669      	mov	r1, sp
 80005f6:	a801      	add	r0, sp, #4
    };
 80005f8:	9303      	str	r3, [sp, #12]
    FLASH_EraseInitTypeDef EraseInitStruct = {
 80005fa:	9501      	str	r5, [sp, #4]
    };
 80005fc:	9202      	str	r2, [sp, #8]
    HAL_StatusTypeDef status = HAL_FLASHEx_Erase(&EraseInitStruct, &page_error);
 80005fe:	f002 fdd1 	bl	80031a4 <HAL_FLASHEx_Erase>
    return true;
 8000602:	2301      	movs	r3, #1
    if (status != HAL_OK) {
 8000604:	42a8      	cmp	r0, r5
 8000606:	d004      	beq.n	8000612 <_ZN14BootloaderMain10eraseFlashEv+0x3a>
    flash_state_ = FlashOperationState::LOCKING;
 8000608:	3303      	adds	r3, #3
 800060a:	77e3      	strb	r3, [r4, #31]
    HAL_FLASH_Lock();
 800060c:	f002 fd30 	bl	8003070 <HAL_FLASH_Lock>
        return false;
 8000610:	002b      	movs	r3, r5
    flash_state_ = FlashOperationState::IDLE;
 8000612:	2200      	movs	r2, #0
}
 8000614:	0018      	movs	r0, r3
    flash_state_ = FlashOperationState::IDLE;
 8000616:	77e2      	strb	r2, [r4, #31]
}
 8000618:	b005      	add	sp, #20
 800061a:	bd30      	pop	{r4, r5, pc}
    } else if (programming_state_ == bluelink::CommandsPayload::ProgrammingCommand::PROGRAMMING_STATE_CONFIG_FLASHING) {
        return FLASH_CONFIG_BYTES_SIZE;
 800061c:	2380      	movs	r3, #128	@ 0x80
        return FLASH_CONFIG_ADDRESS;
 800061e:	4a03      	ldr	r2, [pc, #12]	@ (800062c <_ZN14BootloaderMain10eraseFlashEv+0x54>)
        return FLASH_CONFIG_BYTES_SIZE;
 8000620:	011b      	lsls	r3, r3, #4
 8000622:	e7e5      	b.n	80005f0 <_ZN14BootloaderMain10eraseFlashEv+0x18>
 8000624:	44441111 	.word	0x44441111
 8000628:	08005800 	.word	0x08005800
 800062c:	0800f800 	.word	0x0800f800

08000630 <_ZN14BootloaderMain14writeFlashWordEmm>:
bool BootloaderMain::writeFlashWord(uint32_t address, uint32_t data) {
 8000630:	b570      	push	{r4, r5, r6, lr}
    flash_state_ = FlashOperationState::WRITING;
 8000632:	2303      	movs	r3, #3
    HAL_StatusTypeDef status = HAL_FLASH_Program(FLASH_TYPEPROGRAM_WORD, address, data);
 8000634:	2500      	movs	r5, #0
    flash_state_ = FlashOperationState::WRITING;
 8000636:	1d84      	adds	r4, r0, #6
 8000638:	77e3      	strb	r3, [r4, #31]
    HAL_StatusTypeDef status = HAL_FLASH_Program(FLASH_TYPEPROGRAM_WORD, address, data);
 800063a:	2002      	movs	r0, #2
 800063c:	002b      	movs	r3, r5
 800063e:	f002 fc5b 	bl	8002ef8 <HAL_FLASH_Program>
    return (status == HAL_OK);
 8000642:	4243      	negs	r3, r0
 8000644:	4158      	adcs	r0, r3
    flash_state_ = FlashOperationState::IDLE;
 8000646:	77e5      	strb	r5, [r4, #31]
    return (status == HAL_OK);
 8000648:	b2c0      	uxtb	r0, r0
}
 800064a:	bd70      	pop	{r4, r5, r6, pc}

0800064c <_ZN14BootloaderMain26prepareFlashForProgrammingEv>:
void BootloaderMain::prepareFlashForProgramming() {
 800064c:	b510      	push	{r4, lr}
 800064e:	0004      	movs	r4, r0
    unlockFlash();
 8000650:	f7ff ffb6 	bl	80005c0 <_ZN14BootloaderMain11unlockFlashEv>
    eraseFlash();
 8000654:	0020      	movs	r0, r4
 8000656:	f7ff ffbf 	bl	80005d8 <_ZN14BootloaderMain10eraseFlashEv>
    SystemInterface::delay(FLASH_ERASE_DELAY_MS_);
 800065a:	4802      	ldr	r0, [pc, #8]	@ (8000664 <_ZN14BootloaderMain26prepareFlashForProgrammingEv+0x18>)
 800065c:	f001 fad8 	bl	8001c10 <_ZN15SystemInterface5delayEm>
}
 8000660:	bd10      	pop	{r4, pc}
 8000662:	46c0      	nop			@ (mov r8, r8)
 8000664:	000005dc 	.word	0x000005dc

08000668 <_ZN14BootloaderMain14exitBootloaderEv>:
void BootloaderMain::exitBootloader() {
 8000668:	b510      	push	{r4, lr}
    comm_can_->prepareForBootloader();
 800066a:	6800      	ldr	r0, [r0, #0]
 800066c:	f001 f93e 	bl	80018ec <_ZN7CommCan20prepareForBootloaderEv>
    SystemInterface::delay(BOOTLOADER_EXIT_DELAY_MS_);
 8000670:	2064      	movs	r0, #100	@ 0x64
 8000672:	f001 facd 	bl	8001c10 <_ZN15SystemInterface5delayEm>
}
 8000676:	bd10      	pop	{r4, pc}

08000678 <_ZN14BootloaderMain17jumpToApplicationEb>:
void BootloaderMain::jumpToApplication(bool force_jump) {
 8000678:	b570      	push	{r4, r5, r6, lr}
    return IS_APP_EXIST(FLASH_APPLICATION_ADDRESS);
 800067a:	4c0f      	ldr	r4, [pc, #60]	@ (80006b8 <_ZN14BootloaderMain17jumpToApplicationEb+0x40>)
 800067c:	4a0f      	ldr	r2, [pc, #60]	@ (80006bc <_ZN14BootloaderMain17jumpToApplicationEb+0x44>)
 800067e:	6823      	ldr	r3, [r4, #0]
 8000680:	4013      	ands	r3, r2
    if ((isApplicationPresent() and isProgrammingStateFlashed()) or force_jump) {
 8000682:	2280      	movs	r2, #128	@ 0x80
 8000684:	0592      	lsls	r2, r2, #22
 8000686:	4293      	cmp	r3, r2
 8000688:	d103      	bne.n	8000692 <_ZN14BootloaderMain17jumpToApplicationEb+0x1a>
    return meta_data.programming_state == ProgrammingState::PROGRAMMING_STATE_FLASHED;
 800068a:	4b0d      	ldr	r3, [pc, #52]	@ (80006c0 <_ZN14BootloaderMain17jumpToApplicationEb+0x48>)
 800068c:	781b      	ldrb	r3, [r3, #0]
    if ((isApplicationPresent() and isProgrammingStateFlashed()) or force_jump) {
 800068e:	2b03      	cmp	r3, #3
 8000690:	d001      	beq.n	8000696 <_ZN14BootloaderMain17jumpToApplicationEb+0x1e>
 8000692:	2900      	cmp	r1, #0
 8000694:	d007      	beq.n	80006a6 <_ZN14BootloaderMain17jumpToApplicationEb+0x2e>
        uint32_t jump_address = *(uint32_t*)(FLASH_APPLICATION_ADDRESS + 4);
 8000696:	4b0b      	ldr	r3, [pc, #44]	@ (80006c4 <_ZN14BootloaderMain17jumpToApplicationEb+0x4c>)
 8000698:	681d      	ldr	r5, [r3, #0]
        if (jump_address == 0xFFFFFFFF || jump_address == 0x00000000) {
 800069a:	1e6b      	subs	r3, r5, #1
 800069c:	3303      	adds	r3, #3
 800069e:	d903      	bls.n	80006a8 <_ZN14BootloaderMain17jumpToApplicationEb+0x30>
    bootloader_state_ = new_state;
 80006a0:	2300      	movs	r3, #0
 80006a2:	3005      	adds	r0, #5
 80006a4:	77c3      	strb	r3, [r0, #31]
}
 80006a6:	bd70      	pop	{r4, r5, r6, pc}
        exitBootloader();
 80006a8:	f7ff ffde 	bl	8000668 <_ZN14BootloaderMain14exitBootloaderEv>
  \details Assigns the given value to the Main Stack Pointer (MSP).
  \param [in]    topOfMainStack  Main Stack Pointer value to set
 */
__STATIC_FORCEINLINE void __set_MSP(uint32_t topOfMainStack)
{
  __ASM volatile ("MSR msp, %0" : : "r" (topOfMainStack) : );
 80006ac:	6823      	ldr	r3, [r4, #0]
 80006ae:	f383 8808 	msr	MSP, r3
        jump_to_application();
 80006b2:	47a8      	blx	r5
 80006b4:	e7f7      	b.n	80006a6 <_ZN14BootloaderMain17jumpToApplicationEb+0x2e>
 80006b6:	46c0      	nop			@ (mov r8, r8)
 80006b8:	08005800 	.word	0x08005800
 80006bc:	2ffe0000 	.word	0x2ffe0000
 80006c0:	08005028 	.word	0x08005028
 80006c4:	08005804 	.word	0x08005804

080006c8 <_ZN14BootloaderMain20handleJumpToAppStateEv>:
void BootloaderMain::handleJumpToAppState() {
 80006c8:	b510      	push	{r4, lr}
    jumpToApplication(true);
 80006ca:	2101      	movs	r1, #1
 80006cc:	f7ff ffd4 	bl	8000678 <_ZN14BootloaderMain17jumpToApplicationEb>
}
 80006d0:	bd10      	pop	{r4, pc}
	...

080006d4 <_ZN14BootloaderMain25requestProgrammingFromHLCEv>:
void BootloaderMain::requestProgrammingFromHLC() {
 80006d4:	b570      	push	{r4, r5, r6, lr}
    if (isTimeoutExpired(last_request_time, REQUEST_PERIOD_MS_)) {
 80006d6:	4d08      	ldr	r5, [pc, #32]	@ (80006f8 <_ZN14BootloaderMain25requestProgrammingFromHLCEv+0x24>)
void BootloaderMain::requestProgrammingFromHLC() {
 80006d8:	0004      	movs	r4, r0
    if (isTimeoutExpired(last_request_time, REQUEST_PERIOD_MS_)) {
 80006da:	682e      	ldr	r6, [r5, #0]
 80006dc:	f001 fb20 	bl	8001d20 <HAL_GetTick>
 80006e0:	23fa      	movs	r3, #250	@ 0xfa
    return (getCurrentTime() - start_time) > timeout_ms;
 80006e2:	1b80      	subs	r0, r0, r6
    if (isTimeoutExpired(last_request_time, REQUEST_PERIOD_MS_)) {
 80006e4:	00db      	lsls	r3, r3, #3
 80006e6:	4298      	cmp	r0, r3
 80006e8:	d905      	bls.n	80006f6 <_ZN14BootloaderMain25requestProgrammingFromHLCEv+0x22>
 80006ea:	f001 fb19 	bl	8001d20 <HAL_GetTick>
    is_metadata_send_requested_ = true;
 80006ee:	4b03      	ldr	r3, [pc, #12]	@ (80006fc <_ZN14BootloaderMain25requestProgrammingFromHLCEv+0x28>)
 80006f0:	344e      	adds	r4, #78	@ 0x4e
        last_request_time = getCurrentTime();
 80006f2:	6028      	str	r0, [r5, #0]
    is_metadata_send_requested_ = true;
 80006f4:	8023      	strh	r3, [r4, #0]
}
 80006f6:	bd70      	pop	{r4, r5, r6, pc}
 80006f8:	2000007c 	.word	0x2000007c
 80006fc:	00000801 	.word	0x00000801

08000700 <_ZN14BootloaderMain14handleTimeoutsEv>:
void BootloaderMain::handleTimeouts() {
 8000700:	b5f8      	push	{r3, r4, r5, r6, r7, lr}
    return bootloader_state_ == BootloaderState::WAITING_FOR_PROGRAMMING_READY or
 8000702:	1d45      	adds	r5, r0, #5
 8000704:	7feb      	ldrb	r3, [r5, #31]
 8000706:	0004      	movs	r4, r0
    if (isProgrammingInProgress() and
 8000708:	3b03      	subs	r3, #3
 800070a:	4e19      	ldr	r6, [pc, #100]	@ (8000770 <_ZN14BootloaderMain14handleTimeoutsEv+0x70>)
 800070c:	2b01      	cmp	r3, #1
 800070e:	d807      	bhi.n	8000720 <_ZN14BootloaderMain14handleTimeoutsEv+0x20>
        isTimeoutExpired(programming_timeout_start_, PROGRAMMING_TIMEOUT_MS_)) {
 8000710:	6bc7      	ldr	r7, [r0, #60]	@ 0x3c
  inline uint32_t getCurrentTime() const { return HAL_GetTick(); }
 8000712:	f001 fb05 	bl	8001d20 <HAL_GetTick>
    return (getCurrentTime() - start_time) > timeout_ms;
 8000716:	1bc0      	subs	r0, r0, r7
    if (isProgrammingInProgress() and
 8000718:	42b0      	cmp	r0, r6
 800071a:	d901      	bls.n	8000720 <_ZN14BootloaderMain14handleTimeoutsEv+0x20>
    bootloader_state_ = new_state;
 800071c:	2306      	movs	r3, #6
 800071e:	77eb      	strb	r3, [r5, #31]
    return (HAL_GetTick() - boot_start_time_) > BOOT_TIMEOUT_MS_;
 8000720:	f001 fafe 	bl	8001d20 <HAL_GetTick>
 8000724:	6c23      	ldr	r3, [r4, #64]	@ 0x40
 8000726:	1ac0      	subs	r0, r0, r3
    if (isBootTimeoutExceeded() and not isInProgrammingFlow()) {
 8000728:	42b0      	cmp	r0, r6
 800072a:	d918      	bls.n	800075e <_ZN14BootloaderMain14handleTimeoutsEv+0x5e>
            bootloader_state_ == BootloaderState::WAITING_FOR_PROGRAMMING_READY or
 800072c:	7feb      	ldrb	r3, [r5, #31]
            is_programming_command_received_ or
 800072e:	3b02      	subs	r3, #2
 8000730:	2b02      	cmp	r3, #2
 8000732:	d914      	bls.n	800075e <_ZN14BootloaderMain14handleTimeoutsEv+0x5e>
            bootloader_state_ == BootloaderState::PROGRAMMING_IN_PROGRESS or
 8000734:	0023      	movs	r3, r4
 8000736:	3330      	adds	r3, #48	@ 0x30
 8000738:	781e      	ldrb	r6, [r3, #0]
 800073a:	2e00      	cmp	r6, #0
 800073c:	d10f      	bne.n	800075e <_ZN14BootloaderMain14handleTimeoutsEv+0x5e>
    return meta_data.programming_state == ProgrammingState::PROGRAMMING_STATE_PROGRAMMING_COMMAND;
 800073e:	4b0d      	ldr	r3, [pc, #52]	@ (8000774 <_ZN14BootloaderMain14handleTimeoutsEv+0x74>)
 8000740:	781b      	ldrb	r3, [r3, #0]
            is_programming_command_received_ or
 8000742:	2b01      	cmp	r3, #1
 8000744:	d00b      	beq.n	800075e <_ZN14BootloaderMain14handleTimeoutsEv+0x5e>
    return (HAL_GetTick() - boot_start_time_) > FORCE_APP_TIMEOUT_MS_;
 8000746:	f001 faeb 	bl	8001d20 <HAL_GetTick>
 800074a:	6c23      	ldr	r3, [r4, #64]	@ 0x40
 800074c:	1ac0      	subs	r0, r0, r3
        if (isForceAppTimeoutExceeded()) {
 800074e:	4b0a      	ldr	r3, [pc, #40]	@ (8000778 <_ZN14BootloaderMain14handleTimeoutsEv+0x78>)
 8000750:	4298      	cmp	r0, r3
 8000752:	d905      	bls.n	8000760 <_ZN14BootloaderMain14handleTimeoutsEv+0x60>
  inline uint32_t getCurrentTime() const { return HAL_GetTick(); }
 8000754:	f001 fae4 	bl	8001d20 <HAL_GetTick>
    bootloader_state_ = new_state;
 8000758:	2307      	movs	r3, #7
            boot_start_time_ = getCurrentTime();
 800075a:	6420      	str	r0, [r4, #64]	@ 0x40
    bootloader_state_ = new_state;
 800075c:	77eb      	strb	r3, [r5, #31]
}
 800075e:	bdf8      	pop	{r3, r4, r5, r6, r7, pc}
            jumpToApplication(false);
 8000760:	0020      	movs	r0, r4
 8000762:	0031      	movs	r1, r6
 8000764:	f7ff ff88 	bl	8000678 <_ZN14BootloaderMain17jumpToApplicationEb>
            requestProgrammingFromHLC();
 8000768:	0020      	movs	r0, r4
 800076a:	f7ff ffb3 	bl	80006d4 <_ZN14BootloaderMain25requestProgrammingFromHLCEv>
}
 800076e:	e7f6      	b.n	800075e <_ZN14BootloaderMain14handleTimeoutsEv+0x5e>
 8000770:	00000bb8 	.word	0x00000bb8
 8000774:	08005028 	.word	0x08005028
 8000778:	00001388 	.word	0x00001388

0800077c <_ZNK14BootloaderMain25isProgrammingStartCommandEv>:
    return is_programming_command_received_ and
 800077c:	0002      	movs	r2, r0
 800077e:	3230      	adds	r2, #48	@ 0x30
bool BootloaderMain::isProgrammingStartCommand() const {
 8000780:	0003      	movs	r3, r0
    return is_programming_command_received_ and
 8000782:	7810      	ldrb	r0, [r2, #0]
 8000784:	2800      	cmp	r0, #0
 8000786:	d00a      	beq.n	800079e <_ZNK14BootloaderMain25isProgrammingStartCommandEv+0x22>
           (received_programming_command_.programming_command_union.programming_command_type == start_state);
 8000788:	6b1a      	ldr	r2, [r3, #48]	@ 0x30
 800078a:	3334      	adds	r3, #52	@ 0x34
 800078c:	7818      	ldrb	r0, [r3, #0]
 800078e:	0a12      	lsrs	r2, r2, #8
    return is_programming_command_received_ and
 8000790:	4b03      	ldr	r3, [pc, #12]	@ (80007a0 <_ZNK14BootloaderMain25isProgrammingStartCommandEv+0x24>)
           (received_programming_command_.programming_command_union.programming_command_type == start_state);
 8000792:	0600      	lsls	r0, r0, #24
 8000794:	4310      	orrs	r0, r2
    return is_programming_command_received_ and
 8000796:	18c0      	adds	r0, r0, r3
 8000798:	4243      	negs	r3, r0
 800079a:	4158      	adcs	r0, r3
 800079c:	b2c0      	uxtb	r0, r0
}
 800079e:	4770      	bx	lr
 80007a0:	cccccccd 	.word	0xcccccccd

080007a4 <_ZN14BootloaderMain28handleWaitingForCommandStateEv>:
void BootloaderMain::handleWaitingForCommandState() {
 80007a4:	b510      	push	{r4, lr}
 80007a6:	0004      	movs	r4, r0
    if (isProgrammingStartCommand()) {
 80007a8:	f7ff ffe8 	bl	800077c <_ZNK14BootloaderMain25isProgrammingStartCommandEv>
 80007ac:	2800      	cmp	r0, #0
 80007ae:	d006      	beq.n	80007be <_ZN14BootloaderMain28handleWaitingForCommandStateEv+0x1a>
        is_programming_command_received_ = false;
 80007b0:	0023      	movs	r3, r4
 80007b2:	2200      	movs	r2, #0
 80007b4:	3330      	adds	r3, #48	@ 0x30
 80007b6:	701a      	strb	r2, [r3, #0]
    bootloader_state_ = new_state;
 80007b8:	2302      	movs	r3, #2
 80007ba:	3405      	adds	r4, #5
 80007bc:	77e3      	strb	r3, [r4, #31]
}
 80007be:	bd10      	pop	{r4, pc}

080007c0 <_ZNK14BootloaderMain25isProgrammingReadyCommandEv>:
    return is_programming_command_received_ and
 80007c0:	0002      	movs	r2, r0
 80007c2:	3230      	adds	r2, #48	@ 0x30
bool BootloaderMain::isProgrammingReadyCommand() const {
 80007c4:	0003      	movs	r3, r0
    return is_programming_command_received_ and
 80007c6:	7810      	ldrb	r0, [r2, #0]
 80007c8:	2800      	cmp	r0, #0
 80007ca:	d00d      	beq.n	80007e8 <_ZNK14BootloaderMain25isProgrammingReadyCommandEv+0x28>
           ((received_programming_command_.programming_command_union.programming_command_type == app_flashing) or
 80007cc:	6b1a      	ldr	r2, [r3, #48]	@ 0x30
 80007ce:	3334      	adds	r3, #52	@ 0x34
 80007d0:	781b      	ldrb	r3, [r3, #0]
 80007d2:	0a12      	lsrs	r2, r2, #8
 80007d4:	061b      	lsls	r3, r3, #24
 80007d6:	4313      	orrs	r3, r2
    return is_programming_command_received_ and
 80007d8:	4a04      	ldr	r2, [pc, #16]	@ (80007ec <_ZNK14BootloaderMain25isProgrammingReadyCommandEv+0x2c>)
 80007da:	4293      	cmp	r3, r2
 80007dc:	d004      	beq.n	80007e8 <_ZNK14BootloaderMain25isProgrammingReadyCommandEv+0x28>
           ((received_programming_command_.programming_command_union.programming_command_type == app_flashing) or
 80007de:	4a04      	ldr	r2, [pc, #16]	@ (80007f0 <_ZNK14BootloaderMain25isProgrammingReadyCommandEv+0x30>)
 80007e0:	189b      	adds	r3, r3, r2
 80007e2:	425a      	negs	r2, r3
 80007e4:	4153      	adcs	r3, r2
 80007e6:	b2d8      	uxtb	r0, r3
}
 80007e8:	4770      	bx	lr
 80007ea:	46c0      	nop			@ (mov r8, r8)
 80007ec:	44441111 	.word	0x44441111
 80007f0:	bbbbddde 	.word	0xbbbbddde

080007f4 <_ZN14BootloaderMain12resetTimeoutEv>:
void BootloaderMain::resetTimeout() {
 80007f4:	b510      	push	{r4, lr}
 80007f6:	0004      	movs	r4, r0
 80007f8:	f001 fa92 	bl	8001d20 <HAL_GetTick>
    programming_timeout_start_ = getCurrentTime();
 80007fc:	63e0      	str	r0, [r4, #60]	@ 0x3c
}
 80007fe:	bd10      	pop	{r4, pc}

08000800 <_ZN14BootloaderMain27handleProgrammingReadyStateEv>:
    programming_data_to_send_ = prog_cmd;
 8000800:	0003      	movs	r3, r0
 8000802:	2233      	movs	r2, #51	@ 0x33
 8000804:	3351      	adds	r3, #81	@ 0x51
void BootloaderMain::handleProgrammingReadyState() {
 8000806:	b510      	push	{r4, lr}
    is_programming_data_send_requested_ = true;
 8000808:	3b01      	subs	r3, #1
    programming_data_to_send_ = prog_cmd;
 800080a:	705a      	strb	r2, [r3, #1]
 800080c:	709a      	strb	r2, [r3, #2]
 800080e:	70da      	strb	r2, [r3, #3]
 8000810:	711a      	strb	r2, [r3, #4]
    is_programming_data_send_requested_ = true;
 8000812:	3a32      	subs	r2, #50	@ 0x32
void BootloaderMain::handleProgrammingReadyState() {
 8000814:	0004      	movs	r4, r0
    is_programming_data_send_requested_ = true;
 8000816:	701a      	strb	r2, [r3, #0]
    resetTimeout();
 8000818:	f7ff ffec 	bl	80007f4 <_ZN14BootloaderMain12resetTimeoutEv>
    bootloader_state_ = new_state;
 800081c:	2303      	movs	r3, #3
 800081e:	3405      	adds	r4, #5
 8000820:	77e3      	strb	r3, [r4, #31]
}
 8000822:	bd10      	pop	{r4, pc}

08000824 <_ZN14BootloaderMain37handleWaitingForProgrammingReadyStateEv>:
void BootloaderMain::handleWaitingForProgrammingReadyState() {
 8000824:	b510      	push	{r4, lr}
 8000826:	0004      	movs	r4, r0
    if (isProgrammingReadyCommand()) {
 8000828:	f7ff ffca 	bl	80007c0 <_ZNK14BootloaderMain25isProgrammingReadyCommandEv>
 800082c:	2800      	cmp	r0, #0
 800082e:	d016      	beq.n	800085e <_ZN14BootloaderMain37handleWaitingForProgrammingReadyStateEv+0x3a>
        is_programming_command_received_ = false;
 8000830:	0023      	movs	r3, r4
 8000832:	2200      	movs	r2, #0
 8000834:	3330      	adds	r3, #48	@ 0x30
 8000836:	701a      	strb	r2, [r3, #0]
        programming_state_ = received_programming_command_.programming_command_union.programming_command_type;
 8000838:	3304      	adds	r3, #4
 800083a:	6b22      	ldr	r2, [r4, #48]	@ 0x30
 800083c:	781b      	ldrb	r3, [r3, #0]
 800083e:	0a12      	lsrs	r2, r2, #8
 8000840:	061b      	lsls	r3, r3, #24
 8000842:	4313      	orrs	r3, r2
 8000844:	62a3      	str	r3, [r4, #40]	@ 0x28
        NonVolatileMemoryInterface::updateProgrammingStateOnMetaData(
 8000846:	2002      	movs	r0, #2
 8000848:	f001 f9ce 	bl	8001be8 <_ZN26NonVolatileMemoryInterface32updateProgrammingStateOnMetaDataE16ProgrammingState>
        prepareFlashForProgramming();
 800084c:	0020      	movs	r0, r4
 800084e:	f7ff fefd 	bl	800064c <_ZN14BootloaderMain26prepareFlashForProgrammingEv>
        resetTimeout();
 8000852:	0020      	movs	r0, r4
 8000854:	f7ff ffce 	bl	80007f4 <_ZN14BootloaderMain12resetTimeoutEv>
    bootloader_state_ = new_state;
 8000858:	2304      	movs	r3, #4
 800085a:	3405      	adds	r4, #5
 800085c:	77e3      	strb	r3, [r4, #31]
}
 800085e:	bd10      	pop	{r4, pc}

08000860 <_ZN14BootloaderMain21resetProgrammingStateEv>:
    flash_state_ = FlashOperationState::LOCKING;
 8000860:	2304      	movs	r3, #4
        // Default to config size for safety, but this shouldn't happen
        return FLASH_CONFIG_BYTES_SIZE;
    }
}

void BootloaderMain::resetProgrammingState() {
 8000862:	b570      	push	{r4, r5, r6, lr}
    flash_state_ = FlashOperationState::LOCKING;
 8000864:	1d85      	adds	r5, r0, #6
 8000866:	77eb      	strb	r3, [r5, #31]
void BootloaderMain::resetProgrammingState() {
 8000868:	0004      	movs	r4, r0
    HAL_FLASH_Lock();
 800086a:	f002 fc01 	bl	8003070 <HAL_FLASH_Lock>
    flash_state_ = FlashOperationState::IDLE;
 800086e:	2300      	movs	r3, #0
	lockFlash();
    resetTimeout();
 8000870:	0020      	movs	r0, r4
    flash_state_ = FlashOperationState::IDLE;
 8000872:	77eb      	strb	r3, [r5, #31]
    resetTimeout();
 8000874:	f7ff ffbe 	bl	80007f4 <_ZN14BootloaderMain12resetTimeoutEv>
    NonVolatileMemoryInterface::updateProgrammingStateOnMetaData(
 8000878:	2001      	movs	r0, #1
 800087a:	f001 f9b5 	bl	8001be8 <_ZN26NonVolatileMemoryInterface32updateProgrammingStateOnMetaDataE16ProgrammingState>
        ProgrammingState::PROGRAMMING_STATE_PROGRAMMING_COMMAND);
}
 800087e:	bd70      	pop	{r4, r5, r6, pc}

08000880 <_ZN14BootloaderMain30handleSingleProgrammingCommandEv>:
    const uint32_t address = received_programming_command_.programming_command_union.programming_command_data.programming_address;
 8000880:	0002      	movs	r2, r0
uint32_t BootloaderMain::handleSingleProgrammingCommand() {
 8000882:	b570      	push	{r4, r5, r6, lr}
    const uint32_t address = received_programming_command_.programming_command_union.programming_command_data.programming_address;
 8000884:	3234      	adds	r2, #52	@ 0x34
 8000886:	7814      	ldrb	r4, [r2, #0]
 8000888:	6b03      	ldr	r3, [r0, #48]	@ 0x30
 800088a:	0624      	lsls	r4, r4, #24
 800088c:	0a1b      	lsrs	r3, r3, #8
    const uint32_t data = received_programming_command_.programming_command_union.programming_command_data.programming_data;
 800088e:	3204      	adds	r2, #4
 8000890:	7812      	ldrb	r2, [r2, #0]
    const uint32_t address = received_programming_command_.programming_command_union.programming_command_data.programming_address;
 8000892:	431c      	orrs	r4, r3
    const uint32_t data = received_programming_command_.programming_command_union.programming_command_data.programming_data;
 8000894:	6b43      	ldr	r3, [r0, #52]	@ 0x34
 8000896:	0612      	lsls	r2, r2, #24
 8000898:	0a1b      	lsrs	r3, r3, #8
 800089a:	431a      	orrs	r2, r3
    if (isProgrammingDoneAddress(address)) {
 800089c:	4b17      	ldr	r3, [pc, #92]	@ (80008fc <_ZN14BootloaderMain30handleSingleProgrammingCommandEv+0x7c>)
uint32_t BootloaderMain::handleSingleProgrammingCommand() {
 800089e:	0005      	movs	r5, r0
    if (isProgrammingDoneAddress(address)) {
 80008a0:	429c      	cmp	r4, r3
 80008a2:	d004      	beq.n	80008ae <_ZN14BootloaderMain30handleSingleProgrammingCommandEv+0x2e>
    if (isProgrammingRestartAddress(address)) {
 80008a4:	4b16      	ldr	r3, [pc, #88]	@ (8000900 <_ZN14BootloaderMain30handleSingleProgrammingCommandEv+0x80>)
 80008a6:	429c      	cmp	r4, r3
 80008a8:	d103      	bne.n	80008b2 <_ZN14BootloaderMain30handleSingleProgrammingCommandEv+0x32>
        resetProgrammingState();
 80008aa:	f7ff ffd9 	bl	8000860 <_ZN14BootloaderMain21resetProgrammingStateEv>
}
 80008ae:	0020      	movs	r0, r4
 80008b0:	bd70      	pop	{r4, r5, r6, pc}
    if (isValidFlashAddress(address) and address > last_programmed_address_) {
 80008b2:	21a8      	movs	r1, #168	@ 0xa8
 80008b4:	4b13      	ldr	r3, [pc, #76]	@ (8000904 <_ZN14BootloaderMain30handleSingleProgrammingCommandEv+0x84>)
    uint32_t new_address = last_programmed_address_;
 80008b6:	6ac6      	ldr	r6, [r0, #44]	@ 0x2c
    if (isValidFlashAddress(address) and address > last_programmed_address_) {
 80008b8:	18e3      	adds	r3, r4, r3
 80008ba:	0209      	lsls	r1, r1, #8
 80008bc:	428b      	cmp	r3, r1
 80008be:	d206      	bcs.n	80008ce <_ZN14BootloaderMain30handleSingleProgrammingCommandEv+0x4e>
 80008c0:	42b4      	cmp	r4, r6
 80008c2:	d904      	bls.n	80008ce <_ZN14BootloaderMain30handleSingleProgrammingCommandEv+0x4e>
        write_success = writeFlashWord(address, data);
 80008c4:	0021      	movs	r1, r4
 80008c6:	f7ff feb3 	bl	8000630 <_ZN14BootloaderMain14writeFlashWordEmm>
        if (write_success) {
 80008ca:	2800      	cmp	r0, #0
 80008cc:	d112      	bne.n	80008f4 <_ZN14BootloaderMain30handleSingleProgrammingCommandEv+0x74>
    uint32_t new_address = last_programmed_address_;
 80008ce:	0034      	movs	r4, r6
    programming_data_to_send_ = response_cmd;
 80008d0:	002b      	movs	r3, r5
 80008d2:	2200      	movs	r2, #0
 80008d4:	3351      	adds	r3, #81	@ 0x51
 80008d6:	0a21      	lsrs	r1, r4, #8
 80008d8:	7059      	strb	r1, [r3, #1]
 80008da:	0c21      	lsrs	r1, r4, #16
 80008dc:	7099      	strb	r1, [r3, #2]
 80008de:	0e21      	lsrs	r1, r4, #24
 80008e0:	701c      	strb	r4, [r3, #0]
 80008e2:	70d9      	strb	r1, [r3, #3]
 80008e4:	711a      	strb	r2, [r3, #4]
 80008e6:	715a      	strb	r2, [r3, #5]
 80008e8:	719a      	strb	r2, [r3, #6]
 80008ea:	71da      	strb	r2, [r3, #7]
    is_programming_data_send_requested_ = true;
 80008ec:	2301      	movs	r3, #1
 80008ee:	3550      	adds	r5, #80	@ 0x50
 80008f0:	702b      	strb	r3, [r5, #0]
    return new_address;
 80008f2:	e7dc      	b.n	80008ae <_ZN14BootloaderMain30handleSingleProgrammingCommandEv+0x2e>
            resetTimeout();
 80008f4:	0028      	movs	r0, r5
 80008f6:	f7ff ff7d 	bl	80007f4 <_ZN14BootloaderMain12resetTimeoutEv>
 80008fa:	e7e9      	b.n	80008d0 <_ZN14BootloaderMain30handleSingleProgrammingCommandEv+0x50>
 80008fc:	55555555 	.word	0x55555555
 8000900:	33333333 	.word	0x33333333
 8000904:	f7ffa800 	.word	0xf7ffa800

08000908 <_ZN14BootloaderMain32handleProgrammingInProgressStateEv>:
    if (is_programming_command_received_) {
 8000908:	0003      	movs	r3, r0
void BootloaderMain::handleProgrammingInProgressState() {
 800090a:	b570      	push	{r4, r5, r6, lr}
    if (is_programming_command_received_) {
 800090c:	3330      	adds	r3, #48	@ 0x30
 800090e:	781a      	ldrb	r2, [r3, #0]
void BootloaderMain::handleProgrammingInProgressState() {
 8000910:	0004      	movs	r4, r0
    if (is_programming_command_received_) {
 8000912:	2a00      	cmp	r2, #0
 8000914:	d00d      	beq.n	8000932 <_ZN14BootloaderMain32handleProgrammingInProgressStateEv+0x2a>
        is_programming_command_received_ = false;
 8000916:	2500      	movs	r5, #0
 8000918:	701d      	strb	r5, [r3, #0]
        last_programmed_address_ = handleSingleProgrammingCommand();
 800091a:	f7ff ffb1 	bl	8000880 <_ZN14BootloaderMain30handleSingleProgrammingCommandEv>
        if (isProgrammingDoneAddress(last_programmed_address_)) {
 800091e:	4b0a      	ldr	r3, [pc, #40]	@ (8000948 <_ZN14BootloaderMain32handleProgrammingInProgressStateEv+0x40>)
        last_programmed_address_ = handleSingleProgrammingCommand();
 8000920:	62e0      	str	r0, [r4, #44]	@ 0x2c
        if (isProgrammingDoneAddress(last_programmed_address_)) {
 8000922:	4298      	cmp	r0, r3
 8000924:	d106      	bne.n	8000934 <_ZN14BootloaderMain32handleProgrammingInProgressStateEv+0x2c>
    bootloader_state_ = new_state;
 8000926:	2205      	movs	r2, #5
 8000928:	1d63      	adds	r3, r4, #5
 800092a:	77da      	strb	r2, [r3, #31]
        resetTimeout();
 800092c:	0020      	movs	r0, r4
 800092e:	f7ff ff61 	bl	80007f4 <_ZN14BootloaderMain12resetTimeoutEv>
}
 8000932:	bd70      	pop	{r4, r5, r6, pc}
        } else if (isProgrammingRestartAddress(last_programmed_address_)) {
 8000934:	4b05      	ldr	r3, [pc, #20]	@ (800094c <_ZN14BootloaderMain32handleProgrammingInProgressStateEv+0x44>)
 8000936:	4298      	cmp	r0, r3
 8000938:	d1f8      	bne.n	800092c <_ZN14BootloaderMain32handleProgrammingInProgressStateEv+0x24>
            resetProgrammingState();
 800093a:	0020      	movs	r0, r4
 800093c:	f7ff ff90 	bl	8000860 <_ZN14BootloaderMain21resetProgrammingStateEv>
    bootloader_state_ = new_state;
 8000940:	1d63      	adds	r3, r4, #5
 8000942:	77dd      	strb	r5, [r3, #31]
}
 8000944:	e7f2      	b.n	800092c <_ZN14BootloaderMain32handleProgrammingInProgressStateEv+0x24>
 8000946:	46c0      	nop			@ (mov r8, r8)
 8000948:	55555555 	.word	0x55555555
 800094c:	33333333 	.word	0x33333333

08000950 <_ZN14BootloaderMain19processStateMachineEv>:
void BootloaderMain::processStateMachine() {
 8000950:	b510      	push	{r4, lr}
    switch (bootloader_state_) {
 8000952:	1d42      	adds	r2, r0, #5
void BootloaderMain::processStateMachine() {
 8000954:	0003      	movs	r3, r0
    switch (bootloader_state_) {
 8000956:	7fd0      	ldrb	r0, [r2, #31]
 8000958:	2807      	cmp	r0, #7
 800095a:	d825      	bhi.n	80009a8 <_ZN14BootloaderMain19processStateMachineEv+0x58>
 800095c:	f7ff fbd4 	bl	8000108 <__gnu_thumb1_case_uqi>
 8000960:	100c0804 	.word	0x100c0804
 8000964:	201c1814 	.word	0x201c1814
            handleInitState();
 8000968:	0018      	movs	r0, r3
 800096a:	f7ff fdf3 	bl	8000554 <_ZN14BootloaderMain15handleInitStateEv>
}
 800096e:	bd10      	pop	{r4, pc}
            handleWaitingForCommandState();
 8000970:	0018      	movs	r0, r3
 8000972:	f7ff ff17 	bl	80007a4 <_ZN14BootloaderMain28handleWaitingForCommandStateEv>
            break;
 8000976:	e7fa      	b.n	800096e <_ZN14BootloaderMain19processStateMachineEv+0x1e>
            handleProgrammingReadyState();
 8000978:	0018      	movs	r0, r3
 800097a:	f7ff ff41 	bl	8000800 <_ZN14BootloaderMain27handleProgrammingReadyStateEv>
            break;
 800097e:	e7f6      	b.n	800096e <_ZN14BootloaderMain19processStateMachineEv+0x1e>
            handleWaitingForProgrammingReadyState();
 8000980:	0018      	movs	r0, r3
 8000982:	f7ff ff4f 	bl	8000824 <_ZN14BootloaderMain37handleWaitingForProgrammingReadyStateEv>
            break;
 8000986:	e7f2      	b.n	800096e <_ZN14BootloaderMain19processStateMachineEv+0x1e>
            handleProgrammingInProgressState();
 8000988:	0018      	movs	r0, r3
 800098a:	f7ff ffbd 	bl	8000908 <_ZN14BootloaderMain32handleProgrammingInProgressStateEv>
            break;
 800098e:	e7ee      	b.n	800096e <_ZN14BootloaderMain19processStateMachineEv+0x1e>
            handleProgrammingCompleteState();
 8000990:	0018      	movs	r0, r3
 8000992:	f7ff fdeb 	bl	800056c <_ZN14BootloaderMain30handleProgrammingCompleteStateEv>
            break;
 8000996:	e7ea      	b.n	800096e <_ZN14BootloaderMain19processStateMachineEv+0x1e>
            handleErrorState();
 8000998:	0018      	movs	r0, r3
 800099a:	f7ff fdf1 	bl	8000580 <_ZN14BootloaderMain16handleErrorStateEv>
            break;
 800099e:	e7e6      	b.n	800096e <_ZN14BootloaderMain19processStateMachineEv+0x1e>
            handleJumpToAppState();
 80009a0:	0018      	movs	r0, r3
 80009a2:	f7ff fe91 	bl	80006c8 <_ZN14BootloaderMain20handleJumpToAppStateEv>
            break;
 80009a6:	e7e2      	b.n	800096e <_ZN14BootloaderMain19processStateMachineEv+0x1e>
    bootloader_state_ = new_state;
 80009a8:	2306      	movs	r3, #6
 80009aa:	77d3      	strb	r3, [r2, #31]
}
 80009ac:	e7df      	b.n	800096e <_ZN14BootloaderMain19processStateMachineEv+0x1e>

080009ae <_ZN14BootloaderMain16updateLedPatternEv>:

void BootloaderMain::updateLedPattern() {
 80009ae:	b570      	push	{r4, r5, r6, lr}
 80009b0:	0004      	movs	r4, r0
 80009b2:	f001 f9b5 	bl	8001d20 <HAL_GetTick>
    uint32_t current_time = getCurrentTime();
    
    if (current_time - led_last_update_time_ < LED_UPDATE_PERIOD_MS_) {
 80009b6:	6c62      	ldr	r2, [r4, #68]	@ 0x44
 80009b8:	0003      	movs	r3, r0
 80009ba:	1a82      	subs	r2, r0, r2
 80009bc:	2af9      	cmp	r2, #249	@ 0xf9
 80009be:	d91d      	bls.n	80009fc <_ZN14BootloaderMain16updateLedPatternEv+0x4e>
        return;
    }
    led_last_update_time_ = current_time;
 80009c0:	0025      	movs	r5, r4
 80009c2:	6460      	str	r0, [r4, #68]	@ 0x44
    
    switch (bootloader_state_) {
 80009c4:	1d62      	adds	r2, r4, #5
 80009c6:	7fd0      	ldrb	r0, [r2, #31]
 80009c8:	3548      	adds	r5, #72	@ 0x48
 80009ca:	2807      	cmp	r0, #7
 80009cc:	d811      	bhi.n	80009f2 <_ZN14BootloaderMain16updateLedPatternEv+0x44>
 80009ce:	f7ff fb9b 	bl	8000108 <__gnu_thumb1_case_uqi>
 80009d2:	0404      	.short	0x0404
 80009d4:	0e0e0e0e 	.word	0x0e0e0e0e
 80009d8:	1d16      	.short	0x1d16
        case BootloaderState::INIT:
        case BootloaderState::WAITING_FOR_COMMAND:
            // Slow blink for normal operation
            led_state_ = (current_time % LED_BLINK_PERIOD_MS_) < (LED_BLINK_PERIOD_MS_ / 2);
 80009da:	21fa      	movs	r1, #250	@ 0xfa
 80009dc:	0018      	movs	r0, r3
 80009de:	0049      	lsls	r1, r1, #1
 80009e0:	f7ff fc22 	bl	8000228 <__aeabi_uidivmod>
 80009e4:	2300      	movs	r3, #0
 80009e6:	22f9      	movs	r2, #249	@ 0xf9
            led_state_ = true;
            break;
            
        case BootloaderState::ERROR_STATE:
            // Fast blink for error
            led_state_ = (current_time % (LED_BLINK_PERIOD_MS_ / 4)) < (LED_BLINK_PERIOD_MS_ / 8);
 80009e8:	428a      	cmp	r2, r1
 80009ea:	415b      	adcs	r3, r3
 80009ec:	e000      	b.n	80009f0 <_ZN14BootloaderMain16updateLedPatternEv+0x42>
            led_state_ = true;
 80009ee:	2301      	movs	r3, #1
            break;
            
        case BootloaderState::JUMP_TO_APP:
            // OFF before jump
            led_state_ = false;
 80009f0:	702b      	strb	r3, [r5, #0]
    GpioInterface::digitalWrite(green_led_gpio_, on ? GpioPinState::PIN_SET : GpioPinState::PIN_RESET);
 80009f2:	0020      	movs	r0, r4
 80009f4:	7829      	ldrb	r1, [r5, #0]
 80009f6:	304a      	adds	r0, #74	@ 0x4a
 80009f8:	f001 f8ae 	bl	8001b58 <_ZN13GpioInterface12digitalWriteERK7GpioPin12GpioPinState>
            break;
    }
    
    setLedState(led_state_);
}
 80009fc:	bd70      	pop	{r4, r5, r6, pc}
            led_state_ = (current_time % (LED_BLINK_PERIOD_MS_ / 4)) < (LED_BLINK_PERIOD_MS_ / 8);
 80009fe:	0018      	movs	r0, r3
 8000a00:	217d      	movs	r1, #125	@ 0x7d
 8000a02:	f7ff fc11 	bl	8000228 <__aeabi_uidivmod>
 8000a06:	2300      	movs	r3, #0
 8000a08:	223d      	movs	r2, #61	@ 0x3d
 8000a0a:	e7ed      	b.n	80009e8 <_ZN14BootloaderMain16updateLedPatternEv+0x3a>
            led_state_ = false;
 8000a0c:	2300      	movs	r3, #0
 8000a0e:	e7ef      	b.n	80009f0 <_ZN14BootloaderMain16updateLedPatternEv+0x42>

08000a10 <_ZN14BootloaderMain3runEv>:
int BootloaderMain::run() {
 8000a10:	b510      	push	{r4, lr}
 8000a12:	0004      	movs	r4, r0
        processStateMachine();
 8000a14:	0020      	movs	r0, r4
 8000a16:	f7ff ff9b 	bl	8000950 <_ZN14BootloaderMain19processStateMachineEv>
        handleTimeouts();
 8000a1a:	0020      	movs	r0, r4
 8000a1c:	f7ff fe70 	bl	8000700 <_ZN14BootloaderMain14handleTimeoutsEv>
        processTxQueue();
 8000a20:	0020      	movs	r0, r4
 8000a22:	f7ff fd35 	bl	8000490 <_ZN14BootloaderMain14processTxQueueEv>
        processRxQueuedMessage();
 8000a26:	0020      	movs	r0, r4
 8000a28:	f7ff fd6c 	bl	8000504 <_ZN14BootloaderMain22processRxQueuedMessageEv>
        updateLedPattern();
 8000a2c:	0020      	movs	r0, r4
 8000a2e:	f7ff ffbe 	bl	80009ae <_ZN14BootloaderMain16updateLedPatternEv>
    while (true) {
 8000a32:	e7ef      	b.n	8000a14 <_ZN14BootloaderMain3runEv+0x4>

08000a34 <_Z14bootloaderMainP17CAN_HandleTypeDef>:

int bootloaderMain(CAN_HandleTypeDef* hcan) {
 8000a34:	b500      	push	{lr}
 8000a36:	b099      	sub	sp, #100	@ 0x64
 8000a38:	0001      	movs	r1, r0
	BootloaderMain bootloader(hcan);
 8000a3a:	a801      	add	r0, sp, #4
 8000a3c:	f7ff fc42 	bl	80002c4 <_ZN14BootloaderMainC1EP17CAN_HandleTypeDef>
	return bootloader.run();
 8000a40:	a801      	add	r0, sp, #4
 8000a42:	f7ff ffe5 	bl	8000a10 <_ZN14BootloaderMain3runEv>

08000a46 <_Z18SystemClock_Configv>:
/**
  * @brief System Clock Configuration
  * @retval None
  */
void SystemClock_Config(void)
{
 8000a46:	b530      	push	{r4, r5, lr}
 8000a48:	b093      	sub	sp, #76	@ 0x4c
  RCC_OscInitTypeDef RCC_OscInitStruct = {0};
 8000a4a:	221c      	movs	r2, #28
 8000a4c:	2100      	movs	r1, #0
 8000a4e:	a807      	add	r0, sp, #28
 8000a50:	f003 fe3e 	bl	80046d0 <memset>
  RCC_ClkInitTypeDef RCC_ClkInitStruct = {0};
 8000a54:	2210      	movs	r2, #16
 8000a56:	2100      	movs	r1, #0
 8000a58:	a801      	add	r0, sp, #4
 8000a5a:	f003 fe39 	bl	80046d0 <memset>

  /** Initializes the RCC Oscillators according to the specified parameters
  * in the RCC_OscInitTypeDef structure.
  */
  RCC_OscInitStruct.OscillatorType = RCC_OSCILLATORTYPE_HSE;
  RCC_OscInitStruct.HSEState = RCC_HSE_BYPASS;
 8000a5e:	2305      	movs	r3, #5
 8000a60:	9306      	str	r3, [sp, #24]
  RCC_OscInitStruct.PLL.PLLState = RCC_PLL_ON;
  RCC_OscInitStruct.PLL.PLLSource = RCC_PLLSOURCE_HSE;
 8000a62:	2380      	movs	r3, #128	@ 0x80
 8000a64:	025b      	lsls	r3, r3, #9
 8000a66:	930f      	str	r3, [sp, #60]	@ 0x3c
  RCC_OscInitStruct.PLL.PLLMUL = RCC_PLL_MUL8;
 8000a68:	23c0      	movs	r3, #192	@ 0xc0
 8000a6a:	035b      	lsls	r3, r3, #13
  RCC_OscInitStruct.OscillatorType = RCC_OSCILLATORTYPE_HSE;
 8000a6c:	2401      	movs	r4, #1
  RCC_OscInitStruct.PLL.PLLState = RCC_PLL_ON;
 8000a6e:	2502      	movs	r5, #2
  RCC_OscInitStruct.PLL.PLLMUL = RCC_PLL_MUL8;
 8000a70:	9310      	str	r3, [sp, #64]	@ 0x40
  RCC_OscInitStruct.PLL.PREDIV = RCC_PREDIV_DIV5;
 8000a72:	2304      	movs	r3, #4
  if (HAL_RCC_OscConfig(&RCC_OscInitStruct) != HAL_OK)
 8000a74:	a805      	add	r0, sp, #20
  RCC_OscInitStruct.OscillatorType = RCC_OSCILLATORTYPE_HSE;
 8000a76:	9405      	str	r4, [sp, #20]
  RCC_OscInitStruct.PLL.PLLState = RCC_PLL_ON;
 8000a78:	950e      	str	r5, [sp, #56]	@ 0x38
  RCC_OscInitStruct.PLL.PREDIV = RCC_PREDIV_DIV5;
 8000a7a:	9311      	str	r3, [sp, #68]	@ 0x44
  if (HAL_RCC_OscConfig(&RCC_OscInitStruct) != HAL_OK)
 8000a7c:	f002 feac 	bl	80037d8 <HAL_RCC_OscConfig>
 8000a80:	2800      	cmp	r0, #0
 8000a82:	d001      	beq.n	8000a88 <_Z18SystemClock_Configv+0x42>
  __ASM volatile ("cpsid i" : : : "memory");
 8000a84:	b672      	cpsid	i
void Error_Handler(void)
{
  /* USER CODE BEGIN Error_Handler_Debug */
  /* User can add his own implementation to report the HAL error return state */
  __disable_irq();
  while (1)
 8000a86:	e7fe      	b.n	8000a86 <_Z18SystemClock_Configv+0x40>
  RCC_ClkInitStruct.ClockType = RCC_CLOCKTYPE_HCLK|RCC_CLOCKTYPE_SYSCLK
 8000a88:	2307      	movs	r3, #7
  RCC_ClkInitStruct.AHBCLKDivider = RCC_SYSCLK_DIV1;
 8000a8a:	9003      	str	r0, [sp, #12]
  RCC_ClkInitStruct.APB1CLKDivider = RCC_HCLK_DIV1;
 8000a8c:	9004      	str	r0, [sp, #16]
  if (HAL_RCC_ClockConfig(&RCC_ClkInitStruct, FLASH_LATENCY_1) != HAL_OK)
 8000a8e:	0021      	movs	r1, r4
 8000a90:	a801      	add	r0, sp, #4
  RCC_ClkInitStruct.ClockType = RCC_CLOCKTYPE_HCLK|RCC_CLOCKTYPE_SYSCLK
 8000a92:	9301      	str	r3, [sp, #4]
  RCC_ClkInitStruct.SYSCLKSource = RCC_SYSCLKSOURCE_PLLCLK;
 8000a94:	9502      	str	r5, [sp, #8]
  if (HAL_RCC_ClockConfig(&RCC_ClkInitStruct, FLASH_LATENCY_1) != HAL_OK)
 8000a96:	f003 fa25 	bl	8003ee4 <HAL_RCC_ClockConfig>
 8000a9a:	2800      	cmp	r0, #0
 8000a9c:	d001      	beq.n	8000aa2 <_Z18SystemClock_Configv+0x5c>
 8000a9e:	b672      	cpsid	i
  while (1)
 8000aa0:	e7fe      	b.n	8000aa0 <_Z18SystemClock_Configv+0x5a>
}
 8000aa2:	b013      	add	sp, #76	@ 0x4c
 8000aa4:	bd30      	pop	{r4, r5, pc}
	...

08000aa8 <main>:
{
 8000aa8:	b5f0      	push	{r4, r5, r6, r7, lr}
  __HAL_RCC_GPIOF_CLK_ENABLE();
 8000aaa:	2780      	movs	r7, #128	@ 0x80
{
 8000aac:	b089      	sub	sp, #36	@ 0x24
  HAL_Init();
 8000aae:	f001 f8dd 	bl	8001c6c <HAL_Init>
  SystemClock_Config();
 8000ab2:	f7ff ffc8 	bl	8000a46 <_Z18SystemClock_Configv>
  GPIO_InitTypeDef GPIO_InitStruct = {0};
 8000ab6:	2214      	movs	r2, #20
 8000ab8:	2100      	movs	r1, #0
 8000aba:	a803      	add	r0, sp, #12
 8000abc:	f003 fe08 	bl	80046d0 <memset>
  __HAL_RCC_GPIOB_CLK_ENABLE();
 8000ac0:	2180      	movs	r1, #128	@ 0x80
  __HAL_RCC_GPIOF_CLK_ENABLE();
 8000ac2:	4b3c      	ldr	r3, [pc, #240]	@ (8000bb4 <main+0x10c>)
 8000ac4:	03ff      	lsls	r7, r7, #15
 8000ac6:	695a      	ldr	r2, [r3, #20]
  __HAL_RCC_GPIOB_CLK_ENABLE();
 8000ac8:	02c9      	lsls	r1, r1, #11
  __HAL_RCC_GPIOF_CLK_ENABLE();
 8000aca:	433a      	orrs	r2, r7
 8000acc:	615a      	str	r2, [r3, #20]
 8000ace:	695a      	ldr	r2, [r3, #20]
  HAL_GPIO_WritePin(GREEN_LED_GPIO_Port, GREEN_LED_Pin, GPIO_PIN_RESET);
 8000ad0:	2480      	movs	r4, #128	@ 0x80
  __HAL_RCC_GPIOF_CLK_ENABLE();
 8000ad2:	403a      	ands	r2, r7
 8000ad4:	9200      	str	r2, [sp, #0]
 8000ad6:	9a00      	ldr	r2, [sp, #0]
  __HAL_RCC_GPIOB_CLK_ENABLE();
 8000ad8:	695a      	ldr	r2, [r3, #20]
  HAL_GPIO_WritePin(GREEN_LED_GPIO_Port, GREEN_LED_Pin, GPIO_PIN_RESET);
 8000ada:	0124      	lsls	r4, r4, #4
  __HAL_RCC_GPIOB_CLK_ENABLE();
 8000adc:	430a      	orrs	r2, r1
 8000ade:	615a      	str	r2, [r3, #20]
 8000ae0:	695a      	ldr	r2, [r3, #20]
  HAL_GPIO_WritePin(GREEN_LED_GPIO_Port, GREEN_LED_Pin, GPIO_PIN_RESET);
 8000ae2:	4835      	ldr	r0, [pc, #212]	@ (8000bb8 <main+0x110>)
  __HAL_RCC_GPIOB_CLK_ENABLE();
 8000ae4:	400a      	ands	r2, r1
  __HAL_RCC_GPIOA_CLK_ENABLE();
 8000ae6:	2180      	movs	r1, #128	@ 0x80
  __HAL_RCC_GPIOB_CLK_ENABLE();
 8000ae8:	9201      	str	r2, [sp, #4]
 8000aea:	9a01      	ldr	r2, [sp, #4]
  __HAL_RCC_GPIOA_CLK_ENABLE();
 8000aec:	695a      	ldr	r2, [r3, #20]
 8000aee:	0289      	lsls	r1, r1, #10
 8000af0:	430a      	orrs	r2, r1
 8000af2:	615a      	str	r2, [r3, #20]
 8000af4:	695b      	ldr	r3, [r3, #20]
  HAL_GPIO_WritePin(GREEN_LED_GPIO_Port, GREEN_LED_Pin, GPIO_PIN_RESET);
 8000af6:	2200      	movs	r2, #0
  __HAL_RCC_GPIOA_CLK_ENABLE();
 8000af8:	400b      	ands	r3, r1
 8000afa:	9302      	str	r3, [sp, #8]
  HAL_GPIO_WritePin(GREEN_LED_GPIO_Port, GREEN_LED_Pin, GPIO_PIN_RESET);
 8000afc:	0021      	movs	r1, r4
  __HAL_RCC_GPIOA_CLK_ENABLE();
 8000afe:	9b02      	ldr	r3, [sp, #8]
  HAL_GPIO_WritePin(GREEN_LED_GPIO_Port, GREEN_LED_Pin, GPIO_PIN_RESET);
 8000b00:	f002 fe4c 	bl	800379c <HAL_GPIO_WritePin>
  HAL_GPIO_WritePin(BYPASS_EN_GPIO_Port, BYPASS_EN_Pin, GPIO_PIN_RESET);
 8000b04:	2180      	movs	r1, #128	@ 0x80
 8000b06:	2090      	movs	r0, #144	@ 0x90
  GPIO_InitStruct.Pull = GPIO_NOPULL;
 8000b08:	2500      	movs	r5, #0
  GPIO_InitStruct.Mode = GPIO_MODE_OUTPUT_PP;
 8000b0a:	2601      	movs	r6, #1
  HAL_GPIO_WritePin(BYPASS_EN_GPIO_Port, BYPASS_EN_Pin, GPIO_PIN_RESET);
 8000b0c:	2200      	movs	r2, #0
 8000b0e:	0089      	lsls	r1, r1, #2
 8000b10:	05c0      	lsls	r0, r0, #23
 8000b12:	f002 fe43 	bl	800379c <HAL_GPIO_WritePin>
  HAL_GPIO_Init(GREEN_LED_GPIO_Port, &GPIO_InitStruct);
 8000b16:	4828      	ldr	r0, [pc, #160]	@ (8000bb8 <main+0x110>)
 8000b18:	a903      	add	r1, sp, #12
  GPIO_InitStruct.Pin = GREEN_LED_Pin;
 8000b1a:	9403      	str	r4, [sp, #12]
  GPIO_InitStruct.Mode = GPIO_MODE_OUTPUT_PP;
 8000b1c:	9604      	str	r6, [sp, #16]
  GPIO_InitStruct.Pull = GPIO_NOPULL;
 8000b1e:	9505      	str	r5, [sp, #20]
  GPIO_InitStruct.Speed = GPIO_SPEED_FREQ_LOW;
 8000b20:	9506      	str	r5, [sp, #24]
  HAL_GPIO_Init(GREEN_LED_GPIO_Port, &GPIO_InitStruct);
 8000b22:	f002 fbeb 	bl	80032fc <HAL_GPIO_Init>
  GPIO_InitStruct.Pin = BYPASS_EN_Pin;
 8000b26:	2380      	movs	r3, #128	@ 0x80
  HAL_GPIO_Init(BYPASS_EN_GPIO_Port, &GPIO_InitStruct);
 8000b28:	2090      	movs	r0, #144	@ 0x90
  GPIO_InitStruct.Pin = BYPASS_EN_Pin;
 8000b2a:	009b      	lsls	r3, r3, #2
  HAL_GPIO_Init(BYPASS_EN_GPIO_Port, &GPIO_InitStruct);
 8000b2c:	a903      	add	r1, sp, #12
 8000b2e:	05c0      	lsls	r0, r0, #23
  GPIO_InitStruct.Pin = BYPASS_EN_Pin;
 8000b30:	9303      	str	r3, [sp, #12]
  GPIO_InitStruct.Mode = GPIO_MODE_OUTPUT_PP;
 8000b32:	9604      	str	r6, [sp, #16]
  GPIO_InitStruct.Pull = GPIO_NOPULL;
 8000b34:	9505      	str	r5, [sp, #20]
  GPIO_InitStruct.Speed = GPIO_SPEED_FREQ_LOW;
 8000b36:	9506      	str	r5, [sp, #24]
  HAL_GPIO_Init(BYPASS_EN_GPIO_Port, &GPIO_InitStruct);
 8000b38:	f002 fbe0 	bl	80032fc <HAL_GPIO_Init>
  hcan.Instance = CAN;
 8000b3c:	4c1f      	ldr	r4, [pc, #124]	@ (8000bbc <main+0x114>)
 8000b3e:	4b20      	ldr	r3, [pc, #128]	@ (8000bc0 <main+0x118>)
  if (HAL_CAN_Init(&hcan) != HAL_OK)
 8000b40:	0020      	movs	r0, r4
  hcan.Instance = CAN;
 8000b42:	6023      	str	r3, [r4, #0]
  hcan.Init.Prescaler = 8;
 8000b44:	2308      	movs	r3, #8
 8000b46:	6063      	str	r3, [r4, #4]
  hcan.Init.SyncJumpWidth = CAN_SJW_4TQ;
 8000b48:	23c0      	movs	r3, #192	@ 0xc0
 8000b4a:	049b      	lsls	r3, r3, #18
 8000b4c:	60e3      	str	r3, [r4, #12]
  hcan.Init.TimeSeg1 = CAN_BS1_14TQ;
 8000b4e:	23d0      	movs	r3, #208	@ 0xd0
 8000b50:	031b      	lsls	r3, r3, #12
 8000b52:	6123      	str	r3, [r4, #16]
  hcan.Init.TimeTriggeredMode = DISABLE;
 8000b54:	4b1b      	ldr	r3, [pc, #108]	@ (8000bc4 <main+0x11c>)
  hcan.Init.Mode = CAN_MODE_NORMAL;
 8000b56:	60a5      	str	r5, [r4, #8]
  hcan.Init.TimeTriggeredMode = DISABLE;
 8000b58:	61a3      	str	r3, [r4, #24]
  hcan.Init.TimeSeg2 = CAN_BS2_5TQ;
 8000b5a:	6167      	str	r7, [r4, #20]
  hcan.Init.ReceiveFifoLocked = DISABLE;
 8000b5c:	83a5      	strh	r5, [r4, #28]
  if (HAL_CAN_Init(&hcan) != HAL_OK)
 8000b5e:	f001 f90d 	bl	8001d7c <HAL_CAN_Init>
 8000b62:	0003      	movs	r3, r0
 8000b64:	42a8      	cmp	r0, r5
 8000b66:	d001      	beq.n	8000b6c <main+0xc4>
 8000b68:	b672      	cpsid	i
  while (1)
 8000b6a:	e7fe      	b.n	8000b6a <main+0xc2>
  hspi1.Instance = SPI1;
 8000b6c:	4816      	ldr	r0, [pc, #88]	@ (8000bc8 <main+0x120>)
 8000b6e:	4a17      	ldr	r2, [pc, #92]	@ (8000bcc <main+0x124>)
  hspi1.Init.Direction = SPI_DIRECTION_2LINES;
 8000b70:	6083      	str	r3, [r0, #8]
  hspi1.Instance = SPI1;
 8000b72:	6002      	str	r2, [r0, #0]
  hspi1.Init.Mode = SPI_MODE_MASTER;
 8000b74:	2282      	movs	r2, #130	@ 0x82
 8000b76:	0052      	lsls	r2, r2, #1
 8000b78:	6042      	str	r2, [r0, #4]
  hspi1.Init.DataSize = SPI_DATASIZE_8BIT;
 8000b7a:	22e0      	movs	r2, #224	@ 0xe0
 8000b7c:	00d2      	lsls	r2, r2, #3
 8000b7e:	60c2      	str	r2, [r0, #12]
  hspi1.Init.NSS = SPI_NSS_SOFT;
 8000b80:	2280      	movs	r2, #128	@ 0x80
 8000b82:	0092      	lsls	r2, r2, #2
 8000b84:	6182      	str	r2, [r0, #24]
  hspi1.Init.BaudRatePrescaler = SPI_BAUDRATEPRESCALER_16;
 8000b86:	3ae9      	subs	r2, #233	@ 0xe9
 8000b88:	3aff      	subs	r2, #255	@ 0xff
 8000b8a:	61c2      	str	r2, [r0, #28]
  hspi1.Init.CRCPolynomial = 7;
 8000b8c:	3a11      	subs	r2, #17
  hspi1.Init.CLKPolarity = SPI_POLARITY_LOW;
 8000b8e:	6103      	str	r3, [r0, #16]
  hspi1.Init.CLKPhase = SPI_PHASE_2EDGE;
 8000b90:	6146      	str	r6, [r0, #20]
  hspi1.Init.FirstBit = SPI_FIRSTBIT_MSB;
 8000b92:	6203      	str	r3, [r0, #32]
  hspi1.Init.TIMode = SPI_TIMODE_DISABLE;
 8000b94:	6243      	str	r3, [r0, #36]	@ 0x24
  hspi1.Init.CRCCalculation = SPI_CRCCALCULATION_DISABLE;
 8000b96:	6283      	str	r3, [r0, #40]	@ 0x28
  hspi1.Init.CRCPolynomial = 7;
 8000b98:	62c2      	str	r2, [r0, #44]	@ 0x2c
  hspi1.Init.CRCLength = SPI_CRC_LENGTH_DATASIZE;
 8000b9a:	6303      	str	r3, [r0, #48]	@ 0x30
  hspi1.Init.NSSPMode = SPI_NSS_PULSE_DISABLE;
 8000b9c:	6343      	str	r3, [r0, #52]	@ 0x34
  if (HAL_SPI_Init(&hspi1) != HAL_OK)
 8000b9e:	f003 faef 	bl	8004180 <HAL_SPI_Init>
 8000ba2:	2800      	cmp	r0, #0
 8000ba4:	d001      	beq.n	8000baa <main+0x102>
 8000ba6:	b672      	cpsid	i
  while (1)
 8000ba8:	e7fe      	b.n	8000ba8 <main+0x100>
  bootloaderMain(&hcan);
 8000baa:	0020      	movs	r0, r4
 8000bac:	f7ff ff42 	bl	8000a34 <_Z14bootloaderMainP17CAN_HandleTypeDef>
  while (1)
 8000bb0:	e7fe      	b.n	8000bb0 <main+0x108>
 8000bb2:	46c0      	nop			@ (mov r8, r8)
 8000bb4:	40021000 	.word	0x40021000
 8000bb8:	48000400 	.word	0x48000400
 8000bbc:	200000ec 	.word	0x200000ec
 8000bc0:	40006400 	.word	0x40006400
 8000bc4:	01000100 	.word	0x01000100
 8000bc8:	20000088 	.word	0x20000088
 8000bcc:	40013000 	.word	0x40013000

08000bd0 <HAL_MspInit>:
/* USER CODE END 0 */
/**
  * Initializes the Global MSP.
  */
void HAL_MspInit(void)
{
 8000bd0:	b580      	push	{r7, lr}
 8000bd2:	b082      	sub	sp, #8
 8000bd4:	af00      	add	r7, sp, #0

  /* USER CODE BEGIN MspInit 0 */

  /* USER CODE END MspInit 0 */

  __HAL_RCC_SYSCFG_CLK_ENABLE();
 8000bd6:	4b0f      	ldr	r3, [pc, #60]	@ (8000c14 <HAL_MspInit+0x44>)
 8000bd8:	699a      	ldr	r2, [r3, #24]
 8000bda:	4b0e      	ldr	r3, [pc, #56]	@ (8000c14 <HAL_MspInit+0x44>)
 8000bdc:	2101      	movs	r1, #1
 8000bde:	430a      	orrs	r2, r1
 8000be0:	619a      	str	r2, [r3, #24]
 8000be2:	4b0c      	ldr	r3, [pc, #48]	@ (8000c14 <HAL_MspInit+0x44>)
 8000be4:	699b      	ldr	r3, [r3, #24]
 8000be6:	2201      	movs	r2, #1
 8000be8:	4013      	ands	r3, r2
 8000bea:	607b      	str	r3, [r7, #4]
 8000bec:	687b      	ldr	r3, [r7, #4]
  __HAL_RCC_PWR_CLK_ENABLE();
 8000bee:	4b09      	ldr	r3, [pc, #36]	@ (8000c14 <HAL_MspInit+0x44>)
 8000bf0:	69da      	ldr	r2, [r3, #28]
 8000bf2:	4b08      	ldr	r3, [pc, #32]	@ (8000c14 <HAL_MspInit+0x44>)
 8000bf4:	2180      	movs	r1, #128	@ 0x80
 8000bf6:	0549      	lsls	r1, r1, #21
 8000bf8:	430a      	orrs	r2, r1
 8000bfa:	61da      	str	r2, [r3, #28]
 8000bfc:	4b05      	ldr	r3, [pc, #20]	@ (8000c14 <HAL_MspInit+0x44>)
 8000bfe:	69da      	ldr	r2, [r3, #28]
 8000c00:	2380      	movs	r3, #128	@ 0x80
 8000c02:	055b      	lsls	r3, r3, #21
 8000c04:	4013      	ands	r3, r2
 8000c06:	603b      	str	r3, [r7, #0]
 8000c08:	683b      	ldr	r3, [r7, #0]
  /* System interrupt init*/

  /* USER CODE BEGIN MspInit 1 */

  /* USER CODE END MspInit 1 */
}
 8000c0a:	46c0      	nop			@ (mov r8, r8)
 8000c0c:	46bd      	mov	sp, r7
 8000c0e:	b002      	add	sp, #8
 8000c10:	bd80      	pop	{r7, pc}
 8000c12:	46c0      	nop			@ (mov r8, r8)
 8000c14:	40021000 	.word	0x40021000

08000c18 <HAL_CAN_MspInit>:
* This function configures the hardware resources used in this example
* @param hcan: CAN handle pointer
* @retval None
*/
void HAL_CAN_MspInit(CAN_HandleTypeDef* hcan)
{
 8000c18:	b590      	push	{r4, r7, lr}
 8000c1a:	b08b      	sub	sp, #44	@ 0x2c
 8000c1c:	af00      	add	r7, sp, #0
 8000c1e:	6078      	str	r0, [r7, #4]
  GPIO_InitTypeDef GPIO_InitStruct = {0};
 8000c20:	2414      	movs	r4, #20
 8000c22:	193b      	adds	r3, r7, r4
 8000c24:	0018      	movs	r0, r3
 8000c26:	2314      	movs	r3, #20
 8000c28:	001a      	movs	r2, r3
 8000c2a:	2100      	movs	r1, #0
 8000c2c:	f003 fd50 	bl	80046d0 <memset>
  if(hcan->Instance==CAN)
 8000c30:	687b      	ldr	r3, [r7, #4]
 8000c32:	681b      	ldr	r3, [r3, #0]
 8000c34:	4a21      	ldr	r2, [pc, #132]	@ (8000cbc <HAL_CAN_MspInit+0xa4>)
 8000c36:	4293      	cmp	r3, r2
 8000c38:	d13b      	bne.n	8000cb2 <HAL_CAN_MspInit+0x9a>
  {
  /* USER CODE BEGIN CAN_MspInit 0 */

  /* USER CODE END CAN_MspInit 0 */
    /* Peripheral clock enable */
    __HAL_RCC_CAN1_CLK_ENABLE();
 8000c3a:	4b21      	ldr	r3, [pc, #132]	@ (8000cc0 <HAL_CAN_MspInit+0xa8>)
 8000c3c:	69da      	ldr	r2, [r3, #28]
 8000c3e:	4b20      	ldr	r3, [pc, #128]	@ (8000cc0 <HAL_CAN_MspInit+0xa8>)
 8000c40:	2180      	movs	r1, #128	@ 0x80
 8000c42:	0489      	lsls	r1, r1, #18
 8000c44:	430a      	orrs	r2, r1
 8000c46:	61da      	str	r2, [r3, #28]
 8000c48:	4b1d      	ldr	r3, [pc, #116]	@ (8000cc0 <HAL_CAN_MspInit+0xa8>)
 8000c4a:	69da      	ldr	r2, [r3, #28]
 8000c4c:	2380      	movs	r3, #128	@ 0x80
 8000c4e:	049b      	lsls	r3, r3, #18
 8000c50:	4013      	ands	r3, r2
 8000c52:	613b      	str	r3, [r7, #16]
 8000c54:	693b      	ldr	r3, [r7, #16]

    __HAL_RCC_GPIOA_CLK_ENABLE();
 8000c56:	4b1a      	ldr	r3, [pc, #104]	@ (8000cc0 <HAL_CAN_MspInit+0xa8>)
 8000c58:	695a      	ldr	r2, [r3, #20]
 8000c5a:	4b19      	ldr	r3, [pc, #100]	@ (8000cc0 <HAL_CAN_MspInit+0xa8>)
 8000c5c:	2180      	movs	r1, #128	@ 0x80
 8000c5e:	0289      	lsls	r1, r1, #10
 8000c60:	430a      	orrs	r2, r1
 8000c62:	615a      	str	r2, [r3, #20]
 8000c64:	4b16      	ldr	r3, [pc, #88]	@ (8000cc0 <HAL_CAN_MspInit+0xa8>)
 8000c66:	695a      	ldr	r2, [r3, #20]
 8000c68:	2380      	movs	r3, #128	@ 0x80
 8000c6a:	029b      	lsls	r3, r3, #10
 8000c6c:	4013      	ands	r3, r2
 8000c6e:	60fb      	str	r3, [r7, #12]
 8000c70:	68fb      	ldr	r3, [r7, #12]
    /**CAN GPIO Configuration
    PA11     ------> CAN_RX
    PA12     ------> CAN_TX
    */
    GPIO_InitStruct.Pin = GPIO_PIN_11|GPIO_PIN_12;
 8000c72:	193b      	adds	r3, r7, r4
 8000c74:	22c0      	movs	r2, #192	@ 0xc0
 8000c76:	0152      	lsls	r2, r2, #5
 8000c78:	601a      	str	r2, [r3, #0]
    GPIO_InitStruct.Mode = GPIO_MODE_AF_PP;
 8000c7a:	0021      	movs	r1, r4
 8000c7c:	187b      	adds	r3, r7, r1
 8000c7e:	2202      	movs	r2, #2
 8000c80:	605a      	str	r2, [r3, #4]
    GPIO_InitStruct.Pull = GPIO_NOPULL;
 8000c82:	187b      	adds	r3, r7, r1
 8000c84:	2200      	movs	r2, #0
 8000c86:	609a      	str	r2, [r3, #8]
    GPIO_InitStruct.Speed = GPIO_SPEED_FREQ_HIGH;
 8000c88:	187b      	adds	r3, r7, r1
 8000c8a:	2203      	movs	r2, #3
 8000c8c:	60da      	str	r2, [r3, #12]
    GPIO_InitStruct.Alternate = GPIO_AF4_CAN;
 8000c8e:	187b      	adds	r3, r7, r1
 8000c90:	2204      	movs	r2, #4
 8000c92:	611a      	str	r2, [r3, #16]
    HAL_GPIO_Init(GPIOA, &GPIO_InitStruct);
 8000c94:	187a      	adds	r2, r7, r1
 8000c96:	2390      	movs	r3, #144	@ 0x90
 8000c98:	05db      	lsls	r3, r3, #23
 8000c9a:	0011      	movs	r1, r2
 8000c9c:	0018      	movs	r0, r3
 8000c9e:	f002 fb2d 	bl	80032fc <HAL_GPIO_Init>

    /* CAN interrupt Init */
    HAL_NVIC_SetPriority(CEC_CAN_IRQn, 0, 0);
 8000ca2:	2200      	movs	r2, #0
 8000ca4:	2100      	movs	r1, #0
 8000ca6:	201e      	movs	r0, #30
 8000ca8:	f002 f89e 	bl	8002de8 <HAL_NVIC_SetPriority>
    HAL_NVIC_EnableIRQ(CEC_CAN_IRQn);
 8000cac:	201e      	movs	r0, #30
 8000cae:	f002 f8b0 	bl	8002e12 <HAL_NVIC_EnableIRQ>

  /* USER CODE END CAN_MspInit 1 */

  }

}
 8000cb2:	46c0      	nop			@ (mov r8, r8)
 8000cb4:	46bd      	mov	sp, r7
 8000cb6:	b00b      	add	sp, #44	@ 0x2c
 8000cb8:	bd90      	pop	{r4, r7, pc}
 8000cba:	46c0      	nop			@ (mov r8, r8)
 8000cbc:	40006400 	.word	0x40006400
 8000cc0:	40021000 	.word	0x40021000

08000cc4 <HAL_CAN_MspDeInit>:
* This function freeze the hardware resources used in this example
* @param hcan: CAN handle pointer
* @retval None
*/
void HAL_CAN_MspDeInit(CAN_HandleTypeDef* hcan)
{
 8000cc4:	b580      	push	{r7, lr}
 8000cc6:	b082      	sub	sp, #8
 8000cc8:	af00      	add	r7, sp, #0
 8000cca:	6078      	str	r0, [r7, #4]
  if(hcan->Instance==CAN)
 8000ccc:	687b      	ldr	r3, [r7, #4]
 8000cce:	681b      	ldr	r3, [r3, #0]
 8000cd0:	4a0b      	ldr	r2, [pc, #44]	@ (8000d00 <HAL_CAN_MspDeInit+0x3c>)
 8000cd2:	4293      	cmp	r3, r2
 8000cd4:	d110      	bne.n	8000cf8 <HAL_CAN_MspDeInit+0x34>
  {
  /* USER CODE BEGIN CAN_MspDeInit 0 */

  /* USER CODE END CAN_MspDeInit 0 */
    /* Peripheral clock disable */
    __HAL_RCC_CAN1_CLK_DISABLE();
 8000cd6:	4b0b      	ldr	r3, [pc, #44]	@ (8000d04 <HAL_CAN_MspDeInit+0x40>)
 8000cd8:	69da      	ldr	r2, [r3, #28]
 8000cda:	4b0a      	ldr	r3, [pc, #40]	@ (8000d04 <HAL_CAN_MspDeInit+0x40>)
 8000cdc:	490a      	ldr	r1, [pc, #40]	@ (8000d08 <HAL_CAN_MspDeInit+0x44>)
 8000cde:	400a      	ands	r2, r1
 8000ce0:	61da      	str	r2, [r3, #28]

    /**CAN GPIO Configuration
    PA11     ------> CAN_RX
    PA12     ------> CAN_TX
    */
    HAL_GPIO_DeInit(GPIOA, GPIO_PIN_11|GPIO_PIN_12);
 8000ce2:	23c0      	movs	r3, #192	@ 0xc0
 8000ce4:	015a      	lsls	r2, r3, #5
 8000ce6:	2390      	movs	r3, #144	@ 0x90
 8000ce8:	05db      	lsls	r3, r3, #23
 8000cea:	0011      	movs	r1, r2
 8000cec:	0018      	movs	r0, r3
 8000cee:	f002 fc7d 	bl	80035ec <HAL_GPIO_DeInit>

    /* CAN interrupt DeInit */
    HAL_NVIC_DisableIRQ(CEC_CAN_IRQn);
 8000cf2:	201e      	movs	r0, #30
 8000cf4:	f002 f89d 	bl	8002e32 <HAL_NVIC_DisableIRQ>
  /* USER CODE BEGIN CAN_MspDeInit 1 */

  /* USER CODE END CAN_MspDeInit 1 */
  }

}
 8000cf8:	46c0      	nop			@ (mov r8, r8)
 8000cfa:	46bd      	mov	sp, r7
 8000cfc:	b002      	add	sp, #8
 8000cfe:	bd80      	pop	{r7, pc}
 8000d00:	40006400 	.word	0x40006400
 8000d04:	40021000 	.word	0x40021000
 8000d08:	fdffffff 	.word	0xfdffffff

08000d0c <HAL_SPI_MspInit>:
* This function configures the hardware resources used in this example
* @param hspi: SPI handle pointer
* @retval None
*/
void HAL_SPI_MspInit(SPI_HandleTypeDef* hspi)
{
 8000d0c:	b590      	push	{r4, r7, lr}
 8000d0e:	b08b      	sub	sp, #44	@ 0x2c
 8000d10:	af00      	add	r7, sp, #0
 8000d12:	6078      	str	r0, [r7, #4]
  GPIO_InitTypeDef GPIO_InitStruct = {0};
 8000d14:	2414      	movs	r4, #20
 8000d16:	193b      	adds	r3, r7, r4
 8000d18:	0018      	movs	r0, r3
 8000d1a:	2314      	movs	r3, #20
 8000d1c:	001a      	movs	r2, r3
 8000d1e:	2100      	movs	r1, #0
 8000d20:	f003 fcd6 	bl	80046d0 <memset>
  if(hspi->Instance==SPI1)
 8000d24:	687b      	ldr	r3, [r7, #4]
 8000d26:	681b      	ldr	r3, [r3, #0]
 8000d28:	4a20      	ldr	r2, [pc, #128]	@ (8000dac <HAL_SPI_MspInit+0xa0>)
 8000d2a:	4293      	cmp	r3, r2
 8000d2c:	d139      	bne.n	8000da2 <HAL_SPI_MspInit+0x96>
  {
  /* USER CODE BEGIN SPI1_MspInit 0 */

  /* USER CODE END SPI1_MspInit 0 */
    /* Peripheral clock enable */
    __HAL_RCC_SPI1_CLK_ENABLE();
 8000d2e:	4b20      	ldr	r3, [pc, #128]	@ (8000db0 <HAL_SPI_MspInit+0xa4>)
 8000d30:	699a      	ldr	r2, [r3, #24]
 8000d32:	4b1f      	ldr	r3, [pc, #124]	@ (8000db0 <HAL_SPI_MspInit+0xa4>)
 8000d34:	2180      	movs	r1, #128	@ 0x80
 8000d36:	0149      	lsls	r1, r1, #5
 8000d38:	430a      	orrs	r2, r1
 8000d3a:	619a      	str	r2, [r3, #24]
 8000d3c:	4b1c      	ldr	r3, [pc, #112]	@ (8000db0 <HAL_SPI_MspInit+0xa4>)
 8000d3e:	699a      	ldr	r2, [r3, #24]
 8000d40:	2380      	movs	r3, #128	@ 0x80
 8000d42:	015b      	lsls	r3, r3, #5
 8000d44:	4013      	ands	r3, r2
 8000d46:	613b      	str	r3, [r7, #16]
 8000d48:	693b      	ldr	r3, [r7, #16]

    __HAL_RCC_GPIOB_CLK_ENABLE();
 8000d4a:	4b19      	ldr	r3, [pc, #100]	@ (8000db0 <HAL_SPI_MspInit+0xa4>)
 8000d4c:	695a      	ldr	r2, [r3, #20]
 8000d4e:	4b18      	ldr	r3, [pc, #96]	@ (8000db0 <HAL_SPI_MspInit+0xa4>)
 8000d50:	2180      	movs	r1, #128	@ 0x80
 8000d52:	02c9      	lsls	r1, r1, #11
 8000d54:	430a      	orrs	r2, r1
 8000d56:	615a      	str	r2, [r3, #20]
 8000d58:	4b15      	ldr	r3, [pc, #84]	@ (8000db0 <HAL_SPI_MspInit+0xa4>)
 8000d5a:	695a      	ldr	r2, [r3, #20]
 8000d5c:	2380      	movs	r3, #128	@ 0x80
 8000d5e:	02db      	lsls	r3, r3, #11
 8000d60:	4013      	ands	r3, r2
 8000d62:	60fb      	str	r3, [r7, #12]
 8000d64:	68fb      	ldr	r3, [r7, #12]
    /**SPI1 GPIO Configuration
    PB3     ------> SPI1_SCK
    PB4     ------> SPI1_MISO
    PB5     ------> SPI1_MOSI
    */
    GPIO_InitStruct.Pin = GPIO_PIN_3|GPIO_PIN_4|GPIO_PIN_5;
 8000d66:	0021      	movs	r1, r4
 8000d68:	187b      	adds	r3, r7, r1
 8000d6a:	2238      	movs	r2, #56	@ 0x38
 8000d6c:	601a      	str	r2, [r3, #0]
    GPIO_InitStruct.Mode = GPIO_MODE_AF_PP;
 8000d6e:	187b      	adds	r3, r7, r1
 8000d70:	2202      	movs	r2, #2
 8000d72:	605a      	str	r2, [r3, #4]
    GPIO_InitStruct.Pull = GPIO_NOPULL;
 8000d74:	187b      	adds	r3, r7, r1
 8000d76:	2200      	movs	r2, #0
 8000d78:	609a      	str	r2, [r3, #8]
    GPIO_InitStruct.Speed = GPIO_SPEED_FREQ_HIGH;
 8000d7a:	187b      	adds	r3, r7, r1
 8000d7c:	2203      	movs	r2, #3
 8000d7e:	60da      	str	r2, [r3, #12]
    GPIO_InitStruct.Alternate = GPIO_AF0_SPI1;
 8000d80:	187b      	adds	r3, r7, r1
 8000d82:	2200      	movs	r2, #0
 8000d84:	611a      	str	r2, [r3, #16]
    HAL_GPIO_Init(GPIOB, &GPIO_InitStruct);
 8000d86:	187b      	adds	r3, r7, r1
 8000d88:	4a0a      	ldr	r2, [pc, #40]	@ (8000db4 <HAL_SPI_MspInit+0xa8>)
 8000d8a:	0019      	movs	r1, r3
 8000d8c:	0010      	movs	r0, r2
 8000d8e:	f002 fab5 	bl	80032fc <HAL_GPIO_Init>

    /* SPI1 interrupt Init */
    HAL_NVIC_SetPriority(SPI1_IRQn, 0, 0);
 8000d92:	2200      	movs	r2, #0
 8000d94:	2100      	movs	r1, #0
 8000d96:	2019      	movs	r0, #25
 8000d98:	f002 f826 	bl	8002de8 <HAL_NVIC_SetPriority>
    HAL_NVIC_EnableIRQ(SPI1_IRQn);
 8000d9c:	2019      	movs	r0, #25
 8000d9e:	f002 f838 	bl	8002e12 <HAL_NVIC_EnableIRQ>

  /* USER CODE END SPI1_MspInit 1 */

  }

}
 8000da2:	46c0      	nop			@ (mov r8, r8)
 8000da4:	46bd      	mov	sp, r7
 8000da6:	b00b      	add	sp, #44	@ 0x2c
 8000da8:	bd90      	pop	{r4, r7, pc}
 8000daa:	46c0      	nop			@ (mov r8, r8)
 8000dac:	40013000 	.word	0x40013000
 8000db0:	40021000 	.word	0x40021000
 8000db4:	48000400 	.word	0x48000400

08000db8 <__NVIC_SystemReset>:
/**
  \brief   System Reset
  \details Initiates a system reset request to reset the MCU.
 */
__NO_RETURN __STATIC_INLINE void __NVIC_SystemReset(void)
{
 8000db8:	b580      	push	{r7, lr}
 8000dba:	af00      	add	r7, sp, #0
  \details Acts as a special kind of Data Memory Barrier.
           It completes when all explicit memory accesses before this instruction complete.
 */
__STATIC_FORCEINLINE void __DSB(void)
{
  __ASM volatile ("dsb 0xF":::"memory");
 8000dbc:	f3bf 8f4f 	dsb	sy
}
 8000dc0:	46c0      	nop			@ (mov r8, r8)
  __DSB();                                                          /* Ensure all outstanding memory accesses included
                                                                       buffered write are completed before reset */
  SCB->AIRCR  = ((0x5FAUL << SCB_AIRCR_VECTKEY_Pos) |
 8000dc2:	4b04      	ldr	r3, [pc, #16]	@ (8000dd4 <__NVIC_SystemReset+0x1c>)
 8000dc4:	4a04      	ldr	r2, [pc, #16]	@ (8000dd8 <__NVIC_SystemReset+0x20>)
 8000dc6:	60da      	str	r2, [r3, #12]
  __ASM volatile ("dsb 0xF":::"memory");
 8000dc8:	f3bf 8f4f 	dsb	sy
}
 8000dcc:	46c0      	nop			@ (mov r8, r8)
                 SCB_AIRCR_SYSRESETREQ_Msk);
  __DSB();                                                          /* Ensure completion of memory access */

  for(;;)                                                           /* wait until reset */
  {
    __NOP();
 8000dce:	46c0      	nop			@ (mov r8, r8)
 8000dd0:	e7fd      	b.n	8000dce <__NVIC_SystemReset+0x16>
 8000dd2:	46c0      	nop			@ (mov r8, r8)
 8000dd4:	e000ed00 	.word	0xe000ed00
 8000dd8:	05fa0004 	.word	0x05fa0004

08000ddc <NMI_Handler>:
/******************************************************************************/
/**
  * @brief This function handles Non maskable interrupt.
  */
void NMI_Handler(void)
{
 8000ddc:	b580      	push	{r7, lr}
 8000dde:	af00      	add	r7, sp, #0
  /* USER CODE BEGIN NonMaskableInt_IRQn 0 */

  /* USER CODE END NonMaskableInt_IRQn 0 */
  /* USER CODE BEGIN NonMaskableInt_IRQn 1 */
   while (1)
 8000de0:	46c0      	nop			@ (mov r8, r8)
 8000de2:	e7fd      	b.n	8000de0 <NMI_Handler+0x4>

08000de4 <HardFault_Handler>:

/**
  * @brief This function handles Hard fault interrupt.
  */
void HardFault_Handler(void)
{
 8000de4:	b580      	push	{r7, lr}
 8000de6:	af00      	add	r7, sp, #0
  /* USER CODE BEGIN HardFault_IRQn 0 */
	NVIC_SystemReset();
 8000de8:	f7ff ffe6 	bl	8000db8 <__NVIC_SystemReset>

08000dec <SVC_Handler>:

/**
  * @brief This function handles System service call via SWI instruction.
  */
void SVC_Handler(void)
{
 8000dec:	b580      	push	{r7, lr}
 8000dee:	af00      	add	r7, sp, #0

  /* USER CODE END SVC_IRQn 0 */
  /* USER CODE BEGIN SVC_IRQn 1 */

  /* USER CODE END SVC_IRQn 1 */
}
 8000df0:	46c0      	nop			@ (mov r8, r8)
 8000df2:	46bd      	mov	sp, r7
 8000df4:	bd80      	pop	{r7, pc}

08000df6 <PendSV_Handler>:

/**
  * @brief This function handles Pendable request for system service.
  */
void PendSV_Handler(void)
{
 8000df6:	b580      	push	{r7, lr}
 8000df8:	af00      	add	r7, sp, #0

  /* USER CODE END PendSV_IRQn 0 */
  /* USER CODE BEGIN PendSV_IRQn 1 */

  /* USER CODE END PendSV_IRQn 1 */
}
 8000dfa:	46c0      	nop			@ (mov r8, r8)
 8000dfc:	46bd      	mov	sp, r7
 8000dfe:	bd80      	pop	{r7, pc}

08000e00 <SysTick_Handler>:

/**
  * @brief This function handles System tick timer.
  */
void SysTick_Handler(void)
{
 8000e00:	b580      	push	{r7, lr}
 8000e02:	af00      	add	r7, sp, #0
  /* USER CODE BEGIN SysTick_IRQn 0 */

  /* USER CODE END SysTick_IRQn 0 */
  HAL_IncTick();
 8000e04:	f000 ff7a 	bl	8001cfc <HAL_IncTick>
  /* USER CODE BEGIN SysTick_IRQn 1 */

  /* USER CODE END SysTick_IRQn 1 */
}
 8000e08:	46c0      	nop			@ (mov r8, r8)
 8000e0a:	46bd      	mov	sp, r7
 8000e0c:	bd80      	pop	{r7, pc}
	...

08000e10 <SPI1_IRQHandler>:

/**
  * @brief This function handles SPI1 global interrupt.
  */
void SPI1_IRQHandler(void)
{
 8000e10:	b580      	push	{r7, lr}
 8000e12:	af00      	add	r7, sp, #0
  /* USER CODE BEGIN SPI1_IRQn 0 */

  /* USER CODE END SPI1_IRQn 0 */
  HAL_SPI_IRQHandler(&hspi1);
 8000e14:	4b03      	ldr	r3, [pc, #12]	@ (8000e24 <SPI1_IRQHandler+0x14>)
 8000e16:	0018      	movs	r0, r3
 8000e18:	f003 fa6a 	bl	80042f0 <HAL_SPI_IRQHandler>
  /* USER CODE BEGIN SPI1_IRQn 1 */

  /* USER CODE END SPI1_IRQn 1 */
}
 8000e1c:	46c0      	nop			@ (mov r8, r8)
 8000e1e:	46bd      	mov	sp, r7
 8000e20:	bd80      	pop	{r7, pc}
 8000e22:	46c0      	nop			@ (mov r8, r8)
 8000e24:	20000088 	.word	0x20000088

08000e28 <CEC_CAN_IRQHandler>:

/**
  * @brief This function handles HDMI-CEC and CAN interrupts / HDMI-CEC wake-up interrupt through EXTI line 27.
  */
void CEC_CAN_IRQHandler(void)
{
 8000e28:	b580      	push	{r7, lr}
 8000e2a:	af00      	add	r7, sp, #0
  /* USER CODE BEGIN CEC_CAN_IRQn 0 */

  /* USER CODE END CEC_CAN_IRQn 0 */
  HAL_CAN_IRQHandler(&hcan);
 8000e2c:	4b03      	ldr	r3, [pc, #12]	@ (8000e3c <CEC_CAN_IRQHandler+0x14>)
 8000e2e:	0018      	movs	r0, r3
 8000e30:	f001 fd10 	bl	8002854 <HAL_CAN_IRQHandler>
  /* USER CODE BEGIN CEC_CAN_IRQn 1 */

  /* USER CODE END CEC_CAN_IRQn 1 */
}
 8000e34:	46c0      	nop			@ (mov r8, r8)
 8000e36:	46bd      	mov	sp, r7
 8000e38:	bd80      	pop	{r7, pc}
 8000e3a:	46c0      	nop			@ (mov r8, r8)
 8000e3c:	200000ec 	.word	0x200000ec

08000e40 <_getpid>:
void initialise_monitor_handles()
{
}

int _getpid(void)
{
 8000e40:	b580      	push	{r7, lr}
 8000e42:	af00      	add	r7, sp, #0
  return 1;
 8000e44:	2301      	movs	r3, #1
}
 8000e46:	0018      	movs	r0, r3
 8000e48:	46bd      	mov	sp, r7
 8000e4a:	bd80      	pop	{r7, pc}

08000e4c <_kill>:

int _kill(int pid, int sig)
{
 8000e4c:	b580      	push	{r7, lr}
 8000e4e:	b082      	sub	sp, #8
 8000e50:	af00      	add	r7, sp, #0
 8000e52:	6078      	str	r0, [r7, #4]
 8000e54:	6039      	str	r1, [r7, #0]
  (void)pid;
  (void)sig;
  errno = EINVAL;
 8000e56:	f003 fc9f 	bl	8004798 <__errno>
 8000e5a:	0003      	movs	r3, r0
 8000e5c:	2216      	movs	r2, #22
 8000e5e:	601a      	str	r2, [r3, #0]
  return -1;
 8000e60:	2301      	movs	r3, #1
 8000e62:	425b      	negs	r3, r3
}
 8000e64:	0018      	movs	r0, r3
 8000e66:	46bd      	mov	sp, r7
 8000e68:	b002      	add	sp, #8
 8000e6a:	bd80      	pop	{r7, pc}

08000e6c <_exit>:

void _exit (int status)
{
 8000e6c:	b580      	push	{r7, lr}
 8000e6e:	b082      	sub	sp, #8
 8000e70:	af00      	add	r7, sp, #0
 8000e72:	6078      	str	r0, [r7, #4]
  _kill(status, -1);
 8000e74:	2301      	movs	r3, #1
 8000e76:	425a      	negs	r2, r3
 8000e78:	687b      	ldr	r3, [r7, #4]
 8000e7a:	0011      	movs	r1, r2
 8000e7c:	0018      	movs	r0, r3
 8000e7e:	f7ff ffe5 	bl	8000e4c <_kill>
  while (1) {}    /* Make sure we hang here */
 8000e82:	46c0      	nop			@ (mov r8, r8)
 8000e84:	e7fd      	b.n	8000e82 <_exit+0x16>
	...

08000e88 <_sbrk>:
 *
 * @param incr Memory size
 * @return Pointer to allocated memory
 */
void *_sbrk(ptrdiff_t incr)
{
 8000e88:	b580      	push	{r7, lr}
 8000e8a:	b086      	sub	sp, #24
 8000e8c:	af00      	add	r7, sp, #0
 8000e8e:	6078      	str	r0, [r7, #4]
  extern uint8_t _end; /* Symbol defined in the linker script */
  extern uint8_t _estack; /* Symbol defined in the linker script */
  extern uint32_t _Min_Stack_Size; /* Symbol defined in the linker script */
  const uint32_t stack_limit = (uint32_t)&_estack - (uint32_t)&_Min_Stack_Size;
 8000e90:	4a14      	ldr	r2, [pc, #80]	@ (8000ee4 <_sbrk+0x5c>)
 8000e92:	4b15      	ldr	r3, [pc, #84]	@ (8000ee8 <_sbrk+0x60>)
 8000e94:	1ad3      	subs	r3, r2, r3
 8000e96:	617b      	str	r3, [r7, #20]
  const uint8_t *max_heap = (uint8_t *)stack_limit;
 8000e98:	697b      	ldr	r3, [r7, #20]
 8000e9a:	613b      	str	r3, [r7, #16]
  uint8_t *prev_heap_end;

  /* Initialize heap end at first call */
  if (NULL == __sbrk_heap_end)
 8000e9c:	4b13      	ldr	r3, [pc, #76]	@ (8000eec <_sbrk+0x64>)
 8000e9e:	681b      	ldr	r3, [r3, #0]
 8000ea0:	2b00      	cmp	r3, #0
 8000ea2:	d102      	bne.n	8000eaa <_sbrk+0x22>
  {
    __sbrk_heap_end = &_end;
 8000ea4:	4b11      	ldr	r3, [pc, #68]	@ (8000eec <_sbrk+0x64>)
 8000ea6:	4a12      	ldr	r2, [pc, #72]	@ (8000ef0 <_sbrk+0x68>)
 8000ea8:	601a      	str	r2, [r3, #0]
  }

  /* Protect heap from growing into the reserved MSP stack */
  if (__sbrk_heap_end + incr > max_heap)
 8000eaa:	4b10      	ldr	r3, [pc, #64]	@ (8000eec <_sbrk+0x64>)
 8000eac:	681a      	ldr	r2, [r3, #0]
 8000eae:	687b      	ldr	r3, [r7, #4]
 8000eb0:	18d3      	adds	r3, r2, r3
 8000eb2:	693a      	ldr	r2, [r7, #16]
 8000eb4:	429a      	cmp	r2, r3
 8000eb6:	d207      	bcs.n	8000ec8 <_sbrk+0x40>
  {
    errno = ENOMEM;
 8000eb8:	f003 fc6e 	bl	8004798 <__errno>
 8000ebc:	0003      	movs	r3, r0
 8000ebe:	220c      	movs	r2, #12
 8000ec0:	601a      	str	r2, [r3, #0]
    return (void *)-1;
 8000ec2:	2301      	movs	r3, #1
 8000ec4:	425b      	negs	r3, r3
 8000ec6:	e009      	b.n	8000edc <_sbrk+0x54>
  }

  prev_heap_end = __sbrk_heap_end;
 8000ec8:	4b08      	ldr	r3, [pc, #32]	@ (8000eec <_sbrk+0x64>)
 8000eca:	681b      	ldr	r3, [r3, #0]
 8000ecc:	60fb      	str	r3, [r7, #12]
  __sbrk_heap_end += incr;
 8000ece:	4b07      	ldr	r3, [pc, #28]	@ (8000eec <_sbrk+0x64>)
 8000ed0:	681a      	ldr	r2, [r3, #0]
 8000ed2:	687b      	ldr	r3, [r7, #4]
 8000ed4:	18d2      	adds	r2, r2, r3
 8000ed6:	4b05      	ldr	r3, [pc, #20]	@ (8000eec <_sbrk+0x64>)
 8000ed8:	601a      	str	r2, [r3, #0]

  return (void *)prev_heap_end;
 8000eda:	68fb      	ldr	r3, [r7, #12]
}
 8000edc:	0018      	movs	r0, r3
 8000ede:	46bd      	mov	sp, r7
 8000ee0:	b006      	add	sp, #24
 8000ee2:	bd80      	pop	{r7, pc}
 8000ee4:	20004000 	.word	0x20004000
 8000ee8:	00000400 	.word	0x00000400
 8000eec:	20000114 	.word	0x20000114
 8000ef0:	20000748 	.word	0x20000748

08000ef4 <SystemInit>:
  * @brief  Setup the microcontroller system
  * @param  None
  * @retval None
  */
void SystemInit(void)
{
 8000ef4:	b580      	push	{r7, lr}
 8000ef6:	af00      	add	r7, sp, #0
                         before branch to main program. This call is made inside
                         the "startup_stm32f0xx.s" file.
                         User can setups the default system clock (System clock source, PLL Multiplier
                         and Divider factors, AHB/APBx prescalers and Flash settings).
   */
}
 8000ef8:	46c0      	nop			@ (mov r8, r8)
 8000efa:	46bd      	mov	sp, r7
 8000efc:	bd80      	pop	{r7, pc}

08000efe <_ZN12CanMessenger11TxQueueItemC1Ev>:
                   destination_id(0), length(0), timestamp(0), pending(false) {
 8000efe:	2100      	movs	r1, #0
    TxQueueItem() : priority(TxPriority::ANALOG_TELEMETRY), payload_type_id(0),
 8000f00:	2303      	movs	r3, #3
 8000f02:	b510      	push	{r4, lr}
 8000f04:	0004      	movs	r4, r0
 8000f06:	8003      	strh	r3, [r0, #0]
                   destination_id(0), length(0), timestamp(0), pending(false) {
 8000f08:	7081      	strb	r1, [r0, #2]
 8000f0a:	72c1      	strb	r1, [r0, #11]
 8000f0c:	60c1      	str	r1, [r0, #12]
 8000f0e:	7401      	strb	r1, [r0, #16]
      memset(data, 0, sizeof(data));
 8000f10:	2208      	movs	r2, #8
 8000f12:	18c0      	adds	r0, r0, r3
 8000f14:	f003 fbdc 	bl	80046d0 <memset>
    }
 8000f18:	0020      	movs	r0, r4
 8000f1a:	bd10      	pop	{r4, pc}

08000f1c <_ZN12CanMessenger11RxQueueItemC1Ev>:
                   source_id(0), destination_id(0), length(0), timestamp(0), 
 8000f1c:	2100      	movs	r1, #0
    RxQueueItem() : priority(RxPriority::METADATA_REQUEST), payload_type_id(0),
 8000f1e:	2302      	movs	r3, #2
 8000f20:	b510      	push	{r4, lr}
 8000f22:	0004      	movs	r4, r0
 8000f24:	6003      	str	r3, [r0, #0]
                   source_id(0), destination_id(0), length(0), timestamp(0), 
 8000f26:	7301      	strb	r1, [r0, #12]
 8000f28:	6101      	str	r1, [r0, #16]
                   can_id(0), pending(false) {
 8000f2a:	6141      	str	r1, [r0, #20]
 8000f2c:	7601      	strb	r1, [r0, #24]
      memset(data, 0, sizeof(data));
 8000f2e:	2208      	movs	r2, #8
 8000f30:	3004      	adds	r0, #4
 8000f32:	f003 fbcd 	bl	80046d0 <memset>
    }
 8000f36:	0020      	movs	r0, r4
 8000f38:	bd10      	pop	{r4, pc}
	...

08000f3c <_ZN12CanMessenger20insertTxWithPriorityERKNS_11TxQueueItemE>:
    stats_.rx_tick_processes++;
    
    return true;
}

void CanMessenger::insertTxWithPriority(const TxQueueItem& item) {
 8000f3c:	b5f0      	push	{r4, r5, r6, r7, lr}
    uint8_t insert_pos = tx_queue_tail_;
 8000f3e:	4c36      	ldr	r4, [pc, #216]	@ (8001018 <_ZN12CanMessenger20insertTxWithPriorityERKNS_11TxQueueItemE+0xdc>)
    
    if (tx_queue_count_ > 0) {
 8000f40:	4d36      	ldr	r5, [pc, #216]	@ (800101c <_ZN12CanMessenger20insertTxWithPriorityERKNS_11TxQueueItemE+0xe0>)
    uint8_t insert_pos = tx_queue_tail_;
 8000f42:	7822      	ldrb	r2, [r4, #0]
    if (tx_queue_count_ > 0) {
 8000f44:	782b      	ldrb	r3, [r5, #0]
void CanMessenger::insertTxWithPriority(const TxQueueItem& item) {
 8000f46:	b085      	sub	sp, #20
 8000f48:	9102      	str	r1, [sp, #8]
    uint8_t insert_pos = tx_queue_tail_;
 8000f4a:	b2d2      	uxtb	r2, r2
    if (tx_queue_count_ > 0) {
 8000f4c:	2b00      	cmp	r3, #0
 8000f4e:	d15c      	bne.n	800100a <_ZN12CanMessenger20insertTxWithPriorityERKNS_11TxQueueItemE+0xce>
                break;
            }
        }
    }
    
    tx_queue_[insert_pos] = item;
 8000f50:	2014      	movs	r0, #20
 8000f52:	4350      	muls	r0, r2
 8000f54:	4b32      	ldr	r3, [pc, #200]	@ (8001020 <_ZN12CanMessenger20insertTxWithPriorityERKNS_11TxQueueItemE+0xe4>)
 8000f56:	2211      	movs	r2, #17
 8000f58:	9902      	ldr	r1, [sp, #8]
 8000f5a:	18c0      	adds	r0, r0, r3
 8000f5c:	f003 fc48 	bl	80047f0 <memcpy>
    tx_queue_tail_ = (tx_queue_tail_ + 1) % TX_QUEUE_SIZE_;
 8000f60:	221f      	movs	r2, #31
 8000f62:	7823      	ldrb	r3, [r4, #0]
 8000f64:	3301      	adds	r3, #1
 8000f66:	4013      	ands	r3, r2
 8000f68:	7023      	strb	r3, [r4, #0]
    tx_queue_count_++;
 8000f6a:	782b      	ldrb	r3, [r5, #0]
 8000f6c:	3301      	adds	r3, #1
 8000f6e:	b2db      	uxtb	r3, r3
 8000f70:	702b      	strb	r3, [r5, #0]
}
 8000f72:	b005      	add	sp, #20
 8000f74:	bdf0      	pop	{r4, r5, r6, r7, pc}
                    uint8_t from_pos = (tx_queue_tail_ - 1 - j + TX_QUEUE_SIZE_) % TX_QUEUE_SIZE_;
 8000f76:	7823      	ldrb	r3, [r4, #0]
                    uint8_t to_pos = (tx_queue_tail_ - j) % TX_QUEUE_SIZE_;
 8000f78:	7822      	ldrb	r2, [r4, #0]
 8000f7a:	482a      	ldr	r0, [pc, #168]	@ (8001024 <_ZN12CanMessenger20insertTxWithPriorityERKNS_11TxQueueItemE+0xe8>)
 8000f7c:	1a52      	subs	r2, r2, r1
                    uint8_t from_pos = (tx_queue_tail_ - 1 - j + TX_QUEUE_SIZE_) % TX_QUEUE_SIZE_;
 8000f7e:	b2db      	uxtb	r3, r3
                    uint8_t to_pos = (tx_queue_tail_ - j) % TX_QUEUE_SIZE_;
 8000f80:	4002      	ands	r2, r0
 8000f82:	d504      	bpl.n	8000f8e <_ZN12CanMessenger20insertTxWithPriorityERKNS_11TxQueueItemE+0x52>
 8000f84:	2020      	movs	r0, #32
 8000f86:	3a01      	subs	r2, #1
 8000f88:	4240      	negs	r0, r0
 8000f8a:	4302      	orrs	r2, r0
 8000f8c:	3201      	adds	r2, #1
                    tx_queue_[to_pos] = tx_queue_[from_pos];
 8000f8e:	4660      	mov	r0, ip
 8000f90:	4002      	ands	r2, r0
 8000f92:	2014      	movs	r0, #20
 8000f94:	4342      	muls	r2, r0
 8000f96:	4822      	ldr	r0, [pc, #136]	@ (8001020 <_ZN12CanMessenger20insertTxWithPriorityERKNS_11TxQueueItemE+0xe4>)
                    uint8_t from_pos = (tx_queue_tail_ - 1 - j + TX_QUEUE_SIZE_) % TX_QUEUE_SIZE_;
 8000f98:	1a5b      	subs	r3, r3, r1
                    tx_queue_[to_pos] = tx_queue_[from_pos];
 8000f9a:	1812      	adds	r2, r2, r0
                    uint8_t from_pos = (tx_queue_tail_ - 1 - j + TX_QUEUE_SIZE_) % TX_QUEUE_SIZE_;
 8000f9c:	4821      	ldr	r0, [pc, #132]	@ (8001024 <_ZN12CanMessenger20insertTxWithPriorityERKNS_11TxQueueItemE+0xe8>)
 8000f9e:	331f      	adds	r3, #31
 8000fa0:	4003      	ands	r3, r0
 8000fa2:	d504      	bpl.n	8000fae <_ZN12CanMessenger20insertTxWithPriorityERKNS_11TxQueueItemE+0x72>
 8000fa4:	2020      	movs	r0, #32
 8000fa6:	3b01      	subs	r3, #1
 8000fa8:	4240      	negs	r0, r0
 8000faa:	4303      	orrs	r3, r0
 8000fac:	3301      	adds	r3, #1
                    tx_queue_[to_pos] = tx_queue_[from_pos];
 8000fae:	4660      	mov	r0, ip
 8000fb0:	4003      	ands	r3, r0
 8000fb2:	2014      	movs	r0, #20
 8000fb4:	4343      	muls	r3, r0
 8000fb6:	481a      	ldr	r0, [pc, #104]	@ (8001020 <_ZN12CanMessenger20insertTxWithPriorityERKNS_11TxQueueItemE+0xe4>)
 8000fb8:	3101      	adds	r1, #1
 8000fba:	181b      	adds	r3, r3, r0
 8000fbc:	cbc1      	ldmia	r3!, {r0, r6, r7}
 8000fbe:	c2c1      	stmia	r2!, {r0, r6, r7}
 8000fc0:	0010      	movs	r0, r2
 8000fc2:	681a      	ldr	r2, [r3, #0]
 8000fc4:	6002      	str	r2, [r0, #0]
 8000fc6:	791b      	ldrb	r3, [r3, #4]
 8000fc8:	7103      	strb	r3, [r0, #4]
                for (uint8_t j = 0; j < shift_count; j++) {
 8000fca:	e018      	b.n	8000ffe <_ZN12CanMessenger20insertTxWithPriorityERKNS_11TxQueueItemE+0xc2>
        for (uint8_t i = 0; i < tx_queue_count_; i++) {
 8000fcc:	3301      	adds	r3, #1
 8000fce:	b2db      	uxtb	r3, r3
 8000fd0:	782f      	ldrb	r7, [r5, #0]
 8000fd2:	429f      	cmp	r7, r3
 8000fd4:	d9bc      	bls.n	8000f50 <_ZN12CanMessenger20insertTxWithPriorityERKNS_11TxQueueItemE+0x14>
            uint8_t check_pos = (tx_queue_head_ + i) % TX_QUEUE_SIZE_;
 8000fd6:	201f      	movs	r0, #31
 8000fd8:	780f      	ldrb	r7, [r1, #0]
 8000fda:	18ff      	adds	r7, r7, r3
 8000fdc:	4007      	ands	r7, r0
 8000fde:	9701      	str	r7, [sp, #4]
            if (tx_queue_[check_pos].priority > item.priority) {
 8000fe0:	4377      	muls	r7, r6
 8000fe2:	9803      	ldr	r0, [sp, #12]
 8000fe4:	5c38      	ldrb	r0, [r7, r0]
 8000fe6:	4684      	mov	ip, r0
 8000fe8:	9802      	ldr	r0, [sp, #8]
 8000fea:	7807      	ldrb	r7, [r0, #0]
 8000fec:	45bc      	cmp	ip, r7
 8000fee:	d9ed      	bls.n	8000fcc <_ZN12CanMessenger20insertTxWithPriorityERKNS_11TxQueueItemE+0x90>
                uint8_t shift_count = tx_queue_count_ - i;
 8000ff0:	782a      	ldrb	r2, [r5, #0]
                for (uint8_t j = 0; j < shift_count; j++) {
 8000ff2:	2100      	movs	r1, #0
                uint8_t shift_count = tx_queue_count_ - i;
 8000ff4:	1ad3      	subs	r3, r2, r3
 8000ff6:	b2db      	uxtb	r3, r3
 8000ff8:	9303      	str	r3, [sp, #12]
                    tx_queue_[to_pos] = tx_queue_[from_pos];
 8000ffa:	23ff      	movs	r3, #255	@ 0xff
 8000ffc:	469c      	mov	ip, r3
                for (uint8_t j = 0; j < shift_count; j++) {
 8000ffe:	9a03      	ldr	r2, [sp, #12]
 8001000:	b2cb      	uxtb	r3, r1
 8001002:	429a      	cmp	r2, r3
 8001004:	d8b7      	bhi.n	8000f76 <_ZN12CanMessenger20insertTxWithPriorityERKNS_11TxQueueItemE+0x3a>
                insert_pos = check_pos;
 8001006:	9a01      	ldr	r2, [sp, #4]
 8001008:	e7a2      	b.n	8000f50 <_ZN12CanMessenger20insertTxWithPriorityERKNS_11TxQueueItemE+0x14>
            if (tx_queue_[check_pos].priority > item.priority) {
 800100a:	4805      	ldr	r0, [pc, #20]	@ (8001020 <_ZN12CanMessenger20insertTxWithPriorityERKNS_11TxQueueItemE+0xe4>)
        for (uint8_t i = 0; i < tx_queue_count_; i++) {
 800100c:	2300      	movs	r3, #0
            if (tx_queue_[check_pos].priority > item.priority) {
 800100e:	2614      	movs	r6, #20
            uint8_t check_pos = (tx_queue_head_ + i) % TX_QUEUE_SIZE_;
 8001010:	4905      	ldr	r1, [pc, #20]	@ (8001028 <_ZN12CanMessenger20insertTxWithPriorityERKNS_11TxQueueItemE+0xec>)
            if (tx_queue_[check_pos].priority > item.priority) {
 8001012:	9003      	str	r0, [sp, #12]
 8001014:	e7dc      	b.n	8000fd0 <_ZN12CanMessenger20insertTxWithPriorityERKNS_11TxQueueItemE+0x94>
 8001016:	46c0      	nop			@ (mov r8, r8)
 8001018:	20000305 	.word	0x20000305
 800101c:	20000304 	.word	0x20000304
 8001020:	20000308 	.word	0x20000308
 8001024:	8000001f 	.word	0x8000001f
 8001028:	20000306 	.word	0x20000306

0800102c <_ZN12CanMessenger20insertRxWithPriorityERKNS_11RxQueueItemE>:

void CanMessenger::insertRxWithPriority(const RxQueueItem& item) {
 800102c:	b5f0      	push	{r4, r5, r6, r7, lr}
    uint8_t insert_pos = rx_queue_tail_;
 800102e:	4c36      	ldr	r4, [pc, #216]	@ (8001108 <_ZN12CanMessenger20insertRxWithPriorityERKNS_11RxQueueItemE+0xdc>)
    
    if (rx_queue_count_ > 0) {
 8001030:	4d36      	ldr	r5, [pc, #216]	@ (800110c <_ZN12CanMessenger20insertRxWithPriorityERKNS_11RxQueueItemE+0xe0>)
    uint8_t insert_pos = rx_queue_tail_;
 8001032:	7822      	ldrb	r2, [r4, #0]
    if (rx_queue_count_ > 0) {
 8001034:	782b      	ldrb	r3, [r5, #0]
void CanMessenger::insertRxWithPriority(const RxQueueItem& item) {
 8001036:	b085      	sub	sp, #20
 8001038:	9102      	str	r1, [sp, #8]
    uint8_t insert_pos = rx_queue_tail_;
 800103a:	b2d2      	uxtb	r2, r2
    if (rx_queue_count_ > 0) {
 800103c:	2b00      	cmp	r3, #0
 800103e:	d15c      	bne.n	80010fa <_ZN12CanMessenger20insertRxWithPriorityERKNS_11RxQueueItemE+0xce>
                break;
            }
        }
    }
    
    rx_queue_[insert_pos] = item;
 8001040:	201c      	movs	r0, #28
 8001042:	4350      	muls	r0, r2
 8001044:	4b32      	ldr	r3, [pc, #200]	@ (8001110 <_ZN12CanMessenger20insertRxWithPriorityERKNS_11RxQueueItemE+0xe4>)
 8001046:	2219      	movs	r2, #25
 8001048:	9902      	ldr	r1, [sp, #8]
 800104a:	18c0      	adds	r0, r0, r3
 800104c:	f003 fbd0 	bl	80047f0 <memcpy>
    rx_queue_tail_ = (rx_queue_tail_ + 1) % RX_QUEUE_SIZE_;
 8001050:	220f      	movs	r2, #15
 8001052:	7823      	ldrb	r3, [r4, #0]
 8001054:	3301      	adds	r3, #1
 8001056:	4013      	ands	r3, r2
 8001058:	7023      	strb	r3, [r4, #0]
    rx_queue_count_++;
 800105a:	782b      	ldrb	r3, [r5, #0]
 800105c:	3301      	adds	r3, #1
 800105e:	b2db      	uxtb	r3, r3
 8001060:	702b      	strb	r3, [r5, #0]
}
 8001062:	b005      	add	sp, #20
 8001064:	bdf0      	pop	{r4, r5, r6, r7, pc}
                    uint8_t from_pos = (rx_queue_tail_ - 1 - j + RX_QUEUE_SIZE_) % RX_QUEUE_SIZE_;
 8001066:	7823      	ldrb	r3, [r4, #0]
                    uint8_t to_pos = (rx_queue_tail_ - j) % RX_QUEUE_SIZE_;
 8001068:	7822      	ldrb	r2, [r4, #0]
 800106a:	492a      	ldr	r1, [pc, #168]	@ (8001114 <_ZN12CanMessenger20insertRxWithPriorityERKNS_11RxQueueItemE+0xe8>)
 800106c:	1a12      	subs	r2, r2, r0
                    uint8_t from_pos = (rx_queue_tail_ - 1 - j + RX_QUEUE_SIZE_) % RX_QUEUE_SIZE_;
 800106e:	b2db      	uxtb	r3, r3
                    uint8_t to_pos = (rx_queue_tail_ - j) % RX_QUEUE_SIZE_;
 8001070:	400a      	ands	r2, r1
 8001072:	d504      	bpl.n	800107e <_ZN12CanMessenger20insertRxWithPriorityERKNS_11RxQueueItemE+0x52>
 8001074:	2110      	movs	r1, #16
 8001076:	3a01      	subs	r2, #1
 8001078:	4249      	negs	r1, r1
 800107a:	430a      	orrs	r2, r1
 800107c:	3201      	adds	r2, #1
                    rx_queue_[to_pos] = rx_queue_[from_pos];
 800107e:	4661      	mov	r1, ip
 8001080:	400a      	ands	r2, r1
 8001082:	211c      	movs	r1, #28
 8001084:	434a      	muls	r2, r1
 8001086:	4922      	ldr	r1, [pc, #136]	@ (8001110 <_ZN12CanMessenger20insertRxWithPriorityERKNS_11RxQueueItemE+0xe4>)
                    uint8_t from_pos = (rx_queue_tail_ - 1 - j + RX_QUEUE_SIZE_) % RX_QUEUE_SIZE_;
 8001088:	1a1b      	subs	r3, r3, r0
                    rx_queue_[to_pos] = rx_queue_[from_pos];
 800108a:	1852      	adds	r2, r2, r1
                    uint8_t from_pos = (rx_queue_tail_ - 1 - j + RX_QUEUE_SIZE_) % RX_QUEUE_SIZE_;
 800108c:	4921      	ldr	r1, [pc, #132]	@ (8001114 <_ZN12CanMessenger20insertRxWithPriorityERKNS_11RxQueueItemE+0xe8>)
 800108e:	330f      	adds	r3, #15
 8001090:	400b      	ands	r3, r1
 8001092:	d504      	bpl.n	800109e <_ZN12CanMessenger20insertRxWithPriorityERKNS_11RxQueueItemE+0x72>
 8001094:	2110      	movs	r1, #16
 8001096:	3b01      	subs	r3, #1
 8001098:	4249      	negs	r1, r1
 800109a:	430b      	orrs	r3, r1
 800109c:	3301      	adds	r3, #1
                    rx_queue_[to_pos] = rx_queue_[from_pos];
 800109e:	4661      	mov	r1, ip
 80010a0:	400b      	ands	r3, r1
 80010a2:	211c      	movs	r1, #28
 80010a4:	434b      	muls	r3, r1
 80010a6:	491a      	ldr	r1, [pc, #104]	@ (8001110 <_ZN12CanMessenger20insertRxWithPriorityERKNS_11RxQueueItemE+0xe4>)
 80010a8:	3001      	adds	r0, #1
 80010aa:	185b      	adds	r3, r3, r1
 80010ac:	cbc2      	ldmia	r3!, {r1, r6, r7}
 80010ae:	c2c2      	stmia	r2!, {r1, r6, r7}
 80010b0:	0011      	movs	r1, r2
 80010b2:	cbc4      	ldmia	r3!, {r2, r6, r7}
 80010b4:	c1c4      	stmia	r1!, {r2, r6, r7}
 80010b6:	781b      	ldrb	r3, [r3, #0]
 80010b8:	700b      	strb	r3, [r1, #0]
                for (uint8_t j = 0; j < shift_count; j++) {
 80010ba:	e018      	b.n	80010ee <_ZN12CanMessenger20insertRxWithPriorityERKNS_11RxQueueItemE+0xc2>
        for (uint8_t i = 0; i < rx_queue_count_; i++) {
 80010bc:	3301      	adds	r3, #1
 80010be:	b2db      	uxtb	r3, r3
 80010c0:	782f      	ldrb	r7, [r5, #0]
 80010c2:	429f      	cmp	r7, r3
 80010c4:	d9bc      	bls.n	8001040 <_ZN12CanMessenger20insertRxWithPriorityERKNS_11RxQueueItemE+0x14>
            uint8_t check_pos = (rx_queue_head_ + i) % RX_QUEUE_SIZE_;
 80010c6:	200f      	movs	r0, #15
 80010c8:	780f      	ldrb	r7, [r1, #0]
 80010ca:	18ff      	adds	r7, r7, r3
 80010cc:	4007      	ands	r7, r0
 80010ce:	9701      	str	r7, [sp, #4]
            if (rx_queue_[check_pos].priority > item.priority) {
 80010d0:	4377      	muls	r7, r6
 80010d2:	9803      	ldr	r0, [sp, #12]
 80010d4:	5c38      	ldrb	r0, [r7, r0]
 80010d6:	4684      	mov	ip, r0
 80010d8:	9802      	ldr	r0, [sp, #8]
 80010da:	7807      	ldrb	r7, [r0, #0]
 80010dc:	45bc      	cmp	ip, r7
 80010de:	d9ed      	bls.n	80010bc <_ZN12CanMessenger20insertRxWithPriorityERKNS_11RxQueueItemE+0x90>
                uint8_t shift_count = rx_queue_count_ - i;
 80010e0:	782a      	ldrb	r2, [r5, #0]
                for (uint8_t j = 0; j < shift_count; j++) {
 80010e2:	2000      	movs	r0, #0
                uint8_t shift_count = rx_queue_count_ - i;
 80010e4:	1ad3      	subs	r3, r2, r3
 80010e6:	b2db      	uxtb	r3, r3
 80010e8:	9303      	str	r3, [sp, #12]
                    rx_queue_[to_pos] = rx_queue_[from_pos];
 80010ea:	23ff      	movs	r3, #255	@ 0xff
 80010ec:	469c      	mov	ip, r3
                for (uint8_t j = 0; j < shift_count; j++) {
 80010ee:	9a03      	ldr	r2, [sp, #12]
 80010f0:	b2c3      	uxtb	r3, r0
 80010f2:	429a      	cmp	r2, r3
 80010f4:	d8b7      	bhi.n	8001066 <_ZN12CanMessenger20insertRxWithPriorityERKNS_11RxQueueItemE+0x3a>
                insert_pos = check_pos;
 80010f6:	9a01      	ldr	r2, [sp, #4]
 80010f8:	e7a2      	b.n	8001040 <_ZN12CanMessenger20insertRxWithPriorityERKNS_11RxQueueItemE+0x14>
            if (rx_queue_[check_pos].priority > item.priority) {
 80010fa:	4805      	ldr	r0, [pc, #20]	@ (8001110 <_ZN12CanMessenger20insertRxWithPriorityERKNS_11RxQueueItemE+0xe4>)
        for (uint8_t i = 0; i < rx_queue_count_; i++) {
 80010fc:	2300      	movs	r3, #0
            if (rx_queue_[check_pos].priority > item.priority) {
 80010fe:	261c      	movs	r6, #28
            uint8_t check_pos = (rx_queue_head_ + i) % RX_QUEUE_SIZE_;
 8001100:	4905      	ldr	r1, [pc, #20]	@ (8001118 <_ZN12CanMessenger20insertRxWithPriorityERKNS_11RxQueueItemE+0xec>)
            if (rx_queue_[check_pos].priority > item.priority) {
 8001102:	9003      	str	r0, [sp, #12]
 8001104:	e7dc      	b.n	80010c0 <_ZN12CanMessenger20insertRxWithPriorityERKNS_11RxQueueItemE+0x94>
 8001106:	46c0      	nop			@ (mov r8, r8)
 8001108:	20000141 	.word	0x20000141
 800110c:	20000140 	.word	0x20000140
 8001110:	20000144 	.word	0x20000144
 8001114:	8000000f 	.word	0x8000000f
 8001118:	20000142 	.word	0x20000142

0800111c <_ZN12CanMessenger16dequeueTxMessageERNS_11TxQueueItemE>:

bool CanMessenger::dequeueTxMessage(TxQueueItem& item) {
 800111c:	b5f7      	push	{r0, r1, r2, r4, r5, r6, r7, lr}
  inline bool isTxQueueEmpty() const { return tx_queue_count_ == 0; }
 800111e:	4b29      	ldr	r3, [pc, #164]	@ (80011c4 <_ZN12CanMessenger16dequeueTxMessageERNS_11TxQueueItemE+0xa8>)
 8001120:	468c      	mov	ip, r1
 8001122:	9301      	str	r3, [sp, #4]
 8001124:	781b      	ldrb	r3, [r3, #0]
 8001126:	b2d8      	uxtb	r0, r3
    if (isTxQueueEmpty()) {
 8001128:	2b00      	cmp	r3, #0
 800112a:	d023      	beq.n	8001174 <_ZN12CanMessenger16dequeueTxMessageERNS_11TxQueueItemE+0x58>
        return false;
    }
    
    uint8_t best_index = tx_queue_head_;
    TxPriority best_priority = tx_queue_[tx_queue_head_].priority;
 800112c:	2514      	movs	r5, #20
    
    for (uint8_t i = 0; i < tx_queue_count_; i++) {
 800112e:	2200      	movs	r2, #0
    uint8_t best_index = tx_queue_head_;
 8001130:	4f25      	ldr	r7, [pc, #148]	@ (80011c8 <_ZN12CanMessenger16dequeueTxMessageERNS_11TxQueueItemE+0xac>)
    TxPriority best_priority = tx_queue_[tx_queue_head_].priority;
 8001132:	4e26      	ldr	r6, [pc, #152]	@ (80011cc <_ZN12CanMessenger16dequeueTxMessageERNS_11TxQueueItemE+0xb0>)
    uint8_t best_index = tx_queue_head_;
 8001134:	783c      	ldrb	r4, [r7, #0]
    TxPriority best_priority = tx_queue_[tx_queue_head_].priority;
 8001136:	783b      	ldrb	r3, [r7, #0]
    uint8_t best_index = tx_queue_head_;
 8001138:	b2e4      	uxtb	r4, r4
    TxPriority best_priority = tx_queue_[tx_queue_head_].priority;
 800113a:	436b      	muls	r3, r5
 800113c:	5d99      	ldrb	r1, [r3, r6]
    for (uint8_t i = 0; i < tx_queue_count_; i++) {
 800113e:	9b01      	ldr	r3, [sp, #4]
 8001140:	781b      	ldrb	r3, [r3, #0]
 8001142:	429a      	cmp	r2, r3
 8001144:	d317      	bcc.n	8001176 <_ZN12CanMessenger16dequeueTxMessageERNS_11TxQueueItemE+0x5a>
            best_priority = tx_queue_[check_index].priority;
            best_index = check_index;
        }
    }
    
    item = tx_queue_[best_index];
 8001146:	2514      	movs	r5, #20
 8001148:	0029      	movs	r1, r5
 800114a:	4361      	muls	r1, r4
 800114c:	2211      	movs	r2, #17
 800114e:	4660      	mov	r0, ip
 8001150:	1871      	adds	r1, r6, r1
 8001152:	f003 fb4d 	bl	80047f0 <memcpy>
    
    if (best_index != tx_queue_head_) {
 8001156:	783b      	ldrb	r3, [r7, #0]
 8001158:	42a3      	cmp	r3, r4
 800115a:	d12f      	bne.n	80011bc <_ZN12CanMessenger16dequeueTxMessageERNS_11TxQueueItemE+0xa0>
            tx_queue_[best_index] = tx_queue_[prev_index];
            best_index = prev_index;
        }
    }
    
    tx_queue_head_ = (tx_queue_head_ + 1) % TX_QUEUE_SIZE_;
 800115c:	221f      	movs	r2, #31
    tx_queue_count_--;
 800115e:	2001      	movs	r0, #1
    tx_queue_head_ = (tx_queue_head_ + 1) % TX_QUEUE_SIZE_;
 8001160:	783b      	ldrb	r3, [r7, #0]
 8001162:	3301      	adds	r3, #1
 8001164:	4013      	ands	r3, r2
 8001166:	703b      	strb	r3, [r7, #0]
    tx_queue_count_--;
 8001168:	9b01      	ldr	r3, [sp, #4]
 800116a:	9a01      	ldr	r2, [sp, #4]
 800116c:	781b      	ldrb	r3, [r3, #0]
 800116e:	3b01      	subs	r3, #1
 8001170:	b2db      	uxtb	r3, r3
 8001172:	7013      	strb	r3, [r2, #0]
    
    return true;
}
 8001174:	bdfe      	pop	{r1, r2, r3, r4, r5, r6, r7, pc}
        uint8_t check_index = (tx_queue_head_ + i) % TX_QUEUE_SIZE_;
 8001176:	201f      	movs	r0, #31
 8001178:	783b      	ldrb	r3, [r7, #0]
 800117a:	189b      	adds	r3, r3, r2
 800117c:	4003      	ands	r3, r0
        if (tx_queue_[check_index].priority < best_priority) {
 800117e:	0028      	movs	r0, r5
 8001180:	4358      	muls	r0, r3
 8001182:	5c30      	ldrb	r0, [r6, r0]
 8001184:	4288      	cmp	r0, r1
 8001186:	d301      	bcc.n	800118c <_ZN12CanMessenger16dequeueTxMessageERNS_11TxQueueItemE+0x70>
 8001188:	0008      	movs	r0, r1
 800118a:	0023      	movs	r3, r4
    for (uint8_t i = 0; i < tx_queue_count_; i++) {
 800118c:	3201      	adds	r2, #1
 800118e:	0001      	movs	r1, r0
 8001190:	001c      	movs	r4, r3
 8001192:	b2d2      	uxtb	r2, r2
 8001194:	e7d3      	b.n	800113e <_ZN12CanMessenger16dequeueTxMessageERNS_11TxQueueItemE+0x22>
            uint8_t prev_index = (best_index - 1 + TX_QUEUE_SIZE_) % TX_QUEUE_SIZE_;
 8001196:	0022      	movs	r2, r4
 8001198:	231f      	movs	r3, #31
 800119a:	321f      	adds	r2, #31
 800119c:	4013      	ands	r3, r2
 800119e:	469c      	mov	ip, r3
            tx_queue_[best_index] = tx_queue_[prev_index];
 80011a0:	436c      	muls	r4, r5
 80011a2:	4662      	mov	r2, ip
 80011a4:	002b      	movs	r3, r5
 80011a6:	1934      	adds	r4, r6, r4
 80011a8:	0021      	movs	r1, r4
 80011aa:	4353      	muls	r3, r2
 80011ac:	18f3      	adds	r3, r6, r3
 80011ae:	cb15      	ldmia	r3!, {r0, r2, r4}
 80011b0:	c115      	stmia	r1!, {r0, r2, r4}
 80011b2:	681c      	ldr	r4, [r3, #0]
 80011b4:	600c      	str	r4, [r1, #0]
            best_index = prev_index;
 80011b6:	4664      	mov	r4, ip
            tx_queue_[best_index] = tx_queue_[prev_index];
 80011b8:	791b      	ldrb	r3, [r3, #4]
 80011ba:	710b      	strb	r3, [r1, #4]
        while (best_index != tx_queue_head_) {
 80011bc:	783b      	ldrb	r3, [r7, #0]
 80011be:	429c      	cmp	r4, r3
 80011c0:	d1e9      	bne.n	8001196 <_ZN12CanMessenger16dequeueTxMessageERNS_11TxQueueItemE+0x7a>
 80011c2:	e7cb      	b.n	800115c <_ZN12CanMessenger16dequeueTxMessageERNS_11TxQueueItemE+0x40>
 80011c4:	20000304 	.word	0x20000304
 80011c8:	20000306 	.word	0x20000306
 80011cc:	20000308 	.word	0x20000308

080011d0 <_ZN12CanMessenger16dequeueRxMessageERNS_11RxQueueItemE>:

bool CanMessenger::dequeueRxMessage(RxQueueItem& item) {
 80011d0:	b5f7      	push	{r0, r1, r2, r4, r5, r6, r7, lr}
  inline bool isRxQueueEmpty() const { return rx_queue_count_ == 0; }
 80011d2:	4b29      	ldr	r3, [pc, #164]	@ (8001278 <_ZN12CanMessenger16dequeueRxMessageERNS_11RxQueueItemE+0xa8>)
 80011d4:	468c      	mov	ip, r1
 80011d6:	9301      	str	r3, [sp, #4]
 80011d8:	781b      	ldrb	r3, [r3, #0]
 80011da:	b2d8      	uxtb	r0, r3
    if (isRxQueueEmpty()) {
 80011dc:	2b00      	cmp	r3, #0
 80011de:	d023      	beq.n	8001228 <_ZN12CanMessenger16dequeueRxMessageERNS_11RxQueueItemE+0x58>
        return false;
    }
    
    uint8_t best_index = rx_queue_head_;
    RxPriority best_priority = rx_queue_[rx_queue_head_].priority;
 80011e0:	251c      	movs	r5, #28
    
    for (uint8_t i = 0; i < rx_queue_count_; i++) {
 80011e2:	2200      	movs	r2, #0
    uint8_t best_index = rx_queue_head_;
 80011e4:	4f25      	ldr	r7, [pc, #148]	@ (800127c <_ZN12CanMessenger16dequeueRxMessageERNS_11RxQueueItemE+0xac>)
    RxPriority best_priority = rx_queue_[rx_queue_head_].priority;
 80011e6:	4e26      	ldr	r6, [pc, #152]	@ (8001280 <_ZN12CanMessenger16dequeueRxMessageERNS_11RxQueueItemE+0xb0>)
    uint8_t best_index = rx_queue_head_;
 80011e8:	783c      	ldrb	r4, [r7, #0]
    RxPriority best_priority = rx_queue_[rx_queue_head_].priority;
 80011ea:	783b      	ldrb	r3, [r7, #0]
    uint8_t best_index = rx_queue_head_;
 80011ec:	b2e4      	uxtb	r4, r4
    RxPriority best_priority = rx_queue_[rx_queue_head_].priority;
 80011ee:	436b      	muls	r3, r5
 80011f0:	5d99      	ldrb	r1, [r3, r6]
    for (uint8_t i = 0; i < rx_queue_count_; i++) {
 80011f2:	9b01      	ldr	r3, [sp, #4]
 80011f4:	781b      	ldrb	r3, [r3, #0]
 80011f6:	429a      	cmp	r2, r3
 80011f8:	d317      	bcc.n	800122a <_ZN12CanMessenger16dequeueRxMessageERNS_11RxQueueItemE+0x5a>
            best_priority = rx_queue_[check_index].priority;
            best_index = check_index;
        }
    }
    
    item = rx_queue_[best_index];
 80011fa:	251c      	movs	r5, #28
 80011fc:	0029      	movs	r1, r5
 80011fe:	4361      	muls	r1, r4
 8001200:	2219      	movs	r2, #25
 8001202:	4660      	mov	r0, ip
 8001204:	1871      	adds	r1, r6, r1
 8001206:	f003 faf3 	bl	80047f0 <memcpy>
    
    if (best_index != rx_queue_head_) {
 800120a:	783b      	ldrb	r3, [r7, #0]
 800120c:	42a3      	cmp	r3, r4
 800120e:	d12f      	bne.n	8001270 <_ZN12CanMessenger16dequeueRxMessageERNS_11RxQueueItemE+0xa0>
            rx_queue_[best_index] = rx_queue_[prev_index];
            best_index = prev_index;
        }
    }
    
    rx_queue_head_ = (rx_queue_head_ + 1) % RX_QUEUE_SIZE_;
 8001210:	220f      	movs	r2, #15
    rx_queue_count_--;
 8001212:	2001      	movs	r0, #1
    rx_queue_head_ = (rx_queue_head_ + 1) % RX_QUEUE_SIZE_;
 8001214:	783b      	ldrb	r3, [r7, #0]
 8001216:	3301      	adds	r3, #1
 8001218:	4013      	ands	r3, r2
 800121a:	703b      	strb	r3, [r7, #0]
    rx_queue_count_--;
 800121c:	9b01      	ldr	r3, [sp, #4]
 800121e:	9a01      	ldr	r2, [sp, #4]
 8001220:	781b      	ldrb	r3, [r3, #0]
 8001222:	3b01      	subs	r3, #1
 8001224:	b2db      	uxtb	r3, r3
 8001226:	7013      	strb	r3, [r2, #0]
    
    return true;
}
 8001228:	bdfe      	pop	{r1, r2, r3, r4, r5, r6, r7, pc}
        uint8_t check_index = (rx_queue_head_ + i) % RX_QUEUE_SIZE_;
 800122a:	200f      	movs	r0, #15
 800122c:	783b      	ldrb	r3, [r7, #0]
 800122e:	189b      	adds	r3, r3, r2
 8001230:	4003      	ands	r3, r0
        if (rx_queue_[check_index].priority < best_priority) {
 8001232:	0028      	movs	r0, r5
 8001234:	4358      	muls	r0, r3
 8001236:	5c30      	ldrb	r0, [r6, r0]
 8001238:	4288      	cmp	r0, r1
 800123a:	d301      	bcc.n	8001240 <_ZN12CanMessenger16dequeueRxMessageERNS_11RxQueueItemE+0x70>
 800123c:	0008      	movs	r0, r1
 800123e:	0023      	movs	r3, r4
    for (uint8_t i = 0; i < rx_queue_count_; i++) {
 8001240:	3201      	adds	r2, #1
 8001242:	0001      	movs	r1, r0
 8001244:	001c      	movs	r4, r3
 8001246:	b2d2      	uxtb	r2, r2
 8001248:	e7d3      	b.n	80011f2 <_ZN12CanMessenger16dequeueRxMessageERNS_11RxQueueItemE+0x22>
            uint8_t prev_index = (best_index - 1 + RX_QUEUE_SIZE_) % RX_QUEUE_SIZE_;
 800124a:	0021      	movs	r1, r4
 800124c:	230f      	movs	r3, #15
 800124e:	310f      	adds	r1, #15
 8001250:	400b      	ands	r3, r1
 8001252:	469c      	mov	ip, r3
            rx_queue_[best_index] = rx_queue_[prev_index];
 8001254:	002b      	movs	r3, r5
 8001256:	4662      	mov	r2, ip
 8001258:	436c      	muls	r4, r5
 800125a:	1934      	adds	r4, r6, r4
 800125c:	4353      	muls	r3, r2
 800125e:	0022      	movs	r2, r4
 8001260:	18f3      	adds	r3, r6, r3
 8001262:	cb13      	ldmia	r3!, {r0, r1, r4}
 8001264:	c213      	stmia	r2!, {r0, r1, r4}
 8001266:	cb13      	ldmia	r3!, {r0, r1, r4}
 8001268:	c213      	stmia	r2!, {r0, r1, r4}
            best_index = prev_index;
 800126a:	4664      	mov	r4, ip
            rx_queue_[best_index] = rx_queue_[prev_index];
 800126c:	781b      	ldrb	r3, [r3, #0]
 800126e:	7013      	strb	r3, [r2, #0]
        while (best_index != rx_queue_head_) {
 8001270:	783b      	ldrb	r3, [r7, #0]
 8001272:	429c      	cmp	r4, r3
 8001274:	d1e9      	bne.n	800124a <_ZN12CanMessenger16dequeueRxMessageERNS_11RxQueueItemE+0x7a>
 8001276:	e7cb      	b.n	8001210 <_ZN12CanMessenger16dequeueRxMessageERNS_11RxQueueItemE+0x40>
 8001278:	20000140 	.word	0x20000140
 800127c:	20000142 	.word	0x20000142
 8001280:	20000144 	.word	0x20000144

08001284 <_ZN12CanMessenger17sendQueuedMessageERKNS_11TxQueueItemE>:

InterfaceStatus CanMessenger::sendQueuedMessage(const TxQueueItem& item) {
	if (comm_can_ == nullptr) {
 8001284:	6803      	ldr	r3, [r0, #0]
InterfaceStatus CanMessenger::sendQueuedMessage(const TxQueueItem& item) {
 8001286:	b573      	push	{r0, r1, r4, r5, r6, lr}
 8001288:	0005      	movs	r5, r0
 800128a:	000c      	movs	r4, r1
		return InterfaceStatus::INTERFACE_ERROR;
 800128c:	2001      	movs	r0, #1
	if (comm_can_ == nullptr) {
 800128e:	2b00      	cmp	r3, #0
 8001290:	d022      	beq.n	80012d8 <_ZN12CanMessenger17sendQueuedMessageERKNS_11TxQueueItemE+0x54>
 8001292:	466e      	mov	r6, sp
	}

    const bluelink::J1939CanIdStruct can_id(
        source_component_id_,
 8001294:	7928      	ldrb	r0, [r5, #4]
		item.destination_id,
 8001296:	7889      	ldrb	r1, [r1, #2]
		item.payload_type_id);
 8001298:	7862      	ldrb	r2, [r4, #1]
 800129a:	7030      	strb	r0, [r6, #0]
 800129c:	7071      	strb	r1, [r6, #1]
 800129e:	70b2      	strb	r2, [r6, #2]
 80012a0:	4668      	mov	r0, sp
 80012a2:	2600      	movs	r6, #0

	comm_can_->setTxCanIdType(CommCan::CanIdType::CAN_ID_TYPE_EXT);
 80012a4:	2204      	movs	r2, #4
 80012a6:	70c6      	strb	r6, [r0, #3]
 80012a8:	a901      	add	r1, sp, #4
 80012aa:	0018      	movs	r0, r3
 80012ac:	9201      	str	r2, [sp, #4]
 80012ae:	f000 fa2f 	bl	8001710 <_ZN7CommCan14setTxCanIdTypeERKNS_9CanIdTypeE>
	comm_can_->setTxCanId(CONVERT_CAN_ID_TO_UINT32(can_id));
 80012b2:	4669      	mov	r1, sp
 80012b4:	6828      	ldr	r0, [r5, #0]
 80012b6:	f000 fa0d 	bl	80016d4 <_ZN7CommCan10setTxCanIdERKm>
	comm_can_->setTxDlc(item.length);
 80012ba:	7ae1      	ldrb	r1, [r4, #11]
 80012bc:	6828      	ldr	r0, [r5, #0]
 80012be:	f000 fa20 	bl	8001702 <_ZN7CommCan8setTxDlcEh>
	comm_can_->setTxRtrType(CommCan::CanRtrType::CAN_RTR_DATA_TYPE);
 80012c2:	a901      	add	r1, sp, #4
 80012c4:	6828      	ldr	r0, [r5, #0]
 80012c6:	9601      	str	r6, [sp, #4]
 80012c8:	f000 fa26 	bl	8001718 <_ZN7CommCan12setTxRtrTypeERKNS_10CanRtrTypeE>

	InterfaceStatus result = comm_can_->startTransmitInterrupt(item.data, item.length);
 80012cc:	6828      	ldr	r0, [r5, #0]
 80012ce:	7ae2      	ldrb	r2, [r4, #11]
 80012d0:	6803      	ldr	r3, [r0, #0]
 80012d2:	1ce1      	adds	r1, r4, #3
 80012d4:	685b      	ldr	r3, [r3, #4]
 80012d6:	4798      	blx	r3

	return result;
}
 80012d8:	bd76      	pop	{r1, r2, r4, r5, r6, pc}
	...

080012dc <_ZN12CanMessenger25processQueueFromInterruptEv>:
void CanMessenger::processQueueFromInterrupt() {
 80012dc:	b530      	push	{r4, r5, lr}
 80012de:	0004      	movs	r4, r0
    uint8_t messages_sent = 0;
 80012e0:	2500      	movs	r5, #0
void CanMessenger::processQueueFromInterrupt() {
 80012e2:	b087      	sub	sp, #28
  inline bool isTxQueueEmpty() const { return tx_queue_count_ == 0; }
 80012e4:	4b13      	ldr	r3, [pc, #76]	@ (8001334 <_ZN12CanMessenger25processQueueFromInterruptEv+0x58>)
 80012e6:	781b      	ldrb	r3, [r3, #0]
    while (not isTxQueueEmpty() and messages_sent < MAX_INTERRUPT_SENDS_) {
 80012e8:	2b00      	cmp	r3, #0
 80012ea:	d014      	beq.n	8001316 <_ZN12CanMessenger25processQueueFromInterruptEv+0x3a>
 80012ec:	2d02      	cmp	r5, #2
 80012ee:	d012      	beq.n	8001316 <_ZN12CanMessenger25processQueueFromInterruptEv+0x3a>
        TxQueueItem item;
 80012f0:	a801      	add	r0, sp, #4
 80012f2:	f7ff fe04 	bl	8000efe <_ZN12CanMessenger11TxQueueItemC1Ev>
        if (not dequeueTxMessage(item)) {
 80012f6:	0020      	movs	r0, r4
 80012f8:	a901      	add	r1, sp, #4
 80012fa:	f7ff ff0f 	bl	800111c <_ZN12CanMessenger16dequeueTxMessageERNS_11TxQueueItemE>
 80012fe:	2800      	cmp	r0, #0
 8001300:	d009      	beq.n	8001316 <_ZN12CanMessenger25processQueueFromInterruptEv+0x3a>
        InterfaceStatus result = sendQueuedMessage(item);
 8001302:	0020      	movs	r0, r4
 8001304:	a901      	add	r1, sp, #4
 8001306:	f7ff ffbd 	bl	8001284 <_ZN12CanMessenger17sendQueuedMessageERKNS_11TxQueueItemE>
        if (result == InterfaceStatus::INTERFACE_BUSY) {
 800130a:	2802      	cmp	r0, #2
 800130c:	d105      	bne.n	800131a <_ZN12CanMessenger25processQueueFromInterruptEv+0x3e>
            insertTxWithPriority(item);
 800130e:	0020      	movs	r0, r4
 8001310:	a901      	add	r1, sp, #4
 8001312:	f7ff fe13 	bl	8000f3c <_ZN12CanMessenger20insertTxWithPriorityERKNS_11TxQueueItemE>
}
 8001316:	b007      	add	sp, #28
 8001318:	bd30      	pop	{r4, r5, pc}
        } else if (result == InterfaceStatus::INTERFACE_OK) {
 800131a:	2800      	cmp	r0, #0
 800131c:	d1e2      	bne.n	80012e4 <_ZN12CanMessenger25processQueueFromInterruptEv+0x8>
            stats_.tx_messages_sent++;
 800131e:	4b06      	ldr	r3, [pc, #24]	@ (8001338 <_ZN12CanMessenger25processQueueFromInterruptEv+0x5c>)
            messages_sent++;
 8001320:	3501      	adds	r5, #1
            stats_.tx_messages_sent++;
 8001322:	685a      	ldr	r2, [r3, #4]
            messages_sent++;
 8001324:	b2ed      	uxtb	r5, r5
            stats_.tx_messages_sent++;
 8001326:	3201      	adds	r2, #1
 8001328:	605a      	str	r2, [r3, #4]
            stats_.tx_interrupt_sends++;
 800132a:	691a      	ldr	r2, [r3, #16]
 800132c:	3201      	adds	r2, #1
 800132e:	611a      	str	r2, [r3, #16]
            messages_sent++;
 8001330:	e7d8      	b.n	80012e4 <_ZN12CanMessenger25processQueueFromInterruptEv+0x8>
 8001332:	46c0      	nop			@ (mov r8, r8)
 8001334:	20000304 	.word	0x20000304
 8001338:	20000118 	.word	0x20000118

0800133c <_ZN12CanMessenger19determineRxPriorityEh>:

CanMessenger::RxPriority CanMessenger::determineRxPriority(uint8_t payload_type_id) {
    switch (static_cast<bluelink::PayloadTypeIds>(payload_type_id)) {
 800133c:	3822      	subs	r0, #34	@ 0x22
 800133e:	b2c3      	uxtb	r3, r0
CanMessenger::RxPriority CanMessenger::determineRxPriority(uint8_t payload_type_id) {
 8001340:	2006      	movs	r0, #6
 8001342:	2b2a      	cmp	r3, #42	@ 0x2a
 8001344:	d801      	bhi.n	800134a <_ZN12CanMessenger19determineRxPriorityEh+0xe>
 8001346:	4a01      	ldr	r2, [pc, #4]	@ (800134c <_ZN12CanMessenger19determineRxPriorityEh+0x10>)
 8001348:	5cd0      	ldrb	r0, [r2, r3]
    case bluelink::PayloadTypeIds::TRANSM_OUT_SPD_TELEMETRY:
        return RxPriority::TRANSM_OUT_SPD_TELEMETRY;
    default:
        return RxPriority::DEFAULT_RX_PRIORITY;
    }
}
 800134a:	4770      	bx	lr
 800134c:	08004880 	.word	0x08004880

08001350 <_ZN12CanMessenger19determineTxPriorityEh>:

CanMessenger::TxPriority CanMessenger::determineTxPriority(uint8_t payload_type_id) {
    switch (static_cast<bluelink::PayloadTypeIds>(payload_type_id)) {
 8001350:	3823      	subs	r0, #35	@ 0x23
 8001352:	b2c3      	uxtb	r3, r0
CanMessenger::TxPriority CanMessenger::determineTxPriority(uint8_t payload_type_id) {
 8001354:	2004      	movs	r0, #4
 8001356:	2b1b      	cmp	r3, #27
 8001358:	d801      	bhi.n	800135e <_ZN12CanMessenger19determineTxPriorityEh+0xe>
 800135a:	4a01      	ldr	r2, [pc, #4]	@ (8001360 <_ZN12CanMessenger19determineTxPriorityEh+0x10>)
 800135c:	5cd0      	ldrb	r0, [r2, r3]
    case bluelink::PayloadTypeIds::REVERSER_ANALOG_CHANNEL_TELEMETRY:
        return TxPriority::ANALOG_TELEMETRY;
    default:
        return TxPriority::DEFAULT_TX_PRIORITY;
    }
}
 800135e:	4770      	bx	lr
 8001360:	08004864 	.word	0x08004864

08001364 <_ZN12CanMessenger20enterCriticalSectionEv>:
  __ASM volatile ("MRS %0, primask" : "=r" (result) :: "memory");
 8001364:	f3ef 8310 	mrs	r3, PRIMASK
    
    exitCriticalSection();
}

void CanMessenger::enterCriticalSection() {
    critical_section_state_ = __get_PRIMASK();
 8001368:	6083      	str	r3, [r0, #8]
  __ASM volatile ("cpsid i" : : : "memory");
 800136a:	b672      	cpsid	i
    __disable_irq();
}
 800136c:	4770      	bx	lr
	...

08001370 <_ZN12CanMessenger16enqueueTxMessageERK19CAN_TxHeaderTypeDefPKhh>:
bool CanMessenger::enqueueTxMessage(const CAN_TxHeaderTypeDef& tx_header, const uint8_t* data, uint8_t length) {
 8001370:	b5f0      	push	{r4, r5, r6, r7, lr}
 8001372:	b08b      	sub	sp, #44	@ 0x2c
 8001374:	0005      	movs	r5, r0
 8001376:	000f      	movs	r7, r1
 8001378:	9203      	str	r2, [sp, #12]
 800137a:	9301      	str	r3, [sp, #4]
    if (data == nullptr or length == 0 or length > 8) {
 800137c:	2a00      	cmp	r2, #0
 800137e:	d010      	beq.n	80013a2 <_ZN12CanMessenger16enqueueTxMessageERK19CAN_TxHeaderTypeDefPKhh+0x32>
 8001380:	9b01      	ldr	r3, [sp, #4]
 8001382:	3b01      	subs	r3, #1
 8001384:	2b07      	cmp	r3, #7
 8001386:	d80c      	bhi.n	80013a2 <_ZN12CanMessenger16enqueueTxMessageERK19CAN_TxHeaderTypeDefPKhh+0x32>
    enterCriticalSection();
 8001388:	f7ff ffec 	bl	8001364 <_ZN12CanMessenger20enterCriticalSectionEv>
  inline bool isTxQueueFull() const { return tx_queue_count_ >= TX_QUEUE_SIZE_; }
 800138c:	4b1a      	ldr	r3, [pc, #104]	@ (80013f8 <_ZN12CanMessenger16enqueueTxMessageERK19CAN_TxHeaderTypeDefPKhh+0x88>)
 800138e:	4e1b      	ldr	r6, [pc, #108]	@ (80013fc <_ZN12CanMessenger16enqueueTxMessageERK19CAN_TxHeaderTypeDefPKhh+0x8c>)
 8001390:	781b      	ldrb	r3, [r3, #0]
    if (isTxQueueFull()) {
 8001392:	2b1f      	cmp	r3, #31
 8001394:	d908      	bls.n	80013a8 <_ZN12CanMessenger16enqueueTxMessageERK19CAN_TxHeaderTypeDefPKhh+0x38>
        stats_.tx_queue_full_drops++;
 8001396:	68b3      	ldr	r3, [r6, #8]
 8001398:	3301      	adds	r3, #1
 800139a:	60b3      	str	r3, [r6, #8]
  __ASM volatile ("MSR primask, %0" : : "r" (priMask) : "memory");
 800139c:	68ab      	ldr	r3, [r5, #8]
 800139e:	f383 8810 	msr	PRIMASK, r3
        return false;
 80013a2:	2000      	movs	r0, #0
}
 80013a4:	b00b      	add	sp, #44	@ 0x2c
 80013a6:	bdf0      	pop	{r4, r5, r6, r7, pc}
    TxQueueItem new_item;
 80013a8:	ac05      	add	r4, sp, #20
 80013aa:	0020      	movs	r0, r4
 80013ac:	f7ff fda7 	bl	8000efe <_ZN12CanMessenger11TxQueueItemC1Ev>
    new_item.priority = determineTxPriority(can_id->payload_type);
 80013b0:	79bb      	ldrb	r3, [r7, #6]
 80013b2:	0018      	movs	r0, r3
 80013b4:	9302      	str	r3, [sp, #8]
 80013b6:	f7ff ffcb 	bl	8001350 <_ZN12CanMessenger19determineTxPriorityEh>
    new_item.payload_type_id = can_id->payload_type;  
 80013ba:	9b02      	ldr	r3, [sp, #8]
    new_item.priority = determineTxPriority(can_id->payload_type);
 80013bc:	7020      	strb	r0, [r4, #0]
    new_item.payload_type_id = can_id->payload_type;  
 80013be:	7063      	strb	r3, [r4, #1]
    new_item.destination_id = can_id->destination_id;
 80013c0:	797b      	ldrb	r3, [r7, #5]
    new_item.pending = true;
 80013c2:	2701      	movs	r7, #1
    new_item.destination_id = can_id->destination_id;
 80013c4:	70a3      	strb	r3, [r4, #2]
    new_item.length = length;
 80013c6:	9b01      	ldr	r3, [sp, #4]
 80013c8:	72e3      	strb	r3, [r4, #11]
    new_item.timestamp = HAL_GetTick();
 80013ca:	f000 fca9 	bl	8001d20 <HAL_GetTick>
    memcpy(new_item.data, data, length);
 80013ce:	ab04      	add	r3, sp, #16
 80013d0:	9a01      	ldr	r2, [sp, #4]
 80013d2:	9903      	ldr	r1, [sp, #12]
    new_item.timestamp = HAL_GetTick();
 80013d4:	9008      	str	r0, [sp, #32]
    memcpy(new_item.data, data, length);
 80013d6:	1dd8      	adds	r0, r3, #7
    new_item.pending = true;
 80013d8:	7427      	strb	r7, [r4, #16]
    memcpy(new_item.data, data, length);
 80013da:	f003 fa09 	bl	80047f0 <memcpy>
    insertTxWithPriority(new_item);
 80013de:	0021      	movs	r1, r4
 80013e0:	0028      	movs	r0, r5
 80013e2:	f7ff fdab 	bl	8000f3c <_ZN12CanMessenger20insertTxWithPriorityERKNS_11TxQueueItemE>
    stats_.tx_messages_enqueued++;
 80013e6:	6833      	ldr	r3, [r6, #0]
 80013e8:	19db      	adds	r3, r3, r7
 80013ea:	6033      	str	r3, [r6, #0]
 80013ec:	68ab      	ldr	r3, [r5, #8]
 80013ee:	f383 8810 	msr	PRIMASK, r3
    return true;
 80013f2:	0038      	movs	r0, r7
 80013f4:	e7d6      	b.n	80013a4 <_ZN12CanMessenger16enqueueTxMessageERK19CAN_TxHeaderTypeDefPKhh+0x34>
 80013f6:	46c0      	nop			@ (mov r8, r8)
 80013f8:	20000304 	.word	0x20000304
 80013fc:	20000118 	.word	0x20000118

08001400 <_ZN12CanMessenger29enqueueRxMessageFromInterruptERK19CAN_RxHeaderTypeDefPKhh>:
bool CanMessenger::enqueueRxMessageFromInterrupt(const CAN_RxHeaderTypeDef& rx_header, const uint8_t* data, uint8_t length) {
 8001400:	b5f0      	push	{r4, r5, r6, r7, lr}
 8001402:	b08d      	sub	sp, #52	@ 0x34
 8001404:	0005      	movs	r5, r0
 8001406:	000f      	movs	r7, r1
 8001408:	9202      	str	r2, [sp, #8]
 800140a:	9301      	str	r3, [sp, #4]
    if (data == nullptr or length == 0 or length > 8) {
 800140c:	2a00      	cmp	r2, #0
 800140e:	d00b      	beq.n	8001428 <_ZN12CanMessenger29enqueueRxMessageFromInterruptERK19CAN_RxHeaderTypeDefPKhh+0x28>
 8001410:	9b01      	ldr	r3, [sp, #4]
 8001412:	3b01      	subs	r3, #1
 8001414:	2b07      	cmp	r3, #7
 8001416:	d807      	bhi.n	8001428 <_ZN12CanMessenger29enqueueRxMessageFromInterruptERK19CAN_RxHeaderTypeDefPKhh+0x28>
  inline bool isRxQueueFull() const { return rx_queue_count_ >= RX_QUEUE_SIZE_; }
 8001418:	4c22      	ldr	r4, [pc, #136]	@ (80014a4 <_ZN12CanMessenger29enqueueRxMessageFromInterruptERK19CAN_RxHeaderTypeDefPKhh+0xa4>)
 800141a:	4e23      	ldr	r6, [pc, #140]	@ (80014a8 <_ZN12CanMessenger29enqueueRxMessageFromInterruptERK19CAN_RxHeaderTypeDefPKhh+0xa8>)
 800141c:	7823      	ldrb	r3, [r4, #0]
    if (isRxQueueFull()) {
 800141e:	2b0f      	cmp	r3, #15
 8001420:	d905      	bls.n	800142e <_ZN12CanMessenger29enqueueRxMessageFromInterruptERK19CAN_RxHeaderTypeDefPKhh+0x2e>
        stats_.rx_queue_full_drops++;
 8001422:	6a33      	ldr	r3, [r6, #32]
 8001424:	3301      	adds	r3, #1
 8001426:	6233      	str	r3, [r6, #32]
        return false;
 8001428:	2000      	movs	r0, #0
}
 800142a:	b00d      	add	sp, #52	@ 0x34
 800142c:	bdf0      	pop	{r4, r5, r6, r7, pc}
    enterCriticalSection();
 800142e:	f7ff ff99 	bl	8001364 <_ZN12CanMessenger20enterCriticalSectionEv>
 8001432:	7823      	ldrb	r3, [r4, #0]
    if (isRxQueueFull()) {
 8001434:	2b0f      	cmp	r3, #15
 8001436:	d906      	bls.n	8001446 <_ZN12CanMessenger29enqueueRxMessageFromInterruptERK19CAN_RxHeaderTypeDefPKhh+0x46>
        stats_.rx_queue_full_drops++;
 8001438:	6a33      	ldr	r3, [r6, #32]
 800143a:	3301      	adds	r3, #1
 800143c:	6233      	str	r3, [r6, #32]
 800143e:	68ab      	ldr	r3, [r5, #8]
 8001440:	f383 8810 	msr	PRIMASK, r3
        return false;
 8001444:	e7f0      	b.n	8001428 <_ZN12CanMessenger29enqueueRxMessageFromInterruptERK19CAN_RxHeaderTypeDefPKhh+0x28>
    RxQueueItem new_item;
 8001446:	ac05      	add	r4, sp, #20
 8001448:	0020      	movs	r0, r4
 800144a:	f7ff fd67 	bl	8000f1c <_ZN12CanMessenger11RxQueueItemC1Ev>
    new_item.priority = determineRxPriority(can_id->payload_type);
 800144e:	79bb      	ldrb	r3, [r7, #6]
 8001450:	0018      	movs	r0, r3
 8001452:	9303      	str	r3, [sp, #12]
 8001454:	f7ff ff72 	bl	800133c <_ZN12CanMessenger19determineRxPriorityEh>
    new_item.payload_type_id = can_id->payload_type;
 8001458:	9b03      	ldr	r3, [sp, #12]
    new_item.priority = determineRxPriority(can_id->payload_type);
 800145a:	7020      	strb	r0, [r4, #0]
    new_item.payload_type_id = can_id->payload_type;
 800145c:	7063      	strb	r3, [r4, #1]
    new_item.source_id = can_id->source_id;
 800145e:	88bb      	ldrh	r3, [r7, #4]
 8001460:	8063      	strh	r3, [r4, #2]
    new_item.length = length;
 8001462:	9b01      	ldr	r3, [sp, #4]
 8001464:	7323      	strb	r3, [r4, #12]
    new_item.timestamp = HAL_GetTick();
 8001466:	f000 fc5b 	bl	8001d20 <HAL_GetTick>
    new_item.can_id = rx_header.ExtId;
 800146a:	687b      	ldr	r3, [r7, #4]
    new_item.timestamp = HAL_GetTick();
 800146c:	6120      	str	r0, [r4, #16]
    new_item.can_id = rx_header.ExtId;
 800146e:	6163      	str	r3, [r4, #20]
    new_item.pending = true;
 8001470:	2301      	movs	r3, #1
 8001472:	7623      	strb	r3, [r4, #24]
    if (length <= 4) {
 8001474:	9b01      	ldr	r3, [sp, #4]
 8001476:	2b04      	cmp	r3, #4
 8001478:	d80e      	bhi.n	8001498 <_ZN12CanMessenger29enqueueRxMessageFromInterruptERK19CAN_RxHeaderTypeDefPKhh+0x98>
        *dst32 = *src32;
 800147a:	9b02      	ldr	r3, [sp, #8]
 800147c:	681b      	ldr	r3, [r3, #0]
 800147e:	9306      	str	r3, [sp, #24]
    insertRxWithPriority(new_item);
 8001480:	0021      	movs	r1, r4
 8001482:	0028      	movs	r0, r5
 8001484:	f7ff fdd2 	bl	800102c <_ZN12CanMessenger20insertRxWithPriorityERKNS_11RxQueueItemE>
    stats_.rx_messages_enqueued++;
 8001488:	69b3      	ldr	r3, [r6, #24]
 800148a:	3301      	adds	r3, #1
 800148c:	61b3      	str	r3, [r6, #24]
 800148e:	68ab      	ldr	r3, [r5, #8]
 8001490:	f383 8810 	msr	PRIMASK, r3
    return true;
 8001494:	2001      	movs	r0, #1
 8001496:	e7c8      	b.n	800142a <_ZN12CanMessenger29enqueueRxMessageFromInterruptERK19CAN_RxHeaderTypeDefPKhh+0x2a>
        memcpy(new_item.data, data, length);
 8001498:	9a01      	ldr	r2, [sp, #4]
 800149a:	9902      	ldr	r1, [sp, #8]
 800149c:	a806      	add	r0, sp, #24
 800149e:	f003 f9a7 	bl	80047f0 <memcpy>
 80014a2:	e7ed      	b.n	8001480 <_ZN12CanMessenger29enqueueRxMessageFromInterruptERK19CAN_RxHeaderTypeDefPKhh+0x80>
 80014a4:	20000140 	.word	0x20000140
 80014a8:	20000118 	.word	0x20000118

080014ac <_ZN12CanMessenger16getNextRxMessageERNS_11RxQueueItemE>:
bool CanMessenger::getNextRxMessage(RxQueueItem& item) {
 80014ac:	b570      	push	{r4, r5, r6, lr}
 80014ae:	0004      	movs	r4, r0
 80014b0:	000d      	movs	r5, r1
    enterCriticalSection();
 80014b2:	f7ff ff57 	bl	8001364 <_ZN12CanMessenger20enterCriticalSectionEv>
    bool dequeued = dequeueRxMessage(item);
 80014b6:	0029      	movs	r1, r5
 80014b8:	0020      	movs	r0, r4
 80014ba:	f7ff fe89 	bl	80011d0 <_ZN12CanMessenger16dequeueRxMessageERNS_11RxQueueItemE>
 80014be:	68a3      	ldr	r3, [r4, #8]
 80014c0:	f383 8810 	msr	PRIMASK, r3
    if (dequeued) {
 80014c4:	2800      	cmp	r0, #0
 80014c6:	d006      	beq.n	80014d6 <_ZN12CanMessenger16getNextRxMessageERNS_11RxQueueItemE+0x2a>
        stats_.rx_messages_processed++;
 80014c8:	4b03      	ldr	r3, [pc, #12]	@ (80014d8 <_ZN12CanMessenger16getNextRxMessageERNS_11RxQueueItemE+0x2c>)
 80014ca:	69da      	ldr	r2, [r3, #28]
 80014cc:	3201      	adds	r2, #1
 80014ce:	61da      	str	r2, [r3, #28]
        stats_.rx_tick_processes++;
 80014d0:	6a5a      	ldr	r2, [r3, #36]	@ 0x24
 80014d2:	3201      	adds	r2, #1
 80014d4:	625a      	str	r2, [r3, #36]	@ 0x24
}
 80014d6:	bd70      	pop	{r4, r5, r6, pc}
 80014d8:	20000118 	.word	0x20000118

080014dc <_ZN12CanMessenger20processQueueFromTickEv>:
void CanMessenger::processQueueFromTick() {
 80014dc:	b5f0      	push	{r4, r5, r6, r7, lr}
    if (comm_can_ == nullptr) {
 80014de:	6803      	ldr	r3, [r0, #0]
void CanMessenger::processQueueFromTick() {
 80014e0:	0005      	movs	r5, r0
 80014e2:	2604      	movs	r6, #4
 80014e4:	b08b      	sub	sp, #44	@ 0x2c
    if (comm_can_ == nullptr) {
 80014e6:	2b00      	cmp	r3, #0
 80014e8:	d10a      	bne.n	8001500 <_ZN12CanMessenger20processQueueFromTickEv+0x24>
}
 80014ea:	b00b      	add	sp, #44	@ 0x2c
 80014ec:	bdf0      	pop	{r4, r5, r6, r7, pc}
        } else if (result == InterfaceStatus::INTERFACE_OK) {
 80014ee:	2800      	cmp	r0, #0
 80014f0:	d106      	bne.n	8001500 <_ZN12CanMessenger20processQueueFromTickEv+0x24>
            stats_.tx_messages_sent++;
 80014f2:	4b1f      	ldr	r3, [pc, #124]	@ (8001570 <_ZN12CanMessenger20processQueueFromTickEv+0x94>)
 80014f4:	685a      	ldr	r2, [r3, #4]
 80014f6:	3201      	adds	r2, #1
 80014f8:	605a      	str	r2, [r3, #4]
            stats_.tx_tick_sends++;
 80014fa:	695a      	ldr	r2, [r3, #20]
 80014fc:	3201      	adds	r2, #1
 80014fe:	615a      	str	r2, [r3, #20]
  inline bool isTxQueueEmpty() const { return tx_queue_count_ == 0; }
 8001500:	4b1c      	ldr	r3, [pc, #112]	@ (8001574 <_ZN12CanMessenger20processQueueFromTickEv+0x98>)
 8001502:	781b      	ldrb	r3, [r3, #0]
    while (not isTxQueueEmpty() and messages_processed < MAX_TICK_MESSAGES) {
 8001504:	2b00      	cmp	r3, #0
 8001506:	d0f0      	beq.n	80014ea <_ZN12CanMessenger20processQueueFromTickEv+0xe>
 8001508:	3e01      	subs	r6, #1
 800150a:	b2f6      	uxtb	r6, r6
 800150c:	2e00      	cmp	r6, #0
 800150e:	d0ec      	beq.n	80014ea <_ZN12CanMessenger20processQueueFromTickEv+0xe>
  bool isMailboxesAvailable() const { return active_tx_mailboxes_ != 0x07; }
 8001510:	4b19      	ldr	r3, [pc, #100]	@ (8001578 <_ZN12CanMessenger20processQueueFromTickEv+0x9c>)
        if (not comm_can_->isMailboxesAvailable()) {
 8001512:	681b      	ldr	r3, [r3, #0]
 8001514:	2b07      	cmp	r3, #7
 8001516:	d0e8      	beq.n	80014ea <_ZN12CanMessenger20processQueueFromTickEv+0xe>
        TxQueueItem item;
 8001518:	466c      	mov	r4, sp
 800151a:	0020      	movs	r0, r4
 800151c:	f7ff fcef 	bl	8000efe <_ZN12CanMessenger11TxQueueItemC1Ev>
        enterCriticalSection();
 8001520:	0028      	movs	r0, r5
 8001522:	f7ff ff1f 	bl	8001364 <_ZN12CanMessenger20enterCriticalSectionEv>
        bool dequeued = dequeueTxMessage(item);
 8001526:	0021      	movs	r1, r4
 8001528:	0028      	movs	r0, r5
 800152a:	f7ff fdf7 	bl	800111c <_ZN12CanMessenger16dequeueTxMessageERNS_11TxQueueItemE>
 800152e:	68ab      	ldr	r3, [r5, #8]
 8001530:	f383 8810 	msr	PRIMASK, r3
        if (not dequeued) {
 8001534:	2800      	cmp	r0, #0
 8001536:	d0d8      	beq.n	80014ea <_ZN12CanMessenger20processQueueFromTickEv+0xe>
        InterfaceStatus result = sendQueuedMessage(item);
 8001538:	0021      	movs	r1, r4
 800153a:	0028      	movs	r0, r5
 800153c:	f7ff fea2 	bl	8001284 <_ZN12CanMessenger17sendQueuedMessageERKNS_11TxQueueItemE>
        if (result == InterfaceStatus::INTERFACE_BUSY) {
 8001540:	2802      	cmp	r0, #2
 8001542:	d1d4      	bne.n	80014ee <_ZN12CanMessenger20processQueueFromTickEv+0x12>
            TxPriority retry_priority = static_cast<TxPriority>(
 8001544:	7823      	ldrb	r3, [r4, #0]
 8001546:	3301      	adds	r3, #1
                if (retry_priority > TxPriority::ANALOG_TELEMETRY) {
 8001548:	1c1a      	adds	r2, r3, #0
 800154a:	b2db      	uxtb	r3, r3
 800154c:	2b03      	cmp	r3, #3
 800154e:	d900      	bls.n	8001552 <_ZN12CanMessenger20processQueueFromTickEv+0x76>
 8001550:	2203      	movs	r2, #3
            TxQueueItem retry_item = item;
 8001552:	a905      	add	r1, sp, #20
 8001554:	000b      	movs	r3, r1
 8001556:	ccc1      	ldmia	r4!, {r0, r6, r7}
 8001558:	c3c1      	stmia	r3!, {r0, r6, r7}
 800155a:	cc41      	ldmia	r4!, {r0, r6}
 800155c:	c341      	stmia	r3!, {r0, r6}
            insertTxWithPriority(retry_item);
 800155e:	0028      	movs	r0, r5
            retry_item.priority = retry_priority;
 8001560:	700a      	strb	r2, [r1, #0]
            insertTxWithPriority(retry_item);
 8001562:	f7ff fceb 	bl	8000f3c <_ZN12CanMessenger20insertTxWithPriorityERKNS_11TxQueueItemE>
            stats_.tx_busy_retries++;
 8001566:	4a02      	ldr	r2, [pc, #8]	@ (8001570 <_ZN12CanMessenger20processQueueFromTickEv+0x94>)
 8001568:	68d3      	ldr	r3, [r2, #12]
 800156a:	3301      	adds	r3, #1
 800156c:	60d3      	str	r3, [r2, #12]
            break;
 800156e:	e7bc      	b.n	80014ea <_ZN12CanMessenger20processQueueFromTickEv+0xe>
 8001570:	20000118 	.word	0x20000118
 8001574:	20000304 	.word	0x20000304
 8001578:	20000598 	.word	0x20000598

0800157c <_ZN12CanMessenger15resetStatisticsEv>:
void CanMessenger::resetStatistics() {
 800157c:	b510      	push	{r4, lr}
 800157e:	0004      	movs	r4, r0
    enterCriticalSection();
 8001580:	f7ff fef0 	bl	8001364 <_ZN12CanMessenger20enterCriticalSectionEv>
    stats_.tx_messages_enqueued = 0;
 8001584:	2200      	movs	r2, #0
 8001586:	4b07      	ldr	r3, [pc, #28]	@ (80015a4 <_ZN12CanMessenger15resetStatisticsEv+0x28>)
 8001588:	601a      	str	r2, [r3, #0]
    stats_.tx_messages_sent = 0;
 800158a:	605a      	str	r2, [r3, #4]
    stats_.tx_queue_full_drops = 0;
 800158c:	609a      	str	r2, [r3, #8]
    stats_.tx_busy_retries = 0;
 800158e:	60da      	str	r2, [r3, #12]
    stats_.tx_interrupt_sends = 0;
 8001590:	611a      	str	r2, [r3, #16]
    stats_.tx_tick_sends = 0;
 8001592:	615a      	str	r2, [r3, #20]
    stats_.rx_messages_enqueued = 0;
 8001594:	619a      	str	r2, [r3, #24]
    stats_.rx_messages_processed = 0;
 8001596:	61da      	str	r2, [r3, #28]
    stats_.rx_queue_full_drops = 0;
 8001598:	621a      	str	r2, [r3, #32]
    stats_.rx_tick_processes = 0;
 800159a:	625a      	str	r2, [r3, #36]	@ 0x24
 800159c:	68a3      	ldr	r3, [r4, #8]
 800159e:	f383 8810 	msr	PRIMASK, r3
}
 80015a2:	bd10      	pop	{r4, pc}
 80015a4:	20000118 	.word	0x20000118

080015a8 <_ZN12CanMessengerC1EP7CommCanN8bluelink11ComponentIdE>:
CanMessenger::CanMessenger(CommCan* comm_can, bluelink::ComponentId source_component_id)
 80015a8:	b5f0      	push	{r4, r5, r6, r7, lr}
 80015aa:	0006      	movs	r6, r0
 80015ac:	4b16      	ldr	r3, [pc, #88]	@ (8001608 <_ZN12CanMessengerC1EP7CommCanN8bluelink11ComponentIdE+0x60>)
 80015ae:	b08b      	sub	sp, #44	@ 0x2c
 80015b0:	4d16      	ldr	r5, [pc, #88]	@ (800160c <_ZN12CanMessengerC1EP7CommCanN8bluelink11ComponentIdE+0x64>)
    : comm_can_(comm_can), source_component_id_(source_component_id) {
 80015b2:	6001      	str	r1, [r0, #0]
 80015b4:	7102      	strb	r2, [r0, #4]
    for (uint8_t i = 0; i < TX_QUEUE_SIZE_; i++) {
 80015b6:	9301      	str	r3, [sp, #4]
        tx_queue_[i] = TxQueueItem();
 80015b8:	ac03      	add	r4, sp, #12
 80015ba:	0020      	movs	r0, r4
 80015bc:	f7ff fc9f 	bl	8000efe <_ZN12CanMessenger11TxQueueItemC1Ev>
 80015c0:	002b      	movs	r3, r5
 80015c2:	0022      	movs	r2, r4
 80015c4:	ca83      	ldmia	r2!, {r0, r1, r7}
 80015c6:	c383      	stmia	r3!, {r0, r1, r7}
 80015c8:	6811      	ldr	r1, [r2, #0]
    for (uint8_t i = 0; i < TX_QUEUE_SIZE_; i++) {
 80015ca:	3514      	adds	r5, #20
        tx_queue_[i] = TxQueueItem();
 80015cc:	6019      	str	r1, [r3, #0]
 80015ce:	7912      	ldrb	r2, [r2, #4]
 80015d0:	711a      	strb	r2, [r3, #4]
    for (uint8_t i = 0; i < TX_QUEUE_SIZE_; i++) {
 80015d2:	9b01      	ldr	r3, [sp, #4]
 80015d4:	429d      	cmp	r5, r3
 80015d6:	d1ef      	bne.n	80015b8 <_ZN12CanMessengerC1EP7CommCanN8bluelink11ComponentIdE+0x10>
 80015d8:	4b0d      	ldr	r3, [pc, #52]	@ (8001610 <_ZN12CanMessengerC1EP7CommCanN8bluelink11ComponentIdE+0x68>)
 80015da:	4d0e      	ldr	r5, [pc, #56]	@ (8001614 <_ZN12CanMessengerC1EP7CommCanN8bluelink11ComponentIdE+0x6c>)
 80015dc:	9301      	str	r3, [sp, #4]
        rx_queue_[i] = RxQueueItem();
 80015de:	0020      	movs	r0, r4
 80015e0:	f7ff fc9c 	bl	8000f1c <_ZN12CanMessenger11RxQueueItemC1Ev>
 80015e4:	002b      	movs	r3, r5
 80015e6:	0022      	movs	r2, r4
 80015e8:	ca83      	ldmia	r2!, {r0, r1, r7}
 80015ea:	c383      	stmia	r3!, {r0, r1, r7}
 80015ec:	ca83      	ldmia	r2!, {r0, r1, r7}
 80015ee:	c383      	stmia	r3!, {r0, r1, r7}
 80015f0:	7812      	ldrb	r2, [r2, #0]
    for (uint8_t i = 0; i < RX_QUEUE_SIZE_; i++) {
 80015f2:	351c      	adds	r5, #28
        rx_queue_[i] = RxQueueItem();
 80015f4:	701a      	strb	r2, [r3, #0]
    for (uint8_t i = 0; i < RX_QUEUE_SIZE_; i++) {
 80015f6:	9b01      	ldr	r3, [sp, #4]
 80015f8:	429d      	cmp	r5, r3
 80015fa:	d1f0      	bne.n	80015de <_ZN12CanMessengerC1EP7CommCanN8bluelink11ComponentIdE+0x36>
    resetStatistics();
 80015fc:	0030      	movs	r0, r6
 80015fe:	f7ff ffbd 	bl	800157c <_ZN12CanMessenger15resetStatisticsEv>
}
 8001602:	0030      	movs	r0, r6
 8001604:	b00b      	add	sp, #44	@ 0x2c
 8001606:	bdf0      	pop	{r4, r5, r6, r7, pc}
 8001608:	20000588 	.word	0x20000588
 800160c:	20000308 	.word	0x20000308
 8001610:	20000304 	.word	0x20000304
 8001614:	20000144 	.word	0x20000144

08001618 <_GLOBAL__sub_I__ZN12CanMessenger9tx_queue_E>:

void CanMessenger::exitCriticalSection() {
    __set_PRIMASK(critical_section_state_);
}
 8001618:	b570      	push	{r4, r5, r6, lr}
CanMessenger::TxQueueItem CanMessenger::tx_queue_[TX_QUEUE_SIZE_];
 800161a:	25a0      	movs	r5, #160	@ 0xa0
}
 800161c:	2400      	movs	r4, #0
CanMessenger::TxQueueItem CanMessenger::tx_queue_[TX_QUEUE_SIZE_];
 800161e:	00ad      	lsls	r5, r5, #2
 8001620:	4808      	ldr	r0, [pc, #32]	@ (8001644 <_GLOBAL__sub_I__ZN12CanMessenger9tx_queue_E+0x2c>)
 8001622:	1820      	adds	r0, r4, r0
 8001624:	3414      	adds	r4, #20
 8001626:	f7ff fc6a 	bl	8000efe <_ZN12CanMessenger11TxQueueItemC1Ev>
 800162a:	42ac      	cmp	r4, r5
 800162c:	d1f8      	bne.n	8001620 <_GLOBAL__sub_I__ZN12CanMessenger9tx_queue_E+0x8>
CanMessenger::RxQueueItem CanMessenger::rx_queue_[RX_QUEUE_SIZE_];
 800162e:	25e0      	movs	r5, #224	@ 0xe0
 8001630:	2400      	movs	r4, #0
 8001632:	006d      	lsls	r5, r5, #1
 8001634:	4804      	ldr	r0, [pc, #16]	@ (8001648 <_GLOBAL__sub_I__ZN12CanMessenger9tx_queue_E+0x30>)
 8001636:	1820      	adds	r0, r4, r0
 8001638:	341c      	adds	r4, #28
 800163a:	f7ff fc6f 	bl	8000f1c <_ZN12CanMessenger11RxQueueItemC1Ev>
 800163e:	42ac      	cmp	r4, r5
 8001640:	d1f8      	bne.n	8001634 <_GLOBAL__sub_I__ZN12CanMessenger9tx_queue_E+0x1c>
}
 8001642:	bd70      	pop	{r4, r5, r6, pc}
 8001644:	20000308 	.word	0x20000308
 8001648:	20000144 	.word	0x20000144

0800164c <_ZN7CommSpi19incrementErrorCountEv>:
void CommSpi::resetErrorCount() {
    consecutive_error_count_ = 0;
}

void CommSpi::incrementErrorCount() {
    if (consecutive_error_count_ < MAX_CONSECUTIVE_ERRORS_) {
 800164c:	7dc3      	ldrb	r3, [r0, #23]
 800164e:	2b02      	cmp	r3, #2
 8001650:	d801      	bhi.n	8001656 <_ZN7CommSpi19incrementErrorCountEv+0xa>
        consecutive_error_count_++;
 8001652:	3301      	adds	r3, #1
 8001654:	75c3      	strb	r3, [r0, #23]
    }
}
 8001656:	4770      	bx	lr

08001658 <_ZN7CommSpi14handleSpiErrorEv>:
void CommSpi::handleSpiError() {
 8001658:	b510      	push	{r4, lr}
 800165a:	0004      	movs	r4, r0
    incrementErrorCount();
 800165c:	f7ff fff6 	bl	800164c <_ZN7CommSpi19incrementErrorCountEv>
    spi_state_ = SpiState::ERROR;
 8001660:	2304      	movs	r3, #4
 8001662:	75a3      	strb	r3, [r4, #22]
}
 8001664:	bd10      	pop	{r4, pc}

08001666 <_ZN7CommCan18clearInterruptDataEv>:

    return InterfaceStatus::INTERFACE_OK;
}

void CommCan::clearInterruptData() {
    if (receive_size_) {
 8001666:	6883      	ldr	r3, [r0, #8]
 8001668:	2b00      	cmp	r3, #0
 800166a:	d001      	beq.n	8001670 <_ZN7CommCan18clearInterruptDataEv+0xa>
        *receive_size_ = 0;
 800166c:	2200      	movs	r2, #0
 800166e:	801a      	strh	r2, [r3, #0]
    }
}
 8001670:	4770      	bx	lr
	...

08001674 <_ZN7CommCan17initCanPeripheralEb>:
    if (handler_ == nullptr) {
 8001674:	6903      	ldr	r3, [r0, #16]
InterfaceStatus CommCan::initCanPeripheral(bool perform_reset) {
 8001676:	b570      	push	{r4, r5, r6, lr}
 8001678:	0005      	movs	r5, r0
        return InterfaceStatus::INTERFACE_ERROR;
 800167a:	2001      	movs	r0, #1
    if (handler_ == nullptr) {
 800167c:	2b00      	cmp	r3, #0
 800167e:	d00a      	beq.n	8001696 <_ZN7CommCan17initCanPeripheralEb+0x22>
    if (perform_reset) {
 8001680:	2900      	cmp	r1, #0
 8001682:	d109      	bne.n	8001698 <_ZN7CommCan17initCanPeripheralEb+0x24>
    can_state_ = CanState::INIT;
 8001684:	2400      	movs	r4, #0
 8001686:	4b0f      	ldr	r3, [pc, #60]	@ (80016c4 <_ZN7CommCan17initCanPeripheralEb+0x50>)
    clearInterruptData();
 8001688:	0028      	movs	r0, r5
    can_state_ = CanState::INIT;
 800168a:	601c      	str	r4, [r3, #0]

    return status;
}

void CommCan::resetErrorCount() {
    consecutive_error_count_ = 0;
 800168c:	4b0e      	ldr	r3, [pc, #56]	@ (80016c8 <_ZN7CommCan17initCanPeripheralEb+0x54>)
 800168e:	701c      	strb	r4, [r3, #0]
    clearInterruptData();
 8001690:	f7ff ffe9 	bl	8001666 <_ZN7CommCan18clearInterruptDataEv>
    return InterfaceStatus::INTERFACE_OK;
 8001694:	0020      	movs	r0, r4
}
 8001696:	bd70      	pop	{r4, r5, r6, pc}
        __HAL_RCC_CAN1_FORCE_RESET();
 8001698:	2380      	movs	r3, #128	@ 0x80
 800169a:	4c0c      	ldr	r4, [pc, #48]	@ (80016cc <_ZN7CommCan17initCanPeripheralEb+0x58>)
 800169c:	049b      	lsls	r3, r3, #18
 800169e:	6922      	ldr	r2, [r4, #16]
        HAL_Delay(10);
 80016a0:	200a      	movs	r0, #10
        __HAL_RCC_CAN1_FORCE_RESET();
 80016a2:	4313      	orrs	r3, r2
 80016a4:	6123      	str	r3, [r4, #16]
        HAL_Delay(10);
 80016a6:	f000 fb45 	bl	8001d34 <HAL_Delay>
        __HAL_RCC_CAN1_RELEASE_RESET();
 80016aa:	6923      	ldr	r3, [r4, #16]
 80016ac:	4a08      	ldr	r2, [pc, #32]	@ (80016d0 <_ZN7CommCan17initCanPeripheralEb+0x5c>)
        HAL_CAN_DeInit(handler_);
 80016ae:	6928      	ldr	r0, [r5, #16]
        __HAL_RCC_CAN1_RELEASE_RESET();
 80016b0:	4013      	ands	r3, r2
 80016b2:	6123      	str	r3, [r4, #16]
        HAL_CAN_DeInit(handler_);
 80016b4:	f000 fc60 	bl	8001f78 <HAL_CAN_DeInit>
        InterfaceStatus init_status = static_cast<InterfaceStatus>(HAL_CAN_Init(handler_));
 80016b8:	6928      	ldr	r0, [r5, #16]
 80016ba:	f000 fb5f 	bl	8001d7c <HAL_CAN_Init>
        if (init_status != InterfaceStatus::INTERFACE_OK) {
 80016be:	2800      	cmp	r0, #0
 80016c0:	d0e0      	beq.n	8001684 <_ZN7CommCan17initCanPeripheralEb+0x10>
 80016c2:	e7e8      	b.n	8001696 <_ZN7CommCan17initCanPeripheralEb+0x22>
 80016c4:	200005a8 	.word	0x200005a8
 80016c8:	200005a4 	.word	0x200005a4
 80016cc:	40021000 	.word	0x40021000
 80016d0:	fdffffff 	.word	0xfdffffff

080016d4 <_ZN7CommCan10setTxCanIdERKm>:
InterfaceStatus CommCan::setTxCanId(const uint32_t& id) {
 80016d4:	0003      	movs	r3, r0
    if (tx_header_.IDE == static_cast<uint32_t>(CanIdType::CAN_ID_TYPE_STD) and id > 0x7FF) {
 80016d6:	69c0      	ldr	r0, [r0, #28]
 80016d8:	680a      	ldr	r2, [r1, #0]
 80016da:	2800      	cmp	r0, #0
 80016dc:	d105      	bne.n	80016ea <_ZN7CommCan10setTxCanIdERKm+0x16>
 80016de:	2180      	movs	r1, #128	@ 0x80
        return InterfaceStatus::INTERFACE_ERROR;
 80016e0:	3001      	adds	r0, #1
    if (tx_header_.IDE == static_cast<uint32_t>(CanIdType::CAN_ID_TYPE_STD) and id > 0x7FF) {
 80016e2:	0109      	lsls	r1, r1, #4
 80016e4:	428a      	cmp	r2, r1
 80016e6:	d309      	bcc.n	80016fc <_ZN7CommCan10setTxCanIdERKm+0x28>
}
 80016e8:	4770      	bx	lr
    if (tx_header_.IDE == static_cast<uint32_t>(CanIdType::CAN_ID_TYPE_EXT) and id > 0x1FFFFFFF) {
 80016ea:	2804      	cmp	r0, #4
 80016ec:	d104      	bne.n	80016f8 <_ZN7CommCan10setTxCanIdERKm+0x24>
 80016ee:	2180      	movs	r1, #128	@ 0x80
        return InterfaceStatus::INTERFACE_ERROR;
 80016f0:	3803      	subs	r0, #3
    if (tx_header_.IDE == static_cast<uint32_t>(CanIdType::CAN_ID_TYPE_EXT) and id > 0x1FFFFFFF) {
 80016f2:	0589      	lsls	r1, r1, #22
 80016f4:	428a      	cmp	r2, r1
 80016f6:	d2f7      	bcs.n	80016e8 <_ZN7CommCan10setTxCanIdERKm+0x14>
        tx_header_.ExtId = id;
 80016f8:	619a      	str	r2, [r3, #24]
 80016fa:	e000      	b.n	80016fe <_ZN7CommCan10setTxCanIdERKm+0x2a>
        tx_header_.StdId = id;
 80016fc:	615a      	str	r2, [r3, #20]
    return InterfaceStatus::INTERFACE_OK;
 80016fe:	2000      	movs	r0, #0
 8001700:	e7f2      	b.n	80016e8 <_ZN7CommCan10setTxCanIdERKm+0x14>

08001702 <_ZN7CommCan8setTxDlcEh>:
InterfaceStatus CommCan::setTxDlc(const uint8_t dlc) {
 8001702:	0003      	movs	r3, r0
        return InterfaceStatus::INTERFACE_ERROR;
 8001704:	2001      	movs	r0, #1
    if (dlc > 8) {
 8001706:	2908      	cmp	r1, #8
 8001708:	d801      	bhi.n	800170e <_ZN7CommCan8setTxDlcEh+0xc>
    return InterfaceStatus::INTERFACE_OK;
 800170a:	2000      	movs	r0, #0
    tx_header_.DLC = dlc;
 800170c:	6259      	str	r1, [r3, #36]	@ 0x24
}
 800170e:	4770      	bx	lr

08001710 <_ZN7CommCan14setTxCanIdTypeERKNS_9CanIdTypeE>:
    tx_header_.IDE = static_cast<uint32_t>(type);
 8001710:	680b      	ldr	r3, [r1, #0]
 8001712:	61c3      	str	r3, [r0, #28]
}
 8001714:	2000      	movs	r0, #0
 8001716:	4770      	bx	lr

08001718 <_ZN7CommCan12setTxRtrTypeERKNS_10CanRtrTypeE>:
    tx_header_.RTR = static_cast<uint32_t>(rtr_type);
 8001718:	680b      	ldr	r3, [r1, #0]
 800171a:	6203      	str	r3, [r0, #32]
}
 800171c:	2000      	movs	r0, #0
 800171e:	4770      	bx	lr

08001720 <_ZN7CommCan19incrementErrorCountEv>:
}

void CommCan::incrementErrorCount() {
    if (consecutive_error_count_ < MAX_CONSECUTIVE_ERRORS_) {
 8001720:	4a03      	ldr	r2, [pc, #12]	@ (8001730 <_ZN7CommCan19incrementErrorCountEv+0x10>)
 8001722:	7813      	ldrb	r3, [r2, #0]
 8001724:	2b09      	cmp	r3, #9
 8001726:	d801      	bhi.n	800172c <_ZN7CommCan19incrementErrorCountEv+0xc>
        consecutive_error_count_++;
 8001728:	3301      	adds	r3, #1
 800172a:	7013      	strb	r3, [r2, #0]
    }
}
 800172c:	4770      	bx	lr
 800172e:	46c0      	nop			@ (mov r8, r8)
 8001730:	200005a4 	.word	0x200005a4

08001734 <_ZN7CommCan14handleCanErrorE15InterfaceStatus>:
InterfaceStatus CommCan::handleCanError(InterfaceStatus status) {
 8001734:	b510      	push	{r4, lr}
 8001736:	000c      	movs	r4, r1
    incrementErrorCount();
 8001738:	f7ff fff2 	bl	8001720 <_ZN7CommCan19incrementErrorCountEv>
    last_error_time_ = HAL_GetTick();
 800173c:	f000 faf0 	bl	8001d20 <HAL_GetTick>
 8001740:	4b05      	ldr	r3, [pc, #20]	@ (8001758 <_ZN7CommCan14handleCanErrorE15InterfaceStatus+0x24>)
 8001742:	6018      	str	r0, [r3, #0]

bool CommCan::isErrorThresholdExceeded() const {
    return consecutive_error_count_ >= MAX_CONSECUTIVE_ERRORS_;
 8001744:	4b05      	ldr	r3, [pc, #20]	@ (800175c <_ZN7CommCan14handleCanErrorE15InterfaceStatus+0x28>)
    if (isErrorThresholdExceeded()) {
 8001746:	781b      	ldrb	r3, [r3, #0]
 8001748:	2b09      	cmp	r3, #9
 800174a:	d902      	bls.n	8001752 <_ZN7CommCan14handleCanErrorE15InterfaceStatus+0x1e>
        can_state_ = CanState::ERROR;
 800174c:	2203      	movs	r2, #3
 800174e:	4b04      	ldr	r3, [pc, #16]	@ (8001760 <_ZN7CommCan14handleCanErrorE15InterfaceStatus+0x2c>)
 8001750:	601a      	str	r2, [r3, #0]
}
 8001752:	0020      	movs	r0, r4
 8001754:	bd10      	pop	{r4, pc}
 8001756:	46c0      	nop			@ (mov r8, r8)
 8001758:	200005a0 	.word	0x200005a0
 800175c:	200005a4 	.word	0x200005a4
 8001760:	200005a8 	.word	0x200005a8

08001764 <_ZN7CommCan18startCanPeripheralEv>:
InterfaceStatus CommCan::startCanPeripheral() {
 8001764:	b510      	push	{r4, lr}
 8001766:	0004      	movs	r4, r0
    if (handler_ == nullptr) {
 8001768:	6900      	ldr	r0, [r0, #16]
        return InterfaceStatus::INTERFACE_ERROR;
 800176a:	2101      	movs	r1, #1
    if (handler_ == nullptr) {
 800176c:	2800      	cmp	r0, #0
 800176e:	d007      	beq.n	8001780 <_ZN7CommCan18startCanPeripheralEv+0x1c>
    InterfaceStatus status = static_cast<InterfaceStatus>(HAL_CAN_Start(handler_));
 8001770:	f000 fd1a 	bl	80021a8 <HAL_CAN_Start>
 8001774:	1e01      	subs	r1, r0, #0
    if (status != InterfaceStatus::INTERFACE_OK) {
 8001776:	d005      	beq.n	8001784 <_ZN7CommCan18startCanPeripheralEv+0x20>
        return handleCanError(status);
 8001778:	0020      	movs	r0, r4
 800177a:	f7ff ffdb 	bl	8001734 <_ZN7CommCan14handleCanErrorE15InterfaceStatus>
 800177e:	0001      	movs	r1, r0
}
 8001780:	0008      	movs	r0, r1
 8001782:	bd10      	pop	{r4, pc}
    can_state_ = CanState::READY;
 8001784:	2201      	movs	r2, #1
 8001786:	4b02      	ldr	r3, [pc, #8]	@ (8001790 <_ZN7CommCan18startCanPeripheralEv+0x2c>)
 8001788:	601a      	str	r2, [r3, #0]
    consecutive_error_count_ = 0;
 800178a:	4b02      	ldr	r3, [pc, #8]	@ (8001794 <_ZN7CommCan18startCanPeripheralEv+0x30>)
 800178c:	7018      	strb	r0, [r3, #0]
    return InterfaceStatus::INTERFACE_OK;
 800178e:	e7f7      	b.n	8001780 <_ZN7CommCan18startCanPeripheralEv+0x1c>
 8001790:	200005a8 	.word	0x200005a8
 8001794:	200005a4 	.word	0x200005a4

08001798 <_ZN7CommCan22startTransmitInterruptEPKht>:
InterfaceStatus CommCan::startTransmitInterrupt(const uint8_t* data, const uint16_t size) {
 8001798:	b5f7      	push	{r0, r1, r2, r4, r5, r6, r7, lr}
    if (can_state_ == CanState::ERROR) {
 800179a:	4e19      	ldr	r6, [pc, #100]	@ (8001800 <_ZN7CommCan22startTransmitInterruptEPKht+0x68>)
InterfaceStatus CommCan::startTransmitInterrupt(const uint8_t* data, const uint16_t size) {
 800179c:	0005      	movs	r5, r0
    if (can_state_ == CanState::ERROR) {
 800179e:	6833      	ldr	r3, [r6, #0]
InterfaceStatus CommCan::startTransmitInterrupt(const uint8_t* data, const uint16_t size) {
 80017a0:	000a      	movs	r2, r1
        return InterfaceStatus::INTERFACE_ERROR;
 80017a2:	2401      	movs	r4, #1
    if (can_state_ == CanState::ERROR) {
 80017a4:	2b03      	cmp	r3, #3
 80017a6:	d020      	beq.n	80017ea <_ZN7CommCan22startTransmitInterruptEPKht+0x52>
    if (data == nullptr) {
 80017a8:	2900      	cmp	r1, #0
 80017aa:	d01e      	beq.n	80017ea <_ZN7CommCan22startTransmitInterruptEPKht+0x52>
 80017ac:	4f15      	ldr	r7, [pc, #84]	@ (8001804 <_ZN7CommCan22startTransmitInterruptEPKht+0x6c>)
        return InterfaceStatus::INTERFACE_BUSY;
 80017ae:	1924      	adds	r4, r4, r4
    if (not isMailboxesAvailable()) {
 80017b0:	683b      	ldr	r3, [r7, #0]
 80017b2:	2b07      	cmp	r3, #7
 80017b4:	d019      	beq.n	80017ea <_ZN7CommCan22startTransmitInterruptEPKht+0x52>
    InterfaceStatus status = static_cast<InterfaceStatus>(HAL_CAN_AddTxMessage(handler_, &tx_header_, 
 80017b6:	0001      	movs	r1, r0
 80017b8:	ab01      	add	r3, sp, #4
 80017ba:	6900      	ldr	r0, [r0, #16]
 80017bc:	3114      	adds	r1, #20
 80017be:	f000 fd84 	bl	80022ca <HAL_CAN_AddTxMessage>
 80017c2:	1e04      	subs	r4, r0, #0
    if (status == InterfaceStatus::INTERFACE_OK) {
 80017c4:	d113      	bne.n	80017ee <_ZN7CommCan22startTransmitInterruptEPKht+0x56>
        active_tx_mailboxes_ |= tx_mailbox_mask;
 80017c6:	9901      	ldr	r1, [sp, #4]
 80017c8:	683b      	ldr	r3, [r7, #0]
        pending_tx_completions_ |= tx_mailbox_mask;
 80017ca:	4a0f      	ldr	r2, [pc, #60]	@ (8001808 <_ZN7CommCan22startTransmitInterruptEPKht+0x70>)
        active_tx_mailboxes_ |= tx_mailbox_mask;
 80017cc:	430b      	orrs	r3, r1
 80017ce:	603b      	str	r3, [r7, #0]
        pending_tx_completions_ |= tx_mailbox_mask;
 80017d0:	6813      	ldr	r3, [r2, #0]
 80017d2:	430b      	orrs	r3, r1
 80017d4:	6013      	str	r3, [r2, #0]
        tx_timeout_start_ = HAL_GetTick();
 80017d6:	f000 faa3 	bl	8001d20 <HAL_GetTick>
 80017da:	4b0c      	ldr	r3, [pc, #48]	@ (800180c <_ZN7CommCan22startTransmitInterruptEPKht+0x74>)
 80017dc:	6018      	str	r0, [r3, #0]
        can_state_ = CanState::BUSY_TX;
 80017de:	2302      	movs	r3, #2
 80017e0:	6033      	str	r3, [r6, #0]
        *transmit_flag_ = false;
 80017e2:	68eb      	ldr	r3, [r5, #12]
 80017e4:	701c      	strb	r4, [r3, #0]
    consecutive_error_count_ = 0;
 80017e6:	4b0a      	ldr	r3, [pc, #40]	@ (8001810 <_ZN7CommCan22startTransmitInterruptEPKht+0x78>)
 80017e8:	701c      	strb	r4, [r3, #0]
}
 80017ea:	0020      	movs	r0, r4
 80017ec:	bdfe      	pop	{r1, r2, r3, r4, r5, r6, r7, pc}
    can_state_ = CanState::ERROR;
 80017ee:	2303      	movs	r3, #3
    return handleCanError(status);
 80017f0:	0001      	movs	r1, r0
 80017f2:	0028      	movs	r0, r5
    can_state_ = CanState::ERROR;
 80017f4:	6033      	str	r3, [r6, #0]
    return handleCanError(status);
 80017f6:	f7ff ff9d 	bl	8001734 <_ZN7CommCan14handleCanErrorE15InterfaceStatus>
 80017fa:	0004      	movs	r4, r0
 80017fc:	e7f5      	b.n	80017ea <_ZN7CommCan22startTransmitInterruptEPKht+0x52>
 80017fe:	46c0      	nop			@ (mov r8, r8)
 8001800:	200005a8 	.word	0x200005a8
 8001804:	20000598 	.word	0x20000598
 8001808:	20000594 	.word	0x20000594
 800180c:	20000590 	.word	0x20000590
 8001810:	200005a4 	.word	0x200005a4

08001814 <_ZN7CommCan6deInitEv>:
    can_instance_ = nullptr;
 8001814:	2200      	movs	r2, #0
 8001816:	4b0d      	ldr	r3, [pc, #52]	@ (800184c <_ZN7CommCan6deInitEv+0x38>)
InterfaceStatus CommCan::deInit() {
 8001818:	b570      	push	{r4, r5, r6, lr}
 800181a:	0005      	movs	r5, r0
    InterfaceStatus status = static_cast<InterfaceStatus>(HAL_CAN_Stop(handler_));
 800181c:	6900      	ldr	r0, [r0, #16]
    can_instance_ = nullptr;
 800181e:	601a      	str	r2, [r3, #0]
    InterfaceStatus status = static_cast<InterfaceStatus>(HAL_CAN_Stop(handler_));
 8001820:	f000 fd08 	bl	8002234 <HAL_CAN_Stop>
 8001824:	1e06      	subs	r6, r0, #0
    if (status != InterfaceStatus::INTERFACE_OK) {
 8001826:	d006      	beq.n	8001836 <_ZN7CommCan6deInitEv+0x22>
        return handleCanError(status);
 8001828:	0001      	movs	r1, r0
 800182a:	0028      	movs	r0, r5
 800182c:	f7ff ff82 	bl	8001734 <_ZN7CommCan14handleCanErrorE15InterfaceStatus>
 8001830:	0004      	movs	r4, r0
}
 8001832:	0020      	movs	r0, r4
 8001834:	bd70      	pop	{r4, r5, r6, pc}
    status = static_cast<InterfaceStatus>(HAL_CAN_DeInit(handler_));
 8001836:	6928      	ldr	r0, [r5, #16]
 8001838:	f000 fb9e 	bl	8001f78 <HAL_CAN_DeInit>
    can_state_ = CanState::INIT;
 800183c:	4b04      	ldr	r3, [pc, #16]	@ (8001850 <_ZN7CommCan6deInitEv+0x3c>)
    status = static_cast<InterfaceStatus>(HAL_CAN_DeInit(handler_));
 800183e:	0004      	movs	r4, r0
    clearInterruptData();
 8001840:	0028      	movs	r0, r5
    can_state_ = CanState::INIT;
 8001842:	601e      	str	r6, [r3, #0]
    clearInterruptData();
 8001844:	f7ff ff0f 	bl	8001666 <_ZN7CommCan18clearInterruptDataEv>
    return status;
 8001848:	e7f3      	b.n	8001832 <_ZN7CommCan6deInitEv+0x1e>
 800184a:	46c0      	nop			@ (mov r8, r8)
 800184c:	2000059c 	.word	0x2000059c
 8001850:	200005a8 	.word	0x200005a8

08001854 <_ZN7CommCan18configCustomFilterEmNS_13CanFilterModeENS_14CanFilterScaleEmmmm>:
                                            uint32_t mask_high, uint32_t mask_low) {
 8001854:	b510      	push	{r4, lr}
 8001856:	b08a      	sub	sp, #40	@ 0x28
    filter_config.FilterScale = static_cast<uint32_t>(scale);
 8001858:	9307      	str	r3, [sp, #28]
    filter_config.FilterIdHigh = id_high;
 800185a:	9b0c      	ldr	r3, [sp, #48]	@ 0x30
    filter_config.FilterMode = static_cast<uint32_t>(mode);
 800185c:	9206      	str	r2, [sp, #24]
    filter_config.FilterIdHigh = id_high;
 800185e:	9300      	str	r3, [sp, #0]
    filter_config.FilterIdLow = id_low;
 8001860:	9b0d      	ldr	r3, [sp, #52]	@ 0x34
    filter_config.FilterActivation = CAN_FILTER_ENABLE;
 8001862:	2201      	movs	r2, #1
    filter_config.FilterIdLow = id_low;
 8001864:	9301      	str	r3, [sp, #4]
    filter_config.FilterMaskIdHigh = mask_high;
 8001866:	9b0e      	ldr	r3, [sp, #56]	@ 0x38
                                            uint32_t mask_high, uint32_t mask_low) {
 8001868:	0004      	movs	r4, r0
    filter_config.FilterMaskIdHigh = mask_high;
 800186a:	9302      	str	r3, [sp, #8]
    filter_config.FilterMaskIdLow = mask_low;
 800186c:	9b0f      	ldr	r3, [sp, #60]	@ 0x3c
    filter_config.FilterBank = filter_bank;
 800186e:	9105      	str	r1, [sp, #20]
    filter_config.FilterMaskIdLow = mask_low;
 8001870:	9303      	str	r3, [sp, #12]
    filter_config.FilterFIFOAssignment = CAN_FILTER_FIFO0;
 8001872:	2300      	movs	r3, #0
    InterfaceStatus status = static_cast<InterfaceStatus>(HAL_CAN_ConfigFilter(handler_, &filter_config));
 8001874:	4669      	mov	r1, sp
 8001876:	6900      	ldr	r0, [r0, #16]
    filter_config.FilterFIFOAssignment = CAN_FILTER_FIFO0;
 8001878:	9304      	str	r3, [sp, #16]
    filter_config.FilterActivation = CAN_FILTER_ENABLE;
 800187a:	9208      	str	r2, [sp, #32]
    filter_config.SlaveStartFilterBank = 0;
 800187c:	9309      	str	r3, [sp, #36]	@ 0x24
    InterfaceStatus status = static_cast<InterfaceStatus>(HAL_CAN_ConfigFilter(handler_, &filter_config));
 800187e:	f000 fba1 	bl	8001fc4 <HAL_CAN_ConfigFilter>
    if (status == InterfaceStatus::INTERFACE_OK) {
 8001882:	2800      	cmp	r0, #0
 8001884:	d103      	bne.n	800188e <_ZN7CommCan18configCustomFilterEmNS_13CanFilterModeENS_14CanFilterScaleEmmmm+0x3a>
    consecutive_error_count_ = 0;
 8001886:	4b04      	ldr	r3, [pc, #16]	@ (8001898 <_ZN7CommCan18configCustomFilterEmNS_13CanFilterModeENS_14CanFilterScaleEmmmm+0x44>)
 8001888:	7018      	strb	r0, [r3, #0]
}
 800188a:	b00a      	add	sp, #40	@ 0x28
 800188c:	bd10      	pop	{r4, pc}
    return handleCanError(status);
 800188e:	0001      	movs	r1, r0
 8001890:	0020      	movs	r0, r4
 8001892:	f7ff ff4f 	bl	8001734 <_ZN7CommCan14handleCanErrorE15InterfaceStatus>
 8001896:	e7f8      	b.n	800188a <_ZN7CommCan18configCustomFilterEmNS_13CanFilterModeENS_14CanFilterScaleEmmmm+0x36>
 8001898:	200005a4 	.word	0x200005a4

0800189c <_ZN7CommCan21activateNotificationsEm>:
InterfaceStatus CommCan::activateNotifications(uint32_t notification_mask) {
 800189c:	b510      	push	{r4, lr}
 800189e:	0004      	movs	r4, r0
    InterfaceStatus status = static_cast<InterfaceStatus>(HAL_CAN_ActivateNotification(handler_, notification_mask));
 80018a0:	6900      	ldr	r0, [r0, #16]
 80018a2:	f000 ff82 	bl	80027aa <HAL_CAN_ActivateNotification>
    if (status == InterfaceStatus::INTERFACE_OK) {
 80018a6:	2800      	cmp	r0, #0
 80018a8:	d102      	bne.n	80018b0 <_ZN7CommCan21activateNotificationsEm+0x14>
    consecutive_error_count_ = 0;
 80018aa:	4b04      	ldr	r3, [pc, #16]	@ (80018bc <_ZN7CommCan21activateNotificationsEm+0x20>)
 80018ac:	7018      	strb	r0, [r3, #0]
}
 80018ae:	bd10      	pop	{r4, pc}
    return handleCanError(status);
 80018b0:	0001      	movs	r1, r0
 80018b2:	0020      	movs	r0, r4
 80018b4:	f7ff ff3e 	bl	8001734 <_ZN7CommCan14handleCanErrorE15InterfaceStatus>
 80018b8:	e7f9      	b.n	80018ae <_ZN7CommCan21activateNotificationsEm+0x12>
 80018ba:	46c0      	nop			@ (mov r8, r8)
 80018bc:	200005a4 	.word	0x200005a4

080018c0 <_ZN7CommCan21abortAllTransmissionsEv>:
InterfaceStatus CommCan::abortAllTransmissions() {
 80018c0:	b510      	push	{r4, lr}
 80018c2:	0004      	movs	r4, r0
    if (handler_ == nullptr) {
 80018c4:	6900      	ldr	r0, [r0, #16]
        return InterfaceStatus::INTERFACE_ERROR;
 80018c6:	2101      	movs	r1, #1
    if (handler_ == nullptr) {
 80018c8:	2800      	cmp	r0, #0
 80018ca:	d006      	beq.n	80018da <_ZN7CommCan21abortAllTransmissionsEv+0x1a>
    InterfaceStatus status = static_cast<InterfaceStatus>(HAL_CAN_AbortTxRequest(handler_,
 80018cc:	3106      	adds	r1, #6
 80018ce:	f000 fdce 	bl	800246e <HAL_CAN_AbortTxRequest>
 80018d2:	1e01      	subs	r1, r0, #0
    if (status == InterfaceStatus::INTERFACE_OK) {
 80018d4:	d103      	bne.n	80018de <_ZN7CommCan21abortAllTransmissionsEv+0x1e>
    consecutive_error_count_ = 0;
 80018d6:	4b04      	ldr	r3, [pc, #16]	@ (80018e8 <_ZN7CommCan21abortAllTransmissionsEv+0x28>)
 80018d8:	7018      	strb	r0, [r3, #0]
}
 80018da:	0008      	movs	r0, r1
 80018dc:	bd10      	pop	{r4, pc}
    return handleCanError(status);
 80018de:	0020      	movs	r0, r4
 80018e0:	f7ff ff28 	bl	8001734 <_ZN7CommCan14handleCanErrorE15InterfaceStatus>
 80018e4:	0001      	movs	r1, r0
 80018e6:	e7f8      	b.n	80018da <_ZN7CommCan21abortAllTransmissionsEv+0x1a>
 80018e8:	200005a4 	.word	0x200005a4

080018ec <_ZN7CommCan20prepareForBootloaderEv>:
    if (handler_ == nullptr) {
 80018ec:	6903      	ldr	r3, [r0, #16]
InterfaceStatus CommCan::prepareForBootloader() {
 80018ee:	b510      	push	{r4, lr}
 80018f0:	0004      	movs	r4, r0
        return InterfaceStatus::INTERFACE_ERROR;
 80018f2:	2001      	movs	r0, #1
    if (handler_ == nullptr) {
 80018f4:	2b00      	cmp	r3, #0
 80018f6:	d00e      	beq.n	8001916 <_ZN7CommCan20prepareForBootloaderEv+0x2a>
    InterfaceStatus status = static_cast<InterfaceStatus>(HAL_CAN_DeactivateNotification(handler_,
 80018f8:	0018      	movs	r0, r3
 80018fa:	4907      	ldr	r1, [pc, #28]	@ (8001918 <_ZN7CommCan20prepareForBootloaderEv+0x2c>)
 80018fc:	f000 ff7f 	bl	80027fe <HAL_CAN_DeactivateNotification>
    if (status != InterfaceStatus::INTERFACE_OK) {
 8001900:	2800      	cmp	r0, #0
 8001902:	d108      	bne.n	8001916 <_ZN7CommCan20prepareForBootloaderEv+0x2a>
    status = abortAllTransmissions();
 8001904:	0020      	movs	r0, r4
 8001906:	f7ff ffdb 	bl	80018c0 <_ZN7CommCan21abortAllTransmissionsEv>
    if (status != InterfaceStatus::INTERFACE_OK) {
 800190a:	2800      	cmp	r0, #0
 800190c:	d103      	bne.n	8001916 <_ZN7CommCan20prepareForBootloaderEv+0x2a>
    return deInit();
 800190e:	6823      	ldr	r3, [r4, #0]
 8001910:	0020      	movs	r0, r4
 8001912:	689b      	ldr	r3, [r3, #8]
 8001914:	4798      	blx	r3
}
 8001916:	bd10      	pop	{r4, pc}
 8001918:	00008f37 	.word	0x00008f37

0800191c <_ZN7CommCan24handleInterruptRxMessageEv>:
CommCan* CommCan::getInstance(CAN_HandleTypeDef* handle) {
    (void)handle;
    return can_instance_;
}

void CommCan::handleInterruptRxMessage() {
 800191c:	b5f8      	push	{r3, r4, r5, r6, r7, lr}
 800191e:	0004      	movs	r4, r0
    if (handler_ == nullptr) {
 8001920:	6900      	ldr	r0, [r0, #16]
 8001922:	2800      	cmp	r0, #0
 8001924:	d02c      	beq.n	8001980 <_ZN7CommCan24handleInterruptRxMessageEv+0x64>
        return;
    }

    uint32_t fifo_level = HAL_CAN_GetRxFifoFillLevel(handler_, CAN_RX_FIFO0);
 8001926:	2100      	movs	r1, #0
 8001928:	f000 ff14 	bl	8002754 <HAL_CAN_GetRxFifoFillLevel>
    uint8_t messages_processed = 0;
    const uint8_t MAX_INTERRUPT_RX_PROCESS = 3;
    
    while (fifo_level > 0 and messages_processed < MAX_INTERRUPT_RX_PROCESS) {
 800192c:	2504      	movs	r5, #4
 800192e:	2800      	cmp	r0, #0
 8001930:	d026      	beq.n	8001980 <_ZN7CommCan24handleInterruptRxMessageEv+0x64>
 8001932:	3d01      	subs	r5, #1
 8001934:	b2ed      	uxtb	r5, r5
 8001936:	2d00      	cmp	r5, #0
 8001938:	d022      	beq.n	8001980 <_ZN7CommCan24handleInterruptRxMessageEv+0x64>
        InterfaceStatus status = static_cast<InterfaceStatus>(HAL_CAN_GetRxMessage(handler_, CAN_RX_FIFO0,
 800193a:	4f12      	ldr	r7, [pc, #72]	@ (8001984 <_ZN7CommCan24handleInterruptRxMessageEv+0x68>)
 800193c:	4e12      	ldr	r6, [pc, #72]	@ (8001988 <_ZN7CommCan24handleInterruptRxMessageEv+0x6c>)
 800193e:	2100      	movs	r1, #0
 8001940:	003b      	movs	r3, r7
 8001942:	0032      	movs	r2, r6
 8001944:	6920      	ldr	r0, [r4, #16]
 8001946:	f000 fdda 	bl	80024fe <HAL_CAN_GetRxMessage>
 800194a:	1e01      	subs	r1, r0, #0
                                                        &interrupt_rx_header_,
                                                        interrupt_rx_buffer_));

        if (status == InterfaceStatus::INTERFACE_OK) {
 800194c:	d115      	bne.n	800197a <_ZN7CommCan24handleInterruptRxMessageEv+0x5e>
            if (receive_size_) {
 800194e:	68a3      	ldr	r3, [r4, #8]
 8001950:	2b00      	cmp	r3, #0
 8001952:	d001      	beq.n	8001958 <_ZN7CommCan24handleInterruptRxMessageEv+0x3c>
                *receive_size_ = interrupt_rx_header_.DLC;
 8001954:	6932      	ldr	r2, [r6, #16]
 8001956:	801a      	strh	r2, [r3, #0]
    consecutive_error_count_ = 0;
 8001958:	2200      	movs	r2, #0
 800195a:	4b0c      	ldr	r3, [pc, #48]	@ (800198c <_ZN7CommCan24handleInterruptRxMessageEv+0x70>)
 800195c:	701a      	strb	r2, [r3, #0]
            }
            resetErrorCount();
            
            if (rx_message_callback_ != nullptr) {
 800195e:	4b0c      	ldr	r3, [pc, #48]	@ (8001990 <_ZN7CommCan24handleInterruptRxMessageEv+0x74>)
 8001960:	681b      	ldr	r3, [r3, #0]
 8001962:	4293      	cmp	r3, r2
 8001964:	d004      	beq.n	8001970 <_ZN7CommCan24handleInterruptRxMessageEv+0x54>
                rx_message_callback_(interrupt_rx_header_, interrupt_rx_buffer_, interrupt_rx_header_.DLC);
 8001966:	6932      	ldr	r2, [r6, #16]
 8001968:	0039      	movs	r1, r7
 800196a:	0030      	movs	r0, r6
 800196c:	b2d2      	uxtb	r2, r2
 800196e:	4798      	blx	r3
        } else {
            handleCanError(status);
            break;
        }
        
        fifo_level = HAL_CAN_GetRxFifoFillLevel(handler_, CAN_RX_FIFO0);
 8001970:	2100      	movs	r1, #0
 8001972:	6920      	ldr	r0, [r4, #16]
 8001974:	f000 feee 	bl	8002754 <HAL_CAN_GetRxFifoFillLevel>
        messages_processed++;
 8001978:	e7d9      	b.n	800192e <_ZN7CommCan24handleInterruptRxMessageEv+0x12>
            handleCanError(status);
 800197a:	0020      	movs	r0, r4
 800197c:	f7ff feda 	bl	8001734 <_ZN7CommCan14handleCanErrorE15InterfaceStatus>
    }
}
 8001980:	bdf8      	pop	{r3, r4, r5, r6, r7, pc}
 8001982:	46c0      	nop			@ (mov r8, r8)
 8001984:	200005ac 	.word	0x200005ac
 8001988:	200005b4 	.word	0x200005b4
 800198c:	200005a4 	.word	0x200005a4
 8001990:	20000588 	.word	0x20000588

08001994 <_ZN7CommCan13setupTxHeaderER19CAN_TxHeaderTypeDefRKN8bluelink16J1939CanIdStructEh>:

void CommCan::setupTxHeader(CAN_TxHeaderTypeDef& tx_header, const bluelink::J1939CanIdStruct& can_id, uint8_t data_size) {
    tx_header.ExtId = CONVERT_CAN_ID_TO_UINT32(can_id);
 8001994:	6812      	ldr	r2, [r2, #0]
    tx_header.IDE = CAN_ID_EXT;
    tx_header.RTR = CAN_RTR_DATA;
    tx_header.DLC = data_size;
 8001996:	610b      	str	r3, [r1, #16]
    tx_header.ExtId = CONVERT_CAN_ID_TO_UINT32(can_id);
 8001998:	604a      	str	r2, [r1, #4]
    tx_header.IDE = CAN_ID_EXT;
 800199a:	2204      	movs	r2, #4
 800199c:	608a      	str	r2, [r1, #8]
    tx_header.RTR = CAN_RTR_DATA;
 800199e:	2200      	movs	r2, #0
 80019a0:	60ca      	str	r2, [r1, #12]
}
 80019a2:	4770      	bx	lr

080019a4 <HAL_SPI_ErrorCallback>:
  static CommSpi* getInstance() { return spi_instance_; }
 80019a4:	4b03      	ldr	r3, [pc, #12]	@ (80019b4 <HAL_SPI_ErrorCallback+0x10>)
        uint16_t received_size = hspi->RxXferSize;
        spi_instance->setReceiveComplete(received_size);
    }
}

void HAL_SPI_ErrorCallback(SPI_HandleTypeDef *hspi) {
 80019a6:	b510      	push	{r4, lr}
 80019a8:	6818      	ldr	r0, [r3, #0]
    CommSpi* spi_instance = CommSpi::getInstance();
    if (spi_instance != nullptr) {
 80019aa:	2800      	cmp	r0, #0
 80019ac:	d001      	beq.n	80019b2 <HAL_SPI_ErrorCallback+0xe>
        spi_instance->handleSpiError();
 80019ae:	f7ff fe53 	bl	8001658 <_ZN7CommSpi14handleSpiErrorEv>
    }
}
 80019b2:	bd10      	pop	{r4, pc}
 80019b4:	200005d0 	.word	0x200005d0

080019b8 <HAL_CAN_RxFifo0MsgPendingCallback>:
    return can_instance_;
 80019b8:	4b03      	ldr	r3, [pc, #12]	@ (80019c8 <HAL_CAN_RxFifo0MsgPendingCallback+0x10>)

void HAL_CAN_RxFifo0MsgPendingCallback(CAN_HandleTypeDef *hcan) {
 80019ba:	b510      	push	{r4, lr}
    return can_instance_;
 80019bc:	6818      	ldr	r0, [r3, #0]
	CommCan* instance = CommCan::getInstance(hcan);
    if (instance != nullptr) {
 80019be:	2800      	cmp	r0, #0
 80019c0:	d001      	beq.n	80019c6 <HAL_CAN_RxFifo0MsgPendingCallback+0xe>
    	instance->handleInterruptRxMessage();
 80019c2:	f7ff ffab 	bl	800191c <_ZN7CommCan24handleInterruptRxMessageEv>
    }
}
 80019c6:	bd10      	pop	{r4, pc}
 80019c8:	2000059c 	.word	0x2000059c

080019cc <_ZN7CommCan19setTransmitCompleteEh>:

void CommCan::setTransmitComplete(uint8_t mailbox_number) {
 80019cc:	b510      	push	{r4, lr}
	if (mailbox_number > 2) {
 80019ce:	2902      	cmp	r1, #2
 80019d0:	d818      	bhi.n	8001a04 <_ZN7CommCan19setTransmitCompleteEh+0x38>
		return;
	}

	uint32_t mailbox_mask = (1U << mailbox_number);
 80019d2:	2201      	movs	r2, #1
 80019d4:	0013      	movs	r3, r2
 80019d6:	408b      	lsls	r3, r1
 80019d8:	0019      	movs	r1, r3

	if (pending_tx_completions_ & mailbox_mask) {
 80019da:	4c0b      	ldr	r4, [pc, #44]	@ (8001a08 <_ZN7CommCan19setTransmitCompleteEh+0x3c>)
 80019dc:	6823      	ldr	r3, [r4, #0]
 80019de:	4219      	tst	r1, r3
 80019e0:	d010      	beq.n	8001a04 <_ZN7CommCan19setTransmitCompleteEh+0x38>
		pending_tx_completions_ &= ~mailbox_mask;
 80019e2:	438b      	bics	r3, r1
 80019e4:	6023      	str	r3, [r4, #0]
		active_tx_mailboxes_ &= ~mailbox_mask;
 80019e6:	4c09      	ldr	r4, [pc, #36]	@ (8001a0c <_ZN7CommCan19setTransmitCompleteEh+0x40>)
 80019e8:	6823      	ldr	r3, [r4, #0]
 80019ea:	438b      	bics	r3, r1
 80019ec:	6023      	str	r3, [r4, #0]

		can_state_ = CanState::READY;
 80019ee:	4b08      	ldr	r3, [pc, #32]	@ (8001a10 <_ZN7CommCan19setTransmitCompleteEh+0x44>)
 80019f0:	601a      	str	r2, [r3, #0]
		if (transmit_flag_) {
 80019f2:	68c3      	ldr	r3, [r0, #12]
 80019f4:	2b00      	cmp	r3, #0
 80019f6:	d000      	beq.n	80019fa <_ZN7CommCan19setTransmitCompleteEh+0x2e>
			*transmit_flag_ = true;
 80019f8:	701a      	strb	r2, [r3, #0]
		}

		if (tx_complete_callback_ != nullptr) {
 80019fa:	4b06      	ldr	r3, [pc, #24]	@ (8001a14 <_ZN7CommCan19setTransmitCompleteEh+0x48>)
 80019fc:	681b      	ldr	r3, [r3, #0]
 80019fe:	2b00      	cmp	r3, #0
 8001a00:	d000      	beq.n	8001a04 <_ZN7CommCan19setTransmitCompleteEh+0x38>
			tx_complete_callback_();
 8001a02:	4798      	blx	r3
		}
	}
}
 8001a04:	bd10      	pop	{r4, pc}
 8001a06:	46c0      	nop			@ (mov r8, r8)
 8001a08:	20000594 	.word	0x20000594
 8001a0c:	20000598 	.word	0x20000598
 8001a10:	200005a8 	.word	0x200005a8
 8001a14:	2000058c 	.word	0x2000058c

08001a18 <HAL_CAN_TxMailbox0CompleteCallback>:
    return can_instance_;
 8001a18:	4b04      	ldr	r3, [pc, #16]	@ (8001a2c <HAL_CAN_TxMailbox0CompleteCallback+0x14>)

void HAL_CAN_TxMailbox0CompleteCallback(CAN_HandleTypeDef *hcan) {
 8001a1a:	b510      	push	{r4, lr}
    return can_instance_;
 8001a1c:	6818      	ldr	r0, [r3, #0]
    CommCan* instance = CommCan::getInstance(hcan);
    if (instance != nullptr) {
 8001a1e:	2800      	cmp	r0, #0
 8001a20:	d002      	beq.n	8001a28 <HAL_CAN_TxMailbox0CompleteCallback+0x10>
        instance->setTransmitComplete(0);
 8001a22:	2100      	movs	r1, #0
 8001a24:	f7ff ffd2 	bl	80019cc <_ZN7CommCan19setTransmitCompleteEh>
    }
}
 8001a28:	bd10      	pop	{r4, pc}
 8001a2a:	46c0      	nop			@ (mov r8, r8)
 8001a2c:	2000059c 	.word	0x2000059c

08001a30 <HAL_CAN_TxMailbox1CompleteCallback>:
    return can_instance_;
 8001a30:	4b04      	ldr	r3, [pc, #16]	@ (8001a44 <HAL_CAN_TxMailbox1CompleteCallback+0x14>)

void HAL_CAN_TxMailbox1CompleteCallback(CAN_HandleTypeDef *hcan) {
 8001a32:	b510      	push	{r4, lr}
    return can_instance_;
 8001a34:	6818      	ldr	r0, [r3, #0]
    CommCan* instance = CommCan::getInstance(hcan);
    if (instance != nullptr) {
 8001a36:	2800      	cmp	r0, #0
 8001a38:	d002      	beq.n	8001a40 <HAL_CAN_TxMailbox1CompleteCallback+0x10>
        instance->setTransmitComplete(1);
 8001a3a:	2101      	movs	r1, #1
 8001a3c:	f7ff ffc6 	bl	80019cc <_ZN7CommCan19setTransmitCompleteEh>
    }
}
 8001a40:	bd10      	pop	{r4, pc}
 8001a42:	46c0      	nop			@ (mov r8, r8)
 8001a44:	2000059c 	.word	0x2000059c

08001a48 <HAL_CAN_TxMailbox2CompleteCallback>:
    return can_instance_;
 8001a48:	4b04      	ldr	r3, [pc, #16]	@ (8001a5c <HAL_CAN_TxMailbox2CompleteCallback+0x14>)

void HAL_CAN_TxMailbox2CompleteCallback(CAN_HandleTypeDef *hcan) {
 8001a4a:	b510      	push	{r4, lr}
    return can_instance_;
 8001a4c:	6818      	ldr	r0, [r3, #0]
    CommCan* instance = CommCan::getInstance(hcan);
    if (instance != nullptr) {
 8001a4e:	2800      	cmp	r0, #0
 8001a50:	d002      	beq.n	8001a58 <HAL_CAN_TxMailbox2CompleteCallback+0x10>
        instance->setTransmitComplete(2);
 8001a52:	2102      	movs	r1, #2
 8001a54:	f7ff ffba 	bl	80019cc <_ZN7CommCan19setTransmitCompleteEh>
    }
}
 8001a58:	bd10      	pop	{r4, pc}
 8001a5a:	46c0      	nop			@ (mov r8, r8)
 8001a5c:	2000059c 	.word	0x2000059c

08001a60 <_ZN7CommCan21kickStartTxInterruptsEv>:
void CommCan::kickStartTxInterrupts() {
 8001a60:	b510      	push	{r4, lr}
 8001a62:	0004      	movs	r4, r0
    HAL_CAN_TxMailbox0CompleteCallback(handler_);
 8001a64:	6900      	ldr	r0, [r0, #16]
 8001a66:	f7ff ffd7 	bl	8001a18 <HAL_CAN_TxMailbox0CompleteCallback>
    HAL_CAN_TxMailbox1CompleteCallback(handler_);
 8001a6a:	6920      	ldr	r0, [r4, #16]
 8001a6c:	f7ff ffe0 	bl	8001a30 <HAL_CAN_TxMailbox1CompleteCallback>
    HAL_CAN_TxMailbox2CompleteCallback(handler_);
 8001a70:	6920      	ldr	r0, [r4, #16]
 8001a72:	f7ff ffe9 	bl	8001a48 <HAL_CAN_TxMailbox2CompleteCallback>
}
 8001a76:	bd10      	pop	{r4, pc}

08001a78 <_Z15toGpioPinNumbert>:
        : channel(adc_channel), voltage_divider_ratio(divider_ratio) {}
};
#endif

constexpr GpioPinNumber toGpioPinNumber(uint16_t hal_pin) {
    switch (hal_pin) {
 8001a78:	2380      	movs	r3, #128	@ 0x80
 8001a7a:	005b      	lsls	r3, r3, #1
 8001a7c:	4298      	cmp	r0, r3
 8001a7e:	d011      	beq.n	8001aa4 <_Z15toGpioPinNumbert+0x2c>
 8001a80:	d811      	bhi.n	8001aa6 <_Z15toGpioPinNumbert+0x2e>
 8001a82:	2810      	cmp	r0, #16
 8001a84:	d00e      	beq.n	8001aa4 <_Z15toGpioPinNumbert+0x2c>
 8001a86:	d807      	bhi.n	8001a98 <_Z15toGpioPinNumbert+0x20>
 8001a88:	2804      	cmp	r0, #4
 8001a8a:	d00b      	beq.n	8001aa4 <_Z15toGpioPinNumbert+0x2c>
 8001a8c:	2808      	cmp	r0, #8
 8001a8e:	d009      	beq.n	8001aa4 <_Z15toGpioPinNumbert+0x2c>
 8001a90:	2802      	cmp	r0, #2
 8001a92:	d007      	beq.n	8001aa4 <_Z15toGpioPinNumbert+0x2c>
        case GPIO_PIN_0: return GpioPinNumber::PIN_0;
 8001a94:	2001      	movs	r0, #1
 8001a96:	e005      	b.n	8001aa4 <_Z15toGpioPinNumbert+0x2c>
    switch (hal_pin) {
 8001a98:	2840      	cmp	r0, #64	@ 0x40
 8001a9a:	d003      	beq.n	8001aa4 <_Z15toGpioPinNumbert+0x2c>
 8001a9c:	2880      	cmp	r0, #128	@ 0x80
 8001a9e:	d001      	beq.n	8001aa4 <_Z15toGpioPinNumbert+0x2c>
 8001aa0:	2820      	cmp	r0, #32
 8001aa2:	d1f7      	bne.n	8001a94 <_Z15toGpioPinNumbert+0x1c>
        case GPIO_PIN_13: return GpioPinNumber::PIN_13;
        case GPIO_PIN_14: return GpioPinNumber::PIN_14;
        case GPIO_PIN_15: return GpioPinNumber::PIN_15;
        default: return GpioPinNumber::PIN_0; // fallback
    }
}
 8001aa4:	4770      	bx	lr
    switch (hal_pin) {
 8001aa6:	2380      	movs	r3, #128	@ 0x80
 8001aa8:	015b      	lsls	r3, r3, #5
 8001aaa:	4298      	cmp	r0, r3
 8001aac:	d0fa      	beq.n	8001aa4 <_Z15toGpioPinNumbert+0x2c>
 8001aae:	d80c      	bhi.n	8001aca <_Z15toGpioPinNumbert+0x52>
 8001ab0:	2380      	movs	r3, #128	@ 0x80
 8001ab2:	00db      	lsls	r3, r3, #3
 8001ab4:	4298      	cmp	r0, r3
 8001ab6:	d0f5      	beq.n	8001aa4 <_Z15toGpioPinNumbert+0x2c>
 8001ab8:	2380      	movs	r3, #128	@ 0x80
 8001aba:	011b      	lsls	r3, r3, #4
 8001abc:	4298      	cmp	r0, r3
 8001abe:	d0f1      	beq.n	8001aa4 <_Z15toGpioPinNumbert+0x2c>
 8001ac0:	2380      	movs	r3, #128	@ 0x80
 8001ac2:	009b      	lsls	r3, r3, #2
 8001ac4:	4298      	cmp	r0, r3
 8001ac6:	d0ed      	beq.n	8001aa4 <_Z15toGpioPinNumbert+0x2c>
 8001ac8:	e7e4      	b.n	8001a94 <_Z15toGpioPinNumbert+0x1c>
 8001aca:	2380      	movs	r3, #128	@ 0x80
 8001acc:	01db      	lsls	r3, r3, #7
 8001ace:	4298      	cmp	r0, r3
 8001ad0:	d0e8      	beq.n	8001aa4 <_Z15toGpioPinNumbert+0x2c>
 8001ad2:	2380      	movs	r3, #128	@ 0x80
 8001ad4:	021b      	lsls	r3, r3, #8
 8001ad6:	4298      	cmp	r0, r3
 8001ad8:	d0e4      	beq.n	8001aa4 <_Z15toGpioPinNumbert+0x2c>
 8001ada:	2380      	movs	r3, #128	@ 0x80
 8001adc:	019b      	lsls	r3, r3, #6
 8001ade:	e7f1      	b.n	8001ac4 <_Z15toGpioPinNumbert+0x4c>

08001ae0 <_ZN13GpioInterface11getGpioPortE12GpioPortType>:
 */

#include "gpio_interface.hpp"

GPIO_TypeDef* GpioInterface::getGpioPort(GpioPortType port) {
    switch (port) {
 8001ae0:	1e42      	subs	r2, r0, #1
GPIO_TypeDef* GpioInterface::getGpioPort(GpioPortType port) {
 8001ae2:	0003      	movs	r3, r0
 8001ae4:	2000      	movs	r0, #0
 8001ae6:	2a05      	cmp	r2, #5
 8001ae8:	d802      	bhi.n	8001af0 <_ZN13GpioInterface11getGpioPortE12GpioPortType+0x10>
 8001aea:	4a02      	ldr	r2, [pc, #8]	@ (8001af4 <_ZN13GpioInterface11getGpioPortE12GpioPortType+0x14>)
 8001aec:	029b      	lsls	r3, r3, #10
 8001aee:	1898      	adds	r0, r3, r2
#ifdef GPIOE
        case GpioPortType::PORT_E: return GPIOE;
#endif
        default: return nullptr;
    }
}
 8001af0:	4770      	bx	lr
 8001af2:	46c0      	nop			@ (mov r8, r8)
 8001af4:	47fffc00 	.word	0x47fffc00

08001af8 <_ZN13GpioInterface17createDigitalGpioEP12GPIO_TypeDeft>:

constexpr GpioPortType toGpioPortType(GPIO_TypeDef* hal_port) {
    if (hal_port == GPIOA) return GpioPortType::PORT_A;
 8001af8:	2290      	movs	r2, #144	@ 0x90

GpioPin GpioInterface::createDigitalGpio(GpioPortType port, GpioPinNumber pin) {
    return GpioPin(port, static_cast<uint16_t>(pin));
}

GpioPin GpioInterface::createDigitalGpio(GPIO_TypeDef* gpio_port, uint16_t hal_pin) {
 8001afa:	b513      	push	{r0, r1, r4, lr}
 8001afc:	0003      	movs	r3, r0
 8001afe:	2401      	movs	r4, #1
 8001b00:	0008      	movs	r0, r1
 8001b02:	05d2      	lsls	r2, r2, #23
 8001b04:	4293      	cmp	r3, r2
 8001b06:	d014      	beq.n	8001b32 <_ZN13GpioInterface17createDigitalGpioEP12GPIO_TypeDeft+0x3a>
    if (hal_port == GPIOB) return GpioPortType::PORT_B;
 8001b08:	4a0e      	ldr	r2, [pc, #56]	@ (8001b44 <_ZN13GpioInterface17createDigitalGpioEP12GPIO_TypeDeft+0x4c>)
 8001b0a:	1924      	adds	r4, r4, r4
 8001b0c:	4293      	cmp	r3, r2
 8001b0e:	d010      	beq.n	8001b32 <_ZN13GpioInterface17createDigitalGpioEP12GPIO_TypeDeft+0x3a>
    if (hal_port == GPIOC) return GpioPortType::PORT_C;
 8001b10:	4a0d      	ldr	r2, [pc, #52]	@ (8001b48 <_ZN13GpioInterface17createDigitalGpioEP12GPIO_TypeDeft+0x50>)
 8001b12:	3401      	adds	r4, #1
 8001b14:	4293      	cmp	r3, r2
 8001b16:	d00c      	beq.n	8001b32 <_ZN13GpioInterface17createDigitalGpioEP12GPIO_TypeDeft+0x3a>
    if (hal_port == GPIOF) return GpioPortType::PORT_F;
 8001b18:	4a0c      	ldr	r2, [pc, #48]	@ (8001b4c <_ZN13GpioInterface17createDigitalGpioEP12GPIO_TypeDeft+0x54>)
 8001b1a:	3403      	adds	r4, #3
 8001b1c:	4293      	cmp	r3, r2
 8001b1e:	d008      	beq.n	8001b32 <_ZN13GpioInterface17createDigitalGpioEP12GPIO_TypeDeft+0x3a>
#ifdef GPIOD
    if (hal_port == GPIOD) return GpioPortType::PORT_D;
 8001b20:	4a0b      	ldr	r2, [pc, #44]	@ (8001b50 <_ZN13GpioInterface17createDigitalGpioEP12GPIO_TypeDeft+0x58>)
 8001b22:	3c02      	subs	r4, #2
 8001b24:	4293      	cmp	r3, r2
 8001b26:	d004      	beq.n	8001b32 <_ZN13GpioInterface17createDigitalGpioEP12GPIO_TypeDeft+0x3a>
#endif
#ifdef GPIOE
    if (hal_port == GPIOE) return GpioPortType::PORT_E;
 8001b28:	4a0a      	ldr	r2, [pc, #40]	@ (8001b54 <_ZN13GpioInterface17createDigitalGpioEP12GPIO_TypeDeft+0x5c>)
 8001b2a:	3401      	adds	r4, #1
 8001b2c:	4293      	cmp	r3, r2
 8001b2e:	d000      	beq.n	8001b32 <_ZN13GpioInterface17createDigitalGpioEP12GPIO_TypeDeft+0x3a>
#endif
    return GpioPortType::UNKNOWN_PORT; // fallback
 8001b30:	2400      	movs	r4, #0
    return GpioPin(toGpioPortType(gpio_port), static_cast<uint16_t>(toGpioPinNumber(hal_pin)));
 8001b32:	f7ff ffa1 	bl	8001a78 <_Z15toGpioPinNumbert>
 8001b36:	aa01      	add	r2, sp, #4
 8001b38:	7014      	strb	r4, [r2, #0]
 8001b3a:	0403      	lsls	r3, r0, #16
 8001b3c:	8810      	ldrh	r0, [r2, #0]
 8001b3e:	4318      	orrs	r0, r3
}
 8001b40:	bd16      	pop	{r1, r2, r4, pc}
 8001b42:	46c0      	nop			@ (mov r8, r8)
 8001b44:	48000400 	.word	0x48000400
 8001b48:	48000800 	.word	0x48000800
 8001b4c:	48001400 	.word	0x48001400
 8001b50:	48000c00 	.word	0x48000c00
 8001b54:	48001000 	.word	0x48001000

08001b58 <_ZN13GpioInterface12digitalWriteERK7GpioPin12GpioPinState>:
AnalogGpio GpioInterface::createAnalogGpio(uint32_t adc_channel, float voltage_divider_ratio) {
    return AnalogGpio(adc_channel, voltage_divider_ratio);
}
#endif

InterfaceStatus GpioInterface::digitalWrite(const GpioPin& gpio_pin, GpioPinState state) {
 8001b58:	b570      	push	{r4, r5, r6, lr}
 8001b5a:	0004      	movs	r4, r0
    bool isValid() const { return port != GpioPortType::UNKNOWN_PORT; }
 8001b5c:	7800      	ldrb	r0, [r0, #0]
 8001b5e:	000d      	movs	r5, r1
    if (not gpio_pin.isValid()) {
        return InterfaceStatus::INTERFACE_ERROR;
 8001b60:	2301      	movs	r3, #1
    if (not gpio_pin.isValid()) {
 8001b62:	2800      	cmp	r0, #0
 8001b64:	d009      	beq.n	8001b7a <_ZN13GpioInterface12digitalWriteERK7GpioPin12GpioPinState+0x22>
    }
    
    GPIO_TypeDef* gpio_port = getGpioPort(gpio_pin.port);
 8001b66:	f7ff ffbb 	bl	8001ae0 <_ZN13GpioInterface11getGpioPortE12GpioPortType>
        return InterfaceStatus::INTERFACE_ERROR;
 8001b6a:	2301      	movs	r3, #1
    if (gpio_port == nullptr) {
 8001b6c:	2800      	cmp	r0, #0
 8001b6e:	d004      	beq.n	8001b7a <_ZN13GpioInterface12digitalWriteERK7GpioPin12GpioPinState+0x22>
        return InterfaceStatus::INTERFACE_ERROR;
    }
    
    HAL_GPIO_WritePin(gpio_port, gpio_pin.pin, static_cast<GPIO_PinState>(state));
 8001b70:	002a      	movs	r2, r5
 8001b72:	8861      	ldrh	r1, [r4, #2]
 8001b74:	f001 fe12 	bl	800379c <HAL_GPIO_WritePin>
    return InterfaceStatus::INTERFACE_OK;
 8001b78:	2300      	movs	r3, #0
}
 8001b7a:	0018      	movs	r0, r3
 8001b7c:	bd70      	pop	{r4, r5, r6, pc}
	...

08001b80 <_ZN26NonVolatileMemoryInterface16writeDataToFlashEPKvj>:
	}
	is_config_memory_valid = true;
	return true;
}

InterfaceStatus NonVolatileMemoryInterface::writeDataToFlash(const void* data, size_t size) {
 8001b80:	b5f0      	push	{r4, r5, r6, r7, lr}
 8001b82:	b087      	sub	sp, #28

	// Prepare to erase the FLASH page
	const uint32_t nbPages = (FLASH_META_DATA_BYTES_SIZE + FLASH_PAGE_SIZE - 1) / FLASH_PAGE_SIZE; // Round up division

	FLASH_EraseInitTypeDef EraseInitStruct = {
 8001b84:	ac03      	add	r4, sp, #12
 8001b86:	0022      	movs	r2, r4
 8001b88:	4b15      	ldr	r3, [pc, #84]	@ (8001be0 <_ZN26NonVolatileMemoryInterface16writeDataToFlashEPKvj+0x60>)
InterfaceStatus NonVolatileMemoryInterface::writeDataToFlash(const void* data, size_t size) {
 8001b8a:	0006      	movs	r6, r0
 8001b8c:	000d      	movs	r5, r1
	FLASH_EraseInitTypeDef EraseInitStruct = {
 8001b8e:	cb83      	ldmia	r3!, {r0, r1, r7}
 8001b90:	c283      	stmia	r2!, {r0, r1, r7}
	};
	uint32_t page_error;

	// Flash operations
	InterfaceStatus status;
	status = static_cast<InterfaceStatus>(HAL_FLASH_Unlock());
 8001b92:	f001 fa47 	bl	8003024 <HAL_FLASH_Unlock>
	if (status != InterfaceStatus::INTERFACE_OK) {
 8001b96:	2800      	cmp	r0, #0
 8001b98:	d107      	bne.n	8001baa <_ZN26NonVolatileMemoryInterface16writeDataToFlashEPKvj+0x2a>
		// Handle unlock error
		return InterfaceStatus::INTERFACE_ERROR;
	}

	// Erase the page
	status = static_cast<InterfaceStatus>(HAL_FLASHEx_Erase(&EraseInitStruct, &page_error));
 8001b9a:	0020      	movs	r0, r4
 8001b9c:	a902      	add	r1, sp, #8
 8001b9e:	f001 fb01 	bl	80031a4 <HAL_FLASHEx_Erase>
 8001ba2:	1e04      	subs	r4, r0, #0
	if (status != InterfaceStatus::INTERFACE_OK) {
 8001ba4:	d005      	beq.n	8001bb2 <_ZN26NonVolatileMemoryInterface16writeDataToFlashEPKvj+0x32>
		// Handle erase error
		HAL_FLASH_Lock();
 8001ba6:	f001 fa63 	bl	8003070 <HAL_FLASH_Lock>
		return InterfaceStatus::INTERFACE_ERROR;
 8001baa:	2401      	movs	r4, #1
	}

	// Lock the FLASH when done
	HAL_FLASH_Lock();
	return InterfaceStatus::INTERFACE_OK;
}
 8001bac:	0020      	movs	r0, r4
 8001bae:	b007      	add	sp, #28
 8001bb0:	bdf0      	pop	{r4, r5, r6, r7, pc}
	const uint32_t word_count = (size + sizeof(uint32_t) - 1) / sizeof(uint32_t); // Round up division
 8001bb2:	3503      	adds	r5, #3
 8001bb4:	08ad      	lsrs	r5, r5, #2
 8001bb6:	00ab      	lsls	r3, r5, #2
	for (size_t i = 0; i < word_count; i++) {
 8001bb8:	0005      	movs	r5, r0
	uint32_t dest_addr = reinterpret_cast<uint32_t>(&NonVolatileMemoryInterface::META_DATA_);
 8001bba:	4f0a      	ldr	r7, [pc, #40]	@ (8001be4 <_ZN26NonVolatileMemoryInterface16writeDataToFlashEPKvj+0x64>)
	for (size_t i = 0; i < word_count; i++) {
 8001bbc:	9301      	str	r3, [sp, #4]
 8001bbe:	9b01      	ldr	r3, [sp, #4]
 8001bc0:	429d      	cmp	r5, r3
 8001bc2:	d102      	bne.n	8001bca <_ZN26NonVolatileMemoryInterface16writeDataToFlashEPKvj+0x4a>
	HAL_FLASH_Lock();
 8001bc4:	f001 fa54 	bl	8003070 <HAL_FLASH_Lock>
	return InterfaceStatus::INTERFACE_OK;
 8001bc8:	e7f0      	b.n	8001bac <_ZN26NonVolatileMemoryInterface16writeDataToFlashEPKvj+0x2c>
		status = static_cast<InterfaceStatus>(HAL_FLASH_Program(FLASH_TYPEPROGRAM_WORD, dest_addr + (i*sizeof(uint32_t)), src_ptr[i]));
 8001bca:	5972      	ldr	r2, [r6, r5]
 8001bcc:	1979      	adds	r1, r7, r5
 8001bce:	2300      	movs	r3, #0
 8001bd0:	2002      	movs	r0, #2
 8001bd2:	f001 f991 	bl	8002ef8 <HAL_FLASH_Program>
		if (status != InterfaceStatus::INTERFACE_OK) {
 8001bd6:	3504      	adds	r5, #4
 8001bd8:	2800      	cmp	r0, #0
 8001bda:	d0f0      	beq.n	8001bbe <_ZN26NonVolatileMemoryInterface16writeDataToFlashEPKvj+0x3e>
 8001bdc:	e7e3      	b.n	8001ba6 <_ZN26NonVolatileMemoryInterface16writeDataToFlashEPKvj+0x26>
 8001bde:	46c0      	nop			@ (mov r8, r8)
 8001be0:	0800481c 	.word	0x0800481c
 8001be4:	08005000 	.word	0x08005000

08001be8 <_ZN26NonVolatileMemoryInterface32updateProgrammingStateOnMetaDataE16ProgrammingState>:
	}
	return writeDataToFlash(&updated_meta_data, sizeof(MetaData));
#pragma GCC diagnostic pop
}

InterfaceStatus NonVolatileMemoryInterface::updateProgrammingStateOnMetaData(const ProgrammingState new_state) {
 8001be8:	b530      	push	{r4, r5, lr}
#pragma GCC diagnostic push
#pragma GCC diagnostic ignored "-Wclass-memaccess"
#pragma GCC diagnostic ignored "-Waddress-of-packed-member"
	// Create a local copy of the configuration
	MetaData updated_meta_data{};
	memcpy(&updated_meta_data, const_cast<const MetaData*>(&NonVolatileMemoryInterface::META_DATA_), sizeof(MetaData));
 8001bea:	2529      	movs	r5, #41	@ 0x29
InterfaceStatus NonVolatileMemoryInterface::updateProgrammingStateOnMetaData(const ProgrammingState new_state) {
 8001bec:	0004      	movs	r4, r0
 8001bee:	b08d      	sub	sp, #52	@ 0x34
	memcpy(&updated_meta_data, const_cast<const MetaData*>(&NonVolatileMemoryInterface::META_DATA_), sizeof(MetaData));
 8001bf0:	002a      	movs	r2, r5
 8001bf2:	4906      	ldr	r1, [pc, #24]	@ (8001c0c <_ZN26NonVolatileMemoryInterface32updateProgrammingStateOnMetaDataE16ProgrammingState+0x24>)
 8001bf4:	a801      	add	r0, sp, #4
 8001bf6:	f002 fdfb 	bl	80047f0 <memcpy>

	// Update the programming state
	updated_meta_data.programming_state = new_state;
 8001bfa:	ab0b      	add	r3, sp, #44	@ 0x2c

	// Write the updated data to flash
	return writeDataToFlash(&updated_meta_data, sizeof(MetaData));
 8001bfc:	0029      	movs	r1, r5
 8001bfe:	a801      	add	r0, sp, #4
	updated_meta_data.programming_state = new_state;
 8001c00:	701c      	strb	r4, [r3, #0]
	return writeDataToFlash(&updated_meta_data, sizeof(MetaData));
 8001c02:	f7ff ffbd 	bl	8001b80 <_ZN26NonVolatileMemoryInterface16writeDataToFlashEPKvj>
#pragma GCC diagnostic pop
}
 8001c06:	b00d      	add	sp, #52	@ 0x34
 8001c08:	bd30      	pop	{r4, r5, pc}
 8001c0a:	46c0      	nop			@ (mov r8, r8)
 8001c0c:	08005000 	.word	0x08005000

08001c10 <_ZN15SystemInterface5delayEm>:
#include "system_interface.hpp"
#include "comm_interface.hpp"

volatile uint32_t __attribute__((section(".ram_vector,\"aw\",%nobits @"))) ram_vector[VECTOR_TABLE_SIZE];

void SystemInterface::delay(const uint32_t delay_ms) {
 8001c10:	b510      	push	{r4, lr}
	HAL_Delay(delay_ms);
 8001c12:	f000 f88f 	bl	8001d34 <HAL_Delay>
}
 8001c16:	bd10      	pop	{r4, pc}

08001c18 <Reset_Handler>:

  .section .text.Reset_Handler
  .weak Reset_Handler
  .type Reset_Handler, %function
Reset_Handler:
  ldr   r0, =_estack
 8001c18:	480d      	ldr	r0, [pc, #52]	@ (8001c50 <LoopForever+0x2>)
  mov   sp, r0          /* set stack pointer */
 8001c1a:	4685      	mov	sp, r0
  
/* Call the clock system initialization function.*/
  bl  SystemInit
 8001c1c:	f7ff f96a 	bl	8000ef4 <SystemInit>

/* Copy the data segment initializers from flash to SRAM */
  ldr r0, =_sdata
 8001c20:	480c      	ldr	r0, [pc, #48]	@ (8001c54 <LoopForever+0x6>)
  ldr r1, =_edata
 8001c22:	490d      	ldr	r1, [pc, #52]	@ (8001c58 <LoopForever+0xa>)
  ldr r2, =_sidata
 8001c24:	4a0d      	ldr	r2, [pc, #52]	@ (8001c5c <LoopForever+0xe>)
  movs r3, #0
 8001c26:	2300      	movs	r3, #0
  b LoopCopyDataInit
 8001c28:	e002      	b.n	8001c30 <LoopCopyDataInit>

08001c2a <CopyDataInit>:

CopyDataInit:
  ldr r4, [r2, r3]
 8001c2a:	58d4      	ldr	r4, [r2, r3]
  str r4, [r0, r3]
 8001c2c:	50c4      	str	r4, [r0, r3]
  adds r3, r3, #4
 8001c2e:	3304      	adds	r3, #4

08001c30 <LoopCopyDataInit>:

LoopCopyDataInit:
  adds r4, r0, r3
 8001c30:	18c4      	adds	r4, r0, r3
  cmp r4, r1
 8001c32:	428c      	cmp	r4, r1
  bcc CopyDataInit
 8001c34:	d3f9      	bcc.n	8001c2a <CopyDataInit>
  
/* Zero fill the bss segment. */
  ldr r2, =_sbss
 8001c36:	4a0a      	ldr	r2, [pc, #40]	@ (8001c60 <LoopForever+0x12>)
  ldr r4, =_ebss
 8001c38:	4c0a      	ldr	r4, [pc, #40]	@ (8001c64 <LoopForever+0x16>)
  movs r3, #0
 8001c3a:	2300      	movs	r3, #0
  b LoopFillZerobss
 8001c3c:	e001      	b.n	8001c42 <LoopFillZerobss>

08001c3e <FillZerobss>:

FillZerobss:
  str  r3, [r2]
 8001c3e:	6013      	str	r3, [r2, #0]
  adds r2, r2, #4
 8001c40:	3204      	adds	r2, #4

08001c42 <LoopFillZerobss>:

LoopFillZerobss:
  cmp r2, r4
 8001c42:	42a2      	cmp	r2, r4
  bcc FillZerobss
 8001c44:	d3fb      	bcc.n	8001c3e <FillZerobss>

/* Call static constructors */
  bl __libc_init_array
 8001c46:	f002 fdad 	bl	80047a4 <__libc_init_array>
/* Call the application's entry point.*/
  bl main
 8001c4a:	f7fe ff2d 	bl	8000aa8 <main>

08001c4e <LoopForever>:

LoopForever:
    b LoopForever
 8001c4e:	e7fe      	b.n	8001c4e <LoopForever>
  ldr   r0, =_estack
 8001c50:	20004000 	.word	0x20004000
  ldr r0, =_sdata
 8001c54:	20000000 	.word	0x20000000
  ldr r1, =_edata
 8001c58:	20000060 	.word	0x20000060
  ldr r2, =_sidata
 8001c5c:	080048ec 	.word	0x080048ec
  ldr r2, =_sbss
 8001c60:	20000060 	.word	0x20000060
  ldr r4, =_ebss
 8001c64:	20000744 	.word	0x20000744

08001c68 <ADC1_COMP_IRQHandler>:
 * @retval : None
*/
    .section .text.Default_Handler,"ax",%progbits
Default_Handler:
Infinite_Loop:
  b Infinite_Loop
 8001c68:	e7fe      	b.n	8001c68 <ADC1_COMP_IRQHandler>
	...

08001c6c <HAL_Init>:
  *       In the default implementation,Systick is used as source of time base.
  *       The tick variable is incremented each 1ms in its ISR.
  * @retval HAL status
  */
HAL_StatusTypeDef HAL_Init(void)
{
 8001c6c:	b580      	push	{r7, lr}
 8001c6e:	af00      	add	r7, sp, #0
  /* Configure Flash prefetch */ 
#if (PREFETCH_ENABLE != 0)
  __HAL_FLASH_PREFETCH_BUFFER_ENABLE();
 8001c70:	4b07      	ldr	r3, [pc, #28]	@ (8001c90 <HAL_Init+0x24>)
 8001c72:	681a      	ldr	r2, [r3, #0]
 8001c74:	4b06      	ldr	r3, [pc, #24]	@ (8001c90 <HAL_Init+0x24>)
 8001c76:	2110      	movs	r1, #16
 8001c78:	430a      	orrs	r2, r1
 8001c7a:	601a      	str	r2, [r3, #0]
#endif /* PREFETCH_ENABLE */

  /* Use systick as time base source and configure 1ms tick (default clock after Reset is HSI) */

  HAL_InitTick(TICK_INT_PRIORITY);
 8001c7c:	2003      	movs	r0, #3
 8001c7e:	f000 f809 	bl	8001c94 <HAL_InitTick>

  /* Init the low level hardware */
  HAL_MspInit();
 8001c82:	f7fe ffa5 	bl	8000bd0 <HAL_MspInit>

  /* Return function status */
  return HAL_OK;
 8001c86:	2300      	movs	r3, #0
}
 8001c88:	0018      	movs	r0, r3
 8001c8a:	46bd      	mov	sp, r7
 8001c8c:	bd80      	pop	{r7, pc}
 8001c8e:	46c0      	nop			@ (mov r8, r8)
 8001c90:	40022000 	.word	0x40022000

08001c94 <HAL_InitTick>:
  *       implementation  in user file.
  * @param TickPriority Tick interrupt priority.
  * @retval HAL status
  */
__weak HAL_StatusTypeDef HAL_InitTick(uint32_t TickPriority)
{
 8001c94:	b590      	push	{r4, r7, lr}
 8001c96:	b083      	sub	sp, #12
 8001c98:	af00      	add	r7, sp, #0
 8001c9a:	6078      	str	r0, [r7, #4]
  /*Configure the SysTick to have interrupt in 1ms time basis*/
  if (HAL_SYSTICK_Config(SystemCoreClock / (1000U / uwTickFreq)) > 0U)
 8001c9c:	4b14      	ldr	r3, [pc, #80]	@ (8001cf0 <HAL_InitTick+0x5c>)
 8001c9e:	681c      	ldr	r4, [r3, #0]
 8001ca0:	4b14      	ldr	r3, [pc, #80]	@ (8001cf4 <HAL_InitTick+0x60>)
 8001ca2:	781b      	ldrb	r3, [r3, #0]
 8001ca4:	0019      	movs	r1, r3
 8001ca6:	23fa      	movs	r3, #250	@ 0xfa
 8001ca8:	0098      	lsls	r0, r3, #2
 8001caa:	f7fe fa37 	bl	800011c <__udivsi3>
 8001cae:	0003      	movs	r3, r0
 8001cb0:	0019      	movs	r1, r3
 8001cb2:	0020      	movs	r0, r4
 8001cb4:	f7fe fa32 	bl	800011c <__udivsi3>
 8001cb8:	0003      	movs	r3, r0
 8001cba:	0018      	movs	r0, r3
 8001cbc:	f001 f8c9 	bl	8002e52 <HAL_SYSTICK_Config>
 8001cc0:	1e03      	subs	r3, r0, #0
 8001cc2:	d001      	beq.n	8001cc8 <HAL_InitTick+0x34>
  {
    return HAL_ERROR;
 8001cc4:	2301      	movs	r3, #1
 8001cc6:	e00f      	b.n	8001ce8 <HAL_InitTick+0x54>
  }

  /* Configure the SysTick IRQ priority */
  if (TickPriority < (1UL << __NVIC_PRIO_BITS))
 8001cc8:	687b      	ldr	r3, [r7, #4]
 8001cca:	2b03      	cmp	r3, #3
 8001ccc:	d80b      	bhi.n	8001ce6 <HAL_InitTick+0x52>
  {
    HAL_NVIC_SetPriority(SysTick_IRQn, TickPriority, 0U);
 8001cce:	6879      	ldr	r1, [r7, #4]
 8001cd0:	2301      	movs	r3, #1
 8001cd2:	425b      	negs	r3, r3
 8001cd4:	2200      	movs	r2, #0
 8001cd6:	0018      	movs	r0, r3
 8001cd8:	f001 f886 	bl	8002de8 <HAL_NVIC_SetPriority>
    uwTickPrio = TickPriority;
 8001cdc:	4b06      	ldr	r3, [pc, #24]	@ (8001cf8 <HAL_InitTick+0x64>)
 8001cde:	687a      	ldr	r2, [r7, #4]
 8001ce0:	601a      	str	r2, [r3, #0]
  {
    return HAL_ERROR;
  }

   /* Return function status */
  return HAL_OK;
 8001ce2:	2300      	movs	r3, #0
 8001ce4:	e000      	b.n	8001ce8 <HAL_InitTick+0x54>
    return HAL_ERROR;
 8001ce6:	2301      	movs	r3, #1
}
 8001ce8:	0018      	movs	r0, r3
 8001cea:	46bd      	mov	sp, r7
 8001cec:	b003      	add	sp, #12
 8001cee:	bd90      	pop	{r4, r7, pc}
 8001cf0:	20000004 	.word	0x20000004
 8001cf4:	2000000c 	.word	0x2000000c
 8001cf8:	20000008 	.word	0x20000008

08001cfc <HAL_IncTick>:
  * @note This function is declared as __weak to be overwritten in case of other 
  *       implementations in user file.
  * @retval None
  */
__weak void HAL_IncTick(void)
{
 8001cfc:	b580      	push	{r7, lr}
 8001cfe:	af00      	add	r7, sp, #0
  uwTick += uwTickFreq;
 8001d00:	4b05      	ldr	r3, [pc, #20]	@ (8001d18 <HAL_IncTick+0x1c>)
 8001d02:	781b      	ldrb	r3, [r3, #0]
 8001d04:	001a      	movs	r2, r3
 8001d06:	4b05      	ldr	r3, [pc, #20]	@ (8001d1c <HAL_IncTick+0x20>)
 8001d08:	681b      	ldr	r3, [r3, #0]
 8001d0a:	18d2      	adds	r2, r2, r3
 8001d0c:	4b03      	ldr	r3, [pc, #12]	@ (8001d1c <HAL_IncTick+0x20>)
 8001d0e:	601a      	str	r2, [r3, #0]
}
 8001d10:	46c0      	nop			@ (mov r8, r8)
 8001d12:	46bd      	mov	sp, r7
 8001d14:	bd80      	pop	{r7, pc}
 8001d16:	46c0      	nop			@ (mov r8, r8)
 8001d18:	2000000c 	.word	0x2000000c
 8001d1c:	200005d4 	.word	0x200005d4

08001d20 <HAL_GetTick>:
  * @note   This function is declared as __weak  to be overwritten  in case of other 
  *       implementations in user file.
  * @retval tick value
  */
__weak uint32_t HAL_GetTick(void)
{
 8001d20:	b580      	push	{r7, lr}
 8001d22:	af00      	add	r7, sp, #0
  return uwTick;
 8001d24:	4b02      	ldr	r3, [pc, #8]	@ (8001d30 <HAL_GetTick+0x10>)
 8001d26:	681b      	ldr	r3, [r3, #0]
}
 8001d28:	0018      	movs	r0, r3
 8001d2a:	46bd      	mov	sp, r7
 8001d2c:	bd80      	pop	{r7, pc}
 8001d2e:	46c0      	nop			@ (mov r8, r8)
 8001d30:	200005d4 	.word	0x200005d4

08001d34 <HAL_Delay>:
  *       implementations in user file.
  * @param Delay specifies the delay time length, in milliseconds.
  * @retval None
  */
__weak void HAL_Delay(uint32_t Delay)
{
 8001d34:	b580      	push	{r7, lr}
 8001d36:	b084      	sub	sp, #16
 8001d38:	af00      	add	r7, sp, #0
 8001d3a:	6078      	str	r0, [r7, #4]
  uint32_t tickstart = HAL_GetTick();
 8001d3c:	f7ff fff0 	bl	8001d20 <HAL_GetTick>
 8001d40:	0003      	movs	r3, r0
 8001d42:	60bb      	str	r3, [r7, #8]
  uint32_t wait = Delay;
 8001d44:	687b      	ldr	r3, [r7, #4]
 8001d46:	60fb      	str	r3, [r7, #12]
  
  /* Add a freq to guarantee minimum wait */
  if (wait < HAL_MAX_DELAY)
 8001d48:	68fb      	ldr	r3, [r7, #12]
 8001d4a:	3301      	adds	r3, #1
 8001d4c:	d005      	beq.n	8001d5a <HAL_Delay+0x26>
  {
    wait += (uint32_t)(uwTickFreq);
 8001d4e:	4b0a      	ldr	r3, [pc, #40]	@ (8001d78 <HAL_Delay+0x44>)
 8001d50:	781b      	ldrb	r3, [r3, #0]
 8001d52:	001a      	movs	r2, r3
 8001d54:	68fb      	ldr	r3, [r7, #12]
 8001d56:	189b      	adds	r3, r3, r2
 8001d58:	60fb      	str	r3, [r7, #12]
  }
  
  while((HAL_GetTick() - tickstart) < wait)
 8001d5a:	46c0      	nop			@ (mov r8, r8)
 8001d5c:	f7ff ffe0 	bl	8001d20 <HAL_GetTick>
 8001d60:	0002      	movs	r2, r0
 8001d62:	68bb      	ldr	r3, [r7, #8]
 8001d64:	1ad3      	subs	r3, r2, r3
 8001d66:	68fa      	ldr	r2, [r7, #12]
 8001d68:	429a      	cmp	r2, r3
 8001d6a:	d8f7      	bhi.n	8001d5c <HAL_Delay+0x28>
  {
  }
}
 8001d6c:	46c0      	nop			@ (mov r8, r8)
 8001d6e:	46c0      	nop			@ (mov r8, r8)
 8001d70:	46bd      	mov	sp, r7
 8001d72:	b004      	add	sp, #16
 8001d74:	bd80      	pop	{r7, pc}
 8001d76:	46c0      	nop			@ (mov r8, r8)
 8001d78:	2000000c 	.word	0x2000000c

08001d7c <HAL_CAN_Init>:
  * @param  hcan pointer to a CAN_HandleTypeDef structure that contains
  *         the configuration information for the specified CAN.
  * @retval HAL status
  */
HAL_StatusTypeDef HAL_CAN_Init(CAN_HandleTypeDef *hcan)
{
 8001d7c:	b580      	push	{r7, lr}
 8001d7e:	b084      	sub	sp, #16
 8001d80:	af00      	add	r7, sp, #0
 8001d82:	6078      	str	r0, [r7, #4]
  uint32_t tickstart;

  /* Check CAN handle */
  if (hcan == NULL)
 8001d84:	687b      	ldr	r3, [r7, #4]
 8001d86:	2b00      	cmp	r3, #0
 8001d88:	d101      	bne.n	8001d8e <HAL_CAN_Init+0x12>
  {
    return HAL_ERROR;
 8001d8a:	2301      	movs	r3, #1
 8001d8c:	e0f0      	b.n	8001f70 <HAL_CAN_Init+0x1f4>
    /* Init the low level hardware: CLOCK, NVIC */
    hcan->MspInitCallback(hcan);
  }

#else
  if (hcan->State == HAL_CAN_STATE_RESET)
 8001d8e:	687b      	ldr	r3, [r7, #4]
 8001d90:	2220      	movs	r2, #32
 8001d92:	5c9b      	ldrb	r3, [r3, r2]
 8001d94:	b2db      	uxtb	r3, r3
 8001d96:	2b00      	cmp	r3, #0
 8001d98:	d103      	bne.n	8001da2 <HAL_CAN_Init+0x26>
  {
    /* Init the low level hardware: CLOCK, NVIC */
    HAL_CAN_MspInit(hcan);
 8001d9a:	687b      	ldr	r3, [r7, #4]
 8001d9c:	0018      	movs	r0, r3
 8001d9e:	f7fe ff3b 	bl	8000c18 <HAL_CAN_MspInit>
  }
#endif /* USE_HAL_CAN_REGISTER_CALLBACKS */

  /* Request initialisation */
  SET_BIT(hcan->Instance->MCR, CAN_MCR_INRQ);
 8001da2:	687b      	ldr	r3, [r7, #4]
 8001da4:	681b      	ldr	r3, [r3, #0]
 8001da6:	681a      	ldr	r2, [r3, #0]
 8001da8:	687b      	ldr	r3, [r7, #4]
 8001daa:	681b      	ldr	r3, [r3, #0]
 8001dac:	2101      	movs	r1, #1
 8001dae:	430a      	orrs	r2, r1
 8001db0:	601a      	str	r2, [r3, #0]

  /* Get tick */
  tickstart = HAL_GetTick();
 8001db2:	f7ff ffb5 	bl	8001d20 <HAL_GetTick>
 8001db6:	0003      	movs	r3, r0
 8001db8:	60fb      	str	r3, [r7, #12]

  /* Wait initialisation acknowledge */
  while ((hcan->Instance->MSR & CAN_MSR_INAK) == 0U)
 8001dba:	e013      	b.n	8001de4 <HAL_CAN_Init+0x68>
  {
    if ((HAL_GetTick() - tickstart) > CAN_TIMEOUT_VALUE)
 8001dbc:	f7ff ffb0 	bl	8001d20 <HAL_GetTick>
 8001dc0:	0002      	movs	r2, r0
 8001dc2:	68fb      	ldr	r3, [r7, #12]
 8001dc4:	1ad3      	subs	r3, r2, r3
 8001dc6:	2b0a      	cmp	r3, #10
 8001dc8:	d90c      	bls.n	8001de4 <HAL_CAN_Init+0x68>
    {
      /* Update error code */
      hcan->ErrorCode |= HAL_CAN_ERROR_TIMEOUT;
 8001dca:	687b      	ldr	r3, [r7, #4]
 8001dcc:	6a5b      	ldr	r3, [r3, #36]	@ 0x24
 8001dce:	2280      	movs	r2, #128	@ 0x80
 8001dd0:	0292      	lsls	r2, r2, #10
 8001dd2:	431a      	orrs	r2, r3
 8001dd4:	687b      	ldr	r3, [r7, #4]
 8001dd6:	625a      	str	r2, [r3, #36]	@ 0x24

      /* Change CAN state */
      hcan->State = HAL_CAN_STATE_ERROR;
 8001dd8:	687b      	ldr	r3, [r7, #4]
 8001dda:	2220      	movs	r2, #32
 8001ddc:	2105      	movs	r1, #5
 8001dde:	5499      	strb	r1, [r3, r2]

      return HAL_ERROR;
 8001de0:	2301      	movs	r3, #1
 8001de2:	e0c5      	b.n	8001f70 <HAL_CAN_Init+0x1f4>
  while ((hcan->Instance->MSR & CAN_MSR_INAK) == 0U)
 8001de4:	687b      	ldr	r3, [r7, #4]
 8001de6:	681b      	ldr	r3, [r3, #0]
 8001de8:	685b      	ldr	r3, [r3, #4]
 8001dea:	2201      	movs	r2, #1
 8001dec:	4013      	ands	r3, r2
 8001dee:	d0e5      	beq.n	8001dbc <HAL_CAN_Init+0x40>
    }
  }

  /* Exit from sleep mode */
  CLEAR_BIT(hcan->Instance->MCR, CAN_MCR_SLEEP);
 8001df0:	687b      	ldr	r3, [r7, #4]
 8001df2:	681b      	ldr	r3, [r3, #0]
 8001df4:	681a      	ldr	r2, [r3, #0]
 8001df6:	687b      	ldr	r3, [r7, #4]
 8001df8:	681b      	ldr	r3, [r3, #0]
 8001dfa:	2102      	movs	r1, #2
 8001dfc:	438a      	bics	r2, r1
 8001dfe:	601a      	str	r2, [r3, #0]

  /* Get tick */
  tickstart = HAL_GetTick();
 8001e00:	f7ff ff8e 	bl	8001d20 <HAL_GetTick>
 8001e04:	0003      	movs	r3, r0
 8001e06:	60fb      	str	r3, [r7, #12]

  /* Check Sleep mode leave acknowledge */
  while ((hcan->Instance->MSR & CAN_MSR_SLAK) != 0U)
 8001e08:	e013      	b.n	8001e32 <HAL_CAN_Init+0xb6>
  {
    if ((HAL_GetTick() - tickstart) > CAN_TIMEOUT_VALUE)
 8001e0a:	f7ff ff89 	bl	8001d20 <HAL_GetTick>
 8001e0e:	0002      	movs	r2, r0
 8001e10:	68fb      	ldr	r3, [r7, #12]
 8001e12:	1ad3      	subs	r3, r2, r3
 8001e14:	2b0a      	cmp	r3, #10
 8001e16:	d90c      	bls.n	8001e32 <HAL_CAN_Init+0xb6>
    {
      /* Update error code */
      hcan->ErrorCode |= HAL_CAN_ERROR_TIMEOUT;
 8001e18:	687b      	ldr	r3, [r7, #4]
 8001e1a:	6a5b      	ldr	r3, [r3, #36]	@ 0x24
 8001e1c:	2280      	movs	r2, #128	@ 0x80
 8001e1e:	0292      	lsls	r2, r2, #10
 8001e20:	431a      	orrs	r2, r3
 8001e22:	687b      	ldr	r3, [r7, #4]
 8001e24:	625a      	str	r2, [r3, #36]	@ 0x24

      /* Change CAN state */
      hcan->State = HAL_CAN_STATE_ERROR;
 8001e26:	687b      	ldr	r3, [r7, #4]
 8001e28:	2220      	movs	r2, #32
 8001e2a:	2105      	movs	r1, #5
 8001e2c:	5499      	strb	r1, [r3, r2]

      return HAL_ERROR;
 8001e2e:	2301      	movs	r3, #1
 8001e30:	e09e      	b.n	8001f70 <HAL_CAN_Init+0x1f4>
  while ((hcan->Instance->MSR & CAN_MSR_SLAK) != 0U)
 8001e32:	687b      	ldr	r3, [r7, #4]
 8001e34:	681b      	ldr	r3, [r3, #0]
 8001e36:	685b      	ldr	r3, [r3, #4]
 8001e38:	2202      	movs	r2, #2
 8001e3a:	4013      	ands	r3, r2
 8001e3c:	d1e5      	bne.n	8001e0a <HAL_CAN_Init+0x8e>
    }
  }

  /* Set the time triggered communication mode */
  if (hcan->Init.TimeTriggeredMode == ENABLE)
 8001e3e:	687b      	ldr	r3, [r7, #4]
 8001e40:	7e1b      	ldrb	r3, [r3, #24]
 8001e42:	2b01      	cmp	r3, #1
 8001e44:	d108      	bne.n	8001e58 <HAL_CAN_Init+0xdc>
  {
    SET_BIT(hcan->Instance->MCR, CAN_MCR_TTCM);
 8001e46:	687b      	ldr	r3, [r7, #4]
 8001e48:	681b      	ldr	r3, [r3, #0]
 8001e4a:	681a      	ldr	r2, [r3, #0]
 8001e4c:	687b      	ldr	r3, [r7, #4]
 8001e4e:	681b      	ldr	r3, [r3, #0]
 8001e50:	2180      	movs	r1, #128	@ 0x80
 8001e52:	430a      	orrs	r2, r1
 8001e54:	601a      	str	r2, [r3, #0]
 8001e56:	e007      	b.n	8001e68 <HAL_CAN_Init+0xec>
  }
  else
  {
    CLEAR_BIT(hcan->Instance->MCR, CAN_MCR_TTCM);
 8001e58:	687b      	ldr	r3, [r7, #4]
 8001e5a:	681b      	ldr	r3, [r3, #0]
 8001e5c:	681a      	ldr	r2, [r3, #0]
 8001e5e:	687b      	ldr	r3, [r7, #4]
 8001e60:	681b      	ldr	r3, [r3, #0]
 8001e62:	2180      	movs	r1, #128	@ 0x80
 8001e64:	438a      	bics	r2, r1
 8001e66:	601a      	str	r2, [r3, #0]
  }

  /* Set the automatic bus-off management */
  if (hcan->Init.AutoBusOff == ENABLE)
 8001e68:	687b      	ldr	r3, [r7, #4]
 8001e6a:	7e5b      	ldrb	r3, [r3, #25]
 8001e6c:	2b01      	cmp	r3, #1
 8001e6e:	d108      	bne.n	8001e82 <HAL_CAN_Init+0x106>
  {
    SET_BIT(hcan->Instance->MCR, CAN_MCR_ABOM);
 8001e70:	687b      	ldr	r3, [r7, #4]
 8001e72:	681b      	ldr	r3, [r3, #0]
 8001e74:	681a      	ldr	r2, [r3, #0]
 8001e76:	687b      	ldr	r3, [r7, #4]
 8001e78:	681b      	ldr	r3, [r3, #0]
 8001e7a:	2140      	movs	r1, #64	@ 0x40
 8001e7c:	430a      	orrs	r2, r1
 8001e7e:	601a      	str	r2, [r3, #0]
 8001e80:	e007      	b.n	8001e92 <HAL_CAN_Init+0x116>
  }
  else
  {
    CLEAR_BIT(hcan->Instance->MCR, CAN_MCR_ABOM);
 8001e82:	687b      	ldr	r3, [r7, #4]
 8001e84:	681b      	ldr	r3, [r3, #0]
 8001e86:	681a      	ldr	r2, [r3, #0]
 8001e88:	687b      	ldr	r3, [r7, #4]
 8001e8a:	681b      	ldr	r3, [r3, #0]
 8001e8c:	2140      	movs	r1, #64	@ 0x40
 8001e8e:	438a      	bics	r2, r1
 8001e90:	601a      	str	r2, [r3, #0]
  }

  /* Set the automatic wake-up mode */
  if (hcan->Init.AutoWakeUp == ENABLE)
 8001e92:	687b      	ldr	r3, [r7, #4]
 8001e94:	7e9b      	ldrb	r3, [r3, #26]
 8001e96:	2b01      	cmp	r3, #1
 8001e98:	d108      	bne.n	8001eac <HAL_CAN_Init+0x130>
  {
    SET_BIT(hcan->Instance->MCR, CAN_MCR_AWUM);
 8001e9a:	687b      	ldr	r3, [r7, #4]
 8001e9c:	681b      	ldr	r3, [r3, #0]
 8001e9e:	681a      	ldr	r2, [r3, #0]
 8001ea0:	687b      	ldr	r3, [r7, #4]
 8001ea2:	681b      	ldr	r3, [r3, #0]
 8001ea4:	2120      	movs	r1, #32
 8001ea6:	430a      	orrs	r2, r1
 8001ea8:	601a      	str	r2, [r3, #0]
 8001eaa:	e007      	b.n	8001ebc <HAL_CAN_Init+0x140>
  }
  else
  {
    CLEAR_BIT(hcan->Instance->MCR, CAN_MCR_AWUM);
 8001eac:	687b      	ldr	r3, [r7, #4]
 8001eae:	681b      	ldr	r3, [r3, #0]
 8001eb0:	681a      	ldr	r2, [r3, #0]
 8001eb2:	687b      	ldr	r3, [r7, #4]
 8001eb4:	681b      	ldr	r3, [r3, #0]
 8001eb6:	2120      	movs	r1, #32
 8001eb8:	438a      	bics	r2, r1
 8001eba:	601a      	str	r2, [r3, #0]
  }

  /* Set the automatic retransmission */
  if (hcan->Init.AutoRetransmission == ENABLE)
 8001ebc:	687b      	ldr	r3, [r7, #4]
 8001ebe:	7edb      	ldrb	r3, [r3, #27]
 8001ec0:	2b01      	cmp	r3, #1
 8001ec2:	d108      	bne.n	8001ed6 <HAL_CAN_Init+0x15a>
  {
    CLEAR_BIT(hcan->Instance->MCR, CAN_MCR_NART);
 8001ec4:	687b      	ldr	r3, [r7, #4]
 8001ec6:	681b      	ldr	r3, [r3, #0]
 8001ec8:	681a      	ldr	r2, [r3, #0]
 8001eca:	687b      	ldr	r3, [r7, #4]
 8001ecc:	681b      	ldr	r3, [r3, #0]
 8001ece:	2110      	movs	r1, #16
 8001ed0:	438a      	bics	r2, r1
 8001ed2:	601a      	str	r2, [r3, #0]
 8001ed4:	e007      	b.n	8001ee6 <HAL_CAN_Init+0x16a>
  }
  else
  {
    SET_BIT(hcan->Instance->MCR, CAN_MCR_NART);
 8001ed6:	687b      	ldr	r3, [r7, #4]
 8001ed8:	681b      	ldr	r3, [r3, #0]
 8001eda:	681a      	ldr	r2, [r3, #0]
 8001edc:	687b      	ldr	r3, [r7, #4]
 8001ede:	681b      	ldr	r3, [r3, #0]
 8001ee0:	2110      	movs	r1, #16
 8001ee2:	430a      	orrs	r2, r1
 8001ee4:	601a      	str	r2, [r3, #0]
  }

  /* Set the receive FIFO locked mode */
  if (hcan->Init.ReceiveFifoLocked == ENABLE)
 8001ee6:	687b      	ldr	r3, [r7, #4]
 8001ee8:	7f1b      	ldrb	r3, [r3, #28]
 8001eea:	2b01      	cmp	r3, #1
 8001eec:	d108      	bne.n	8001f00 <HAL_CAN_Init+0x184>
  {
    SET_BIT(hcan->Instance->MCR, CAN_MCR_RFLM);
 8001eee:	687b      	ldr	r3, [r7, #4]
 8001ef0:	681b      	ldr	r3, [r3, #0]
 8001ef2:	681a      	ldr	r2, [r3, #0]
 8001ef4:	687b      	ldr	r3, [r7, #4]
 8001ef6:	681b      	ldr	r3, [r3, #0]
 8001ef8:	2108      	movs	r1, #8
 8001efa:	430a      	orrs	r2, r1
 8001efc:	601a      	str	r2, [r3, #0]
 8001efe:	e007      	b.n	8001f10 <HAL_CAN_Init+0x194>
  }
  else
  {
    CLEAR_BIT(hcan->Instance->MCR, CAN_MCR_RFLM);
 8001f00:	687b      	ldr	r3, [r7, #4]
 8001f02:	681b      	ldr	r3, [r3, #0]
 8001f04:	681a      	ldr	r2, [r3, #0]
 8001f06:	687b      	ldr	r3, [r7, #4]
 8001f08:	681b      	ldr	r3, [r3, #0]
 8001f0a:	2108      	movs	r1, #8
 8001f0c:	438a      	bics	r2, r1
 8001f0e:	601a      	str	r2, [r3, #0]
  }

  /* Set the transmit FIFO priority */
  if (hcan->Init.TransmitFifoPriority == ENABLE)
 8001f10:	687b      	ldr	r3, [r7, #4]
 8001f12:	7f5b      	ldrb	r3, [r3, #29]
 8001f14:	2b01      	cmp	r3, #1
 8001f16:	d108      	bne.n	8001f2a <HAL_CAN_Init+0x1ae>
  {
    SET_BIT(hcan->Instance->MCR, CAN_MCR_TXFP);
 8001f18:	687b      	ldr	r3, [r7, #4]
 8001f1a:	681b      	ldr	r3, [r3, #0]
 8001f1c:	681a      	ldr	r2, [r3, #0]
 8001f1e:	687b      	ldr	r3, [r7, #4]
 8001f20:	681b      	ldr	r3, [r3, #0]
 8001f22:	2104      	movs	r1, #4
 8001f24:	430a      	orrs	r2, r1
 8001f26:	601a      	str	r2, [r3, #0]
 8001f28:	e007      	b.n	8001f3a <HAL_CAN_Init+0x1be>
  }
  else
  {
    CLEAR_BIT(hcan->Instance->MCR, CAN_MCR_TXFP);
 8001f2a:	687b      	ldr	r3, [r7, #4]
 8001f2c:	681b      	ldr	r3, [r3, #0]
 8001f2e:	681a      	ldr	r2, [r3, #0]
 8001f30:	687b      	ldr	r3, [r7, #4]
 8001f32:	681b      	ldr	r3, [r3, #0]
 8001f34:	2104      	movs	r1, #4
 8001f36:	438a      	bics	r2, r1
 8001f38:	601a      	str	r2, [r3, #0]
  }

  /* Set the bit timing register */
  WRITE_REG(hcan->Instance->BTR, (uint32_t)(hcan->Init.Mode           |
 8001f3a:	687b      	ldr	r3, [r7, #4]
 8001f3c:	689a      	ldr	r2, [r3, #8]
 8001f3e:	687b      	ldr	r3, [r7, #4]
 8001f40:	68db      	ldr	r3, [r3, #12]
 8001f42:	431a      	orrs	r2, r3
 8001f44:	687b      	ldr	r3, [r7, #4]
 8001f46:	691b      	ldr	r3, [r3, #16]
 8001f48:	431a      	orrs	r2, r3
 8001f4a:	687b      	ldr	r3, [r7, #4]
 8001f4c:	695b      	ldr	r3, [r3, #20]
 8001f4e:	431a      	orrs	r2, r3
 8001f50:	0011      	movs	r1, r2
 8001f52:	687b      	ldr	r3, [r7, #4]
 8001f54:	685b      	ldr	r3, [r3, #4]
 8001f56:	1e5a      	subs	r2, r3, #1
 8001f58:	687b      	ldr	r3, [r7, #4]
 8001f5a:	681b      	ldr	r3, [r3, #0]
 8001f5c:	430a      	orrs	r2, r1
 8001f5e:	61da      	str	r2, [r3, #28]
                                            hcan->Init.TimeSeg1       |
                                            hcan->Init.TimeSeg2       |
                                            (hcan->Init.Prescaler - 1U)));

  /* Initialize the error code */
  hcan->ErrorCode = HAL_CAN_ERROR_NONE;
 8001f60:	687b      	ldr	r3, [r7, #4]
 8001f62:	2200      	movs	r2, #0
 8001f64:	625a      	str	r2, [r3, #36]	@ 0x24

  /* Initialize the CAN state */
  hcan->State = HAL_CAN_STATE_READY;
 8001f66:	687b      	ldr	r3, [r7, #4]
 8001f68:	2220      	movs	r2, #32
 8001f6a:	2101      	movs	r1, #1
 8001f6c:	5499      	strb	r1, [r3, r2]

  /* Return function status */
  return HAL_OK;
 8001f6e:	2300      	movs	r3, #0
}
 8001f70:	0018      	movs	r0, r3
 8001f72:	46bd      	mov	sp, r7
 8001f74:	b004      	add	sp, #16
 8001f76:	bd80      	pop	{r7, pc}

08001f78 <HAL_CAN_DeInit>:
  * @param  hcan pointer to a CAN_HandleTypeDef structure that contains
  *         the configuration information for the specified CAN.
  * @retval HAL status
  */
HAL_StatusTypeDef HAL_CAN_DeInit(CAN_HandleTypeDef *hcan)
{
 8001f78:	b580      	push	{r7, lr}
 8001f7a:	b082      	sub	sp, #8
 8001f7c:	af00      	add	r7, sp, #0
 8001f7e:	6078      	str	r0, [r7, #4]
  /* Check CAN handle */
  if (hcan == NULL)
 8001f80:	687b      	ldr	r3, [r7, #4]
 8001f82:	2b00      	cmp	r3, #0
 8001f84:	d101      	bne.n	8001f8a <HAL_CAN_DeInit+0x12>
  {
    return HAL_ERROR;
 8001f86:	2301      	movs	r3, #1
 8001f88:	e018      	b.n	8001fbc <HAL_CAN_DeInit+0x44>

  /* Check the parameters */
  assert_param(IS_CAN_ALL_INSTANCE(hcan->Instance));

  /* Stop the CAN module */
  (void)HAL_CAN_Stop(hcan);
 8001f8a:	687b      	ldr	r3, [r7, #4]
 8001f8c:	0018      	movs	r0, r3
 8001f8e:	f000 f951 	bl	8002234 <HAL_CAN_Stop>
  /* DeInit the low level hardware: CLOCK, NVIC */
  hcan->MspDeInitCallback(hcan);

#else
  /* DeInit the low level hardware: CLOCK, NVIC */
  HAL_CAN_MspDeInit(hcan);
 8001f92:	687b      	ldr	r3, [r7, #4]
 8001f94:	0018      	movs	r0, r3
 8001f96:	f7fe fe95 	bl	8000cc4 <HAL_CAN_MspDeInit>
#endif /* USE_HAL_CAN_REGISTER_CALLBACKS */

  /* Reset the CAN peripheral */
  SET_BIT(hcan->Instance->MCR, CAN_MCR_RESET);
 8001f9a:	687b      	ldr	r3, [r7, #4]
 8001f9c:	681b      	ldr	r3, [r3, #0]
 8001f9e:	681a      	ldr	r2, [r3, #0]
 8001fa0:	687b      	ldr	r3, [r7, #4]
 8001fa2:	681b      	ldr	r3, [r3, #0]
 8001fa4:	2180      	movs	r1, #128	@ 0x80
 8001fa6:	0209      	lsls	r1, r1, #8
 8001fa8:	430a      	orrs	r2, r1
 8001faa:	601a      	str	r2, [r3, #0]

  /* Reset the CAN ErrorCode */
  hcan->ErrorCode = HAL_CAN_ERROR_NONE;
 8001fac:	687b      	ldr	r3, [r7, #4]
 8001fae:	2200      	movs	r2, #0
 8001fb0:	625a      	str	r2, [r3, #36]	@ 0x24

  /* Change CAN state */
  hcan->State = HAL_CAN_STATE_RESET;
 8001fb2:	687b      	ldr	r3, [r7, #4]
 8001fb4:	2220      	movs	r2, #32
 8001fb6:	2100      	movs	r1, #0
 8001fb8:	5499      	strb	r1, [r3, r2]

  /* Return function status */
  return HAL_OK;
 8001fba:	2300      	movs	r3, #0
}
 8001fbc:	0018      	movs	r0, r3
 8001fbe:	46bd      	mov	sp, r7
 8001fc0:	b002      	add	sp, #8
 8001fc2:	bd80      	pop	{r7, pc}

08001fc4 <HAL_CAN_ConfigFilter>:
  * @param  sFilterConfig pointer to a CAN_FilterTypeDef structure that
  *         contains the filter configuration information.
  * @retval None
  */
HAL_StatusTypeDef HAL_CAN_ConfigFilter(CAN_HandleTypeDef *hcan, const CAN_FilterTypeDef *sFilterConfig)
{
 8001fc4:	b580      	push	{r7, lr}
 8001fc6:	b086      	sub	sp, #24
 8001fc8:	af00      	add	r7, sp, #0
 8001fca:	6078      	str	r0, [r7, #4]
 8001fcc:	6039      	str	r1, [r7, #0]
  uint32_t filternbrbitpos;
  CAN_TypeDef *can_ip = hcan->Instance;
 8001fce:	687b      	ldr	r3, [r7, #4]
 8001fd0:	681b      	ldr	r3, [r3, #0]
 8001fd2:	617b      	str	r3, [r7, #20]
  HAL_CAN_StateTypeDef state = hcan->State;
 8001fd4:	2013      	movs	r0, #19
 8001fd6:	183b      	adds	r3, r7, r0
 8001fd8:	687a      	ldr	r2, [r7, #4]
 8001fda:	2120      	movs	r1, #32
 8001fdc:	5c52      	ldrb	r2, [r2, r1]
 8001fde:	701a      	strb	r2, [r3, #0]

  if ((state == HAL_CAN_STATE_READY) ||
 8001fe0:	0002      	movs	r2, r0
 8001fe2:	18bb      	adds	r3, r7, r2
 8001fe4:	781b      	ldrb	r3, [r3, #0]
 8001fe6:	2b01      	cmp	r3, #1
 8001fe8:	d004      	beq.n	8001ff4 <HAL_CAN_ConfigFilter+0x30>
 8001fea:	18bb      	adds	r3, r7, r2
 8001fec:	781b      	ldrb	r3, [r3, #0]
 8001fee:	2b02      	cmp	r3, #2
 8001ff0:	d000      	beq.n	8001ff4 <HAL_CAN_ConfigFilter+0x30>
 8001ff2:	e0cd      	b.n	8002190 <HAL_CAN_ConfigFilter+0x1cc>

    /* Check the parameters */
    assert_param(IS_CAN_FILTER_BANK_SINGLE(sFilterConfig->FilterBank));

    /* Initialisation mode for the filter */
    SET_BIT(can_ip->FMR, CAN_FMR_FINIT);
 8001ff4:	697a      	ldr	r2, [r7, #20]
 8001ff6:	2380      	movs	r3, #128	@ 0x80
 8001ff8:	009b      	lsls	r3, r3, #2
 8001ffa:	58d3      	ldr	r3, [r2, r3]
 8001ffc:	2201      	movs	r2, #1
 8001ffe:	431a      	orrs	r2, r3
 8002000:	0011      	movs	r1, r2
 8002002:	697a      	ldr	r2, [r7, #20]
 8002004:	2380      	movs	r3, #128	@ 0x80
 8002006:	009b      	lsls	r3, r3, #2
 8002008:	50d1      	str	r1, [r2, r3]

    /* Convert filter number into bit position */
    filternbrbitpos = (uint32_t)1 << (sFilterConfig->FilterBank & 0x1FU);
 800200a:	683b      	ldr	r3, [r7, #0]
 800200c:	695b      	ldr	r3, [r3, #20]
 800200e:	221f      	movs	r2, #31
 8002010:	4013      	ands	r3, r2
 8002012:	2201      	movs	r2, #1
 8002014:	409a      	lsls	r2, r3
 8002016:	0013      	movs	r3, r2
 8002018:	60fb      	str	r3, [r7, #12]

    /* Filter Deactivation */
    CLEAR_BIT(can_ip->FA1R, filternbrbitpos);
 800201a:	697a      	ldr	r2, [r7, #20]
 800201c:	2387      	movs	r3, #135	@ 0x87
 800201e:	009b      	lsls	r3, r3, #2
 8002020:	58d3      	ldr	r3, [r2, r3]
 8002022:	68fa      	ldr	r2, [r7, #12]
 8002024:	43d2      	mvns	r2, r2
 8002026:	401a      	ands	r2, r3
 8002028:	0011      	movs	r1, r2
 800202a:	697a      	ldr	r2, [r7, #20]
 800202c:	2387      	movs	r3, #135	@ 0x87
 800202e:	009b      	lsls	r3, r3, #2
 8002030:	50d1      	str	r1, [r2, r3]

    /* Filter Scale */
    if (sFilterConfig->FilterScale == CAN_FILTERSCALE_16BIT)
 8002032:	683b      	ldr	r3, [r7, #0]
 8002034:	69db      	ldr	r3, [r3, #28]
 8002036:	2b00      	cmp	r3, #0
 8002038:	d129      	bne.n	800208e <HAL_CAN_ConfigFilter+0xca>
    {
      /* 16-bit scale for the filter */
      CLEAR_BIT(can_ip->FS1R, filternbrbitpos);
 800203a:	697a      	ldr	r2, [r7, #20]
 800203c:	2383      	movs	r3, #131	@ 0x83
 800203e:	009b      	lsls	r3, r3, #2
 8002040:	58d3      	ldr	r3, [r2, r3]
 8002042:	68fa      	ldr	r2, [r7, #12]
 8002044:	43d2      	mvns	r2, r2
 8002046:	401a      	ands	r2, r3
 8002048:	0011      	movs	r1, r2
 800204a:	697a      	ldr	r2, [r7, #20]
 800204c:	2383      	movs	r3, #131	@ 0x83
 800204e:	009b      	lsls	r3, r3, #2
 8002050:	50d1      	str	r1, [r2, r3]

      /* First 16-bit identifier and First 16-bit mask */
      /* Or First 16-bit identifier and Second 16-bit identifier */
      can_ip->sFilterRegister[sFilterConfig->FilterBank].FR1 =
        ((0x0000FFFFU & (uint32_t)sFilterConfig->FilterMaskIdLow) << 16U) |
 8002052:	683b      	ldr	r3, [r7, #0]
 8002054:	68db      	ldr	r3, [r3, #12]
 8002056:	0418      	lsls	r0, r3, #16
        (0x0000FFFFU & (uint32_t)sFilterConfig->FilterIdLow);
 8002058:	683b      	ldr	r3, [r7, #0]
 800205a:	685b      	ldr	r3, [r3, #4]
 800205c:	041b      	lsls	r3, r3, #16
 800205e:	0c19      	lsrs	r1, r3, #16
      can_ip->sFilterRegister[sFilterConfig->FilterBank].FR1 =
 8002060:	683b      	ldr	r3, [r7, #0]
 8002062:	695a      	ldr	r2, [r3, #20]
        ((0x0000FFFFU & (uint32_t)sFilterConfig->FilterMaskIdLow) << 16U) |
 8002064:	4301      	orrs	r1, r0
      can_ip->sFilterRegister[sFilterConfig->FilterBank].FR1 =
 8002066:	697b      	ldr	r3, [r7, #20]
 8002068:	3248      	adds	r2, #72	@ 0x48
 800206a:	00d2      	lsls	r2, r2, #3
 800206c:	50d1      	str	r1, [r2, r3]

      /* Second 16-bit identifier and Second 16-bit mask */
      /* Or Third 16-bit identifier and Fourth 16-bit identifier */
      can_ip->sFilterRegister[sFilterConfig->FilterBank].FR2 =
        ((0x0000FFFFU & (uint32_t)sFilterConfig->FilterMaskIdHigh) << 16U) |
 800206e:	683b      	ldr	r3, [r7, #0]
 8002070:	689b      	ldr	r3, [r3, #8]
 8002072:	0419      	lsls	r1, r3, #16
        (0x0000FFFFU & (uint32_t)sFilterConfig->FilterIdHigh);
 8002074:	683b      	ldr	r3, [r7, #0]
 8002076:	681b      	ldr	r3, [r3, #0]
 8002078:	041b      	lsls	r3, r3, #16
 800207a:	0c1a      	lsrs	r2, r3, #16
      can_ip->sFilterRegister[sFilterConfig->FilterBank].FR2 =
 800207c:	683b      	ldr	r3, [r7, #0]
 800207e:	695b      	ldr	r3, [r3, #20]
        ((0x0000FFFFU & (uint32_t)sFilterConfig->FilterMaskIdHigh) << 16U) |
 8002080:	430a      	orrs	r2, r1
      can_ip->sFilterRegister[sFilterConfig->FilterBank].FR2 =
 8002082:	6979      	ldr	r1, [r7, #20]
 8002084:	3348      	adds	r3, #72	@ 0x48
 8002086:	00db      	lsls	r3, r3, #3
 8002088:	18cb      	adds	r3, r1, r3
 800208a:	3304      	adds	r3, #4
 800208c:	601a      	str	r2, [r3, #0]
    }

    if (sFilterConfig->FilterScale == CAN_FILTERSCALE_32BIT)
 800208e:	683b      	ldr	r3, [r7, #0]
 8002090:	69db      	ldr	r3, [r3, #28]
 8002092:	2b01      	cmp	r3, #1
 8002094:	d128      	bne.n	80020e8 <HAL_CAN_ConfigFilter+0x124>
    {
      /* 32-bit scale for the filter */
      SET_BIT(can_ip->FS1R, filternbrbitpos);
 8002096:	697a      	ldr	r2, [r7, #20]
 8002098:	2383      	movs	r3, #131	@ 0x83
 800209a:	009b      	lsls	r3, r3, #2
 800209c:	58d2      	ldr	r2, [r2, r3]
 800209e:	68fb      	ldr	r3, [r7, #12]
 80020a0:	431a      	orrs	r2, r3
 80020a2:	0011      	movs	r1, r2
 80020a4:	697a      	ldr	r2, [r7, #20]
 80020a6:	2383      	movs	r3, #131	@ 0x83
 80020a8:	009b      	lsls	r3, r3, #2
 80020aa:	50d1      	str	r1, [r2, r3]

      /* 32-bit identifier or First 32-bit identifier */
      can_ip->sFilterRegister[sFilterConfig->FilterBank].FR1 =
        ((0x0000FFFFU & (uint32_t)sFilterConfig->FilterIdHigh) << 16U) |
 80020ac:	683b      	ldr	r3, [r7, #0]
 80020ae:	681b      	ldr	r3, [r3, #0]
 80020b0:	0418      	lsls	r0, r3, #16
        (0x0000FFFFU & (uint32_t)sFilterConfig->FilterIdLow);
 80020b2:	683b      	ldr	r3, [r7, #0]
 80020b4:	685b      	ldr	r3, [r3, #4]
 80020b6:	041b      	lsls	r3, r3, #16
 80020b8:	0c19      	lsrs	r1, r3, #16
      can_ip->sFilterRegister[sFilterConfig->FilterBank].FR1 =
 80020ba:	683b      	ldr	r3, [r7, #0]
 80020bc:	695a      	ldr	r2, [r3, #20]
        ((0x0000FFFFU & (uint32_t)sFilterConfig->FilterIdHigh) << 16U) |
 80020be:	4301      	orrs	r1, r0
      can_ip->sFilterRegister[sFilterConfig->FilterBank].FR1 =
 80020c0:	697b      	ldr	r3, [r7, #20]
 80020c2:	3248      	adds	r2, #72	@ 0x48
 80020c4:	00d2      	lsls	r2, r2, #3
 80020c6:	50d1      	str	r1, [r2, r3]

      /* 32-bit mask or Second 32-bit identifier */
      can_ip->sFilterRegister[sFilterConfig->FilterBank].FR2 =
        ((0x0000FFFFU & (uint32_t)sFilterConfig->FilterMaskIdHigh) << 16U) |
 80020c8:	683b      	ldr	r3, [r7, #0]
 80020ca:	689b      	ldr	r3, [r3, #8]
 80020cc:	0419      	lsls	r1, r3, #16
        (0x0000FFFFU & (uint32_t)sFilterConfig->FilterMaskIdLow);
 80020ce:	683b      	ldr	r3, [r7, #0]
 80020d0:	68db      	ldr	r3, [r3, #12]
 80020d2:	041b      	lsls	r3, r3, #16
 80020d4:	0c1a      	lsrs	r2, r3, #16
      can_ip->sFilterRegister[sFilterConfig->FilterBank].FR2 =
 80020d6:	683b      	ldr	r3, [r7, #0]
 80020d8:	695b      	ldr	r3, [r3, #20]
        ((0x0000FFFFU & (uint32_t)sFilterConfig->FilterMaskIdHigh) << 16U) |
 80020da:	430a      	orrs	r2, r1
      can_ip->sFilterRegister[sFilterConfig->FilterBank].FR2 =
 80020dc:	6979      	ldr	r1, [r7, #20]
 80020de:	3348      	adds	r3, #72	@ 0x48
 80020e0:	00db      	lsls	r3, r3, #3
 80020e2:	18cb      	adds	r3, r1, r3
 80020e4:	3304      	adds	r3, #4
 80020e6:	601a      	str	r2, [r3, #0]
    }

    /* Filter Mode */
    if (sFilterConfig->FilterMode == CAN_FILTERMODE_IDMASK)
 80020e8:	683b      	ldr	r3, [r7, #0]
 80020ea:	699b      	ldr	r3, [r3, #24]
 80020ec:	2b00      	cmp	r3, #0
 80020ee:	d10c      	bne.n	800210a <HAL_CAN_ConfigFilter+0x146>
    {
      /* Id/Mask mode for the filter*/
      CLEAR_BIT(can_ip->FM1R, filternbrbitpos);
 80020f0:	697a      	ldr	r2, [r7, #20]
 80020f2:	2381      	movs	r3, #129	@ 0x81
 80020f4:	009b      	lsls	r3, r3, #2
 80020f6:	58d3      	ldr	r3, [r2, r3]
 80020f8:	68fa      	ldr	r2, [r7, #12]
 80020fa:	43d2      	mvns	r2, r2
 80020fc:	401a      	ands	r2, r3
 80020fe:	0011      	movs	r1, r2
 8002100:	697a      	ldr	r2, [r7, #20]
 8002102:	2381      	movs	r3, #129	@ 0x81
 8002104:	009b      	lsls	r3, r3, #2
 8002106:	50d1      	str	r1, [r2, r3]
 8002108:	e00a      	b.n	8002120 <HAL_CAN_ConfigFilter+0x15c>
    }
    else /* CAN_FilterInitStruct->CAN_FilterMode == CAN_FilterMode_IdList */
    {
      /* Identifier list mode for the filter*/
      SET_BIT(can_ip->FM1R, filternbrbitpos);
 800210a:	697a      	ldr	r2, [r7, #20]
 800210c:	2381      	movs	r3, #129	@ 0x81
 800210e:	009b      	lsls	r3, r3, #2
 8002110:	58d2      	ldr	r2, [r2, r3]
 8002112:	68fb      	ldr	r3, [r7, #12]
 8002114:	431a      	orrs	r2, r3
 8002116:	0011      	movs	r1, r2
 8002118:	697a      	ldr	r2, [r7, #20]
 800211a:	2381      	movs	r3, #129	@ 0x81
 800211c:	009b      	lsls	r3, r3, #2
 800211e:	50d1      	str	r1, [r2, r3]
    }

    /* Filter FIFO assignment */
    if (sFilterConfig->FilterFIFOAssignment == CAN_FILTER_FIFO0)
 8002120:	683b      	ldr	r3, [r7, #0]
 8002122:	691b      	ldr	r3, [r3, #16]
 8002124:	2b00      	cmp	r3, #0
 8002126:	d10c      	bne.n	8002142 <HAL_CAN_ConfigFilter+0x17e>
    {
      /* FIFO 0 assignation for the filter */
      CLEAR_BIT(can_ip->FFA1R, filternbrbitpos);
 8002128:	697a      	ldr	r2, [r7, #20]
 800212a:	2385      	movs	r3, #133	@ 0x85
 800212c:	009b      	lsls	r3, r3, #2
 800212e:	58d3      	ldr	r3, [r2, r3]
 8002130:	68fa      	ldr	r2, [r7, #12]
 8002132:	43d2      	mvns	r2, r2
 8002134:	401a      	ands	r2, r3
 8002136:	0011      	movs	r1, r2
 8002138:	697a      	ldr	r2, [r7, #20]
 800213a:	2385      	movs	r3, #133	@ 0x85
 800213c:	009b      	lsls	r3, r3, #2
 800213e:	50d1      	str	r1, [r2, r3]
 8002140:	e00a      	b.n	8002158 <HAL_CAN_ConfigFilter+0x194>
    }
    else
    {
      /* FIFO 1 assignation for the filter */
      SET_BIT(can_ip->FFA1R, filternbrbitpos);
 8002142:	697a      	ldr	r2, [r7, #20]
 8002144:	2385      	movs	r3, #133	@ 0x85
 8002146:	009b      	lsls	r3, r3, #2
 8002148:	58d2      	ldr	r2, [r2, r3]
 800214a:	68fb      	ldr	r3, [r7, #12]
 800214c:	431a      	orrs	r2, r3
 800214e:	0011      	movs	r1, r2
 8002150:	697a      	ldr	r2, [r7, #20]
 8002152:	2385      	movs	r3, #133	@ 0x85
 8002154:	009b      	lsls	r3, r3, #2
 8002156:	50d1      	str	r1, [r2, r3]
    }

    /* Filter activation */
    if (sFilterConfig->FilterActivation == CAN_FILTER_ENABLE)
 8002158:	683b      	ldr	r3, [r7, #0]
 800215a:	6a1b      	ldr	r3, [r3, #32]
 800215c:	2b01      	cmp	r3, #1
 800215e:	d10a      	bne.n	8002176 <HAL_CAN_ConfigFilter+0x1b2>
    {
      SET_BIT(can_ip->FA1R, filternbrbitpos);
 8002160:	697a      	ldr	r2, [r7, #20]
 8002162:	2387      	movs	r3, #135	@ 0x87
 8002164:	009b      	lsls	r3, r3, #2
 8002166:	58d2      	ldr	r2, [r2, r3]
 8002168:	68fb      	ldr	r3, [r7, #12]
 800216a:	431a      	orrs	r2, r3
 800216c:	0011      	movs	r1, r2
 800216e:	697a      	ldr	r2, [r7, #20]
 8002170:	2387      	movs	r3, #135	@ 0x87
 8002172:	009b      	lsls	r3, r3, #2
 8002174:	50d1      	str	r1, [r2, r3]
    }

    /* Leave the initialisation mode for the filter */
    CLEAR_BIT(can_ip->FMR, CAN_FMR_FINIT);
 8002176:	697a      	ldr	r2, [r7, #20]
 8002178:	2380      	movs	r3, #128	@ 0x80
 800217a:	009b      	lsls	r3, r3, #2
 800217c:	58d3      	ldr	r3, [r2, r3]
 800217e:	2201      	movs	r2, #1
 8002180:	4393      	bics	r3, r2
 8002182:	0019      	movs	r1, r3
 8002184:	697a      	ldr	r2, [r7, #20]
 8002186:	2380      	movs	r3, #128	@ 0x80
 8002188:	009b      	lsls	r3, r3, #2
 800218a:	50d1      	str	r1, [r2, r3]

    /* Return function status */
    return HAL_OK;
 800218c:	2300      	movs	r3, #0
 800218e:	e007      	b.n	80021a0 <HAL_CAN_ConfigFilter+0x1dc>
  }
  else
  {
    /* Update error code */
    hcan->ErrorCode |= HAL_CAN_ERROR_NOT_INITIALIZED;
 8002190:	687b      	ldr	r3, [r7, #4]
 8002192:	6a5b      	ldr	r3, [r3, #36]	@ 0x24
 8002194:	2280      	movs	r2, #128	@ 0x80
 8002196:	02d2      	lsls	r2, r2, #11
 8002198:	431a      	orrs	r2, r3
 800219a:	687b      	ldr	r3, [r7, #4]
 800219c:	625a      	str	r2, [r3, #36]	@ 0x24

    return HAL_ERROR;
 800219e:	2301      	movs	r3, #1
  }
}
 80021a0:	0018      	movs	r0, r3
 80021a2:	46bd      	mov	sp, r7
 80021a4:	b006      	add	sp, #24
 80021a6:	bd80      	pop	{r7, pc}

080021a8 <HAL_CAN_Start>:
  * @param  hcan pointer to an CAN_HandleTypeDef structure that contains
  *         the configuration information for the specified CAN.
  * @retval HAL status
  */
HAL_StatusTypeDef HAL_CAN_Start(CAN_HandleTypeDef *hcan)
{
 80021a8:	b580      	push	{r7, lr}
 80021aa:	b084      	sub	sp, #16
 80021ac:	af00      	add	r7, sp, #0
 80021ae:	6078      	str	r0, [r7, #4]
  uint32_t tickstart;

  if (hcan->State == HAL_CAN_STATE_READY)
 80021b0:	687b      	ldr	r3, [r7, #4]
 80021b2:	2220      	movs	r2, #32
 80021b4:	5c9b      	ldrb	r3, [r3, r2]
 80021b6:	b2db      	uxtb	r3, r3
 80021b8:	2b01      	cmp	r3, #1
 80021ba:	d12f      	bne.n	800221c <HAL_CAN_Start+0x74>
  {
    /* Change CAN peripheral state */
    hcan->State = HAL_CAN_STATE_LISTENING;
 80021bc:	687b      	ldr	r3, [r7, #4]
 80021be:	2220      	movs	r2, #32
 80021c0:	2102      	movs	r1, #2
 80021c2:	5499      	strb	r1, [r3, r2]

    /* Request leave initialisation */
    CLEAR_BIT(hcan->Instance->MCR, CAN_MCR_INRQ);
 80021c4:	687b      	ldr	r3, [r7, #4]
 80021c6:	681b      	ldr	r3, [r3, #0]
 80021c8:	681a      	ldr	r2, [r3, #0]
 80021ca:	687b      	ldr	r3, [r7, #4]
 80021cc:	681b      	ldr	r3, [r3, #0]
 80021ce:	2101      	movs	r1, #1
 80021d0:	438a      	bics	r2, r1
 80021d2:	601a      	str	r2, [r3, #0]

    /* Get tick */
    tickstart = HAL_GetTick();
 80021d4:	f7ff fda4 	bl	8001d20 <HAL_GetTick>
 80021d8:	0003      	movs	r3, r0
 80021da:	60fb      	str	r3, [r7, #12]

    /* Wait the acknowledge */
    while ((hcan->Instance->MSR & CAN_MSR_INAK) != 0U)
 80021dc:	e013      	b.n	8002206 <HAL_CAN_Start+0x5e>
    {
      /* Check for the Timeout */
      if ((HAL_GetTick() - tickstart) > CAN_TIMEOUT_VALUE)
 80021de:	f7ff fd9f 	bl	8001d20 <HAL_GetTick>
 80021e2:	0002      	movs	r2, r0
 80021e4:	68fb      	ldr	r3, [r7, #12]
 80021e6:	1ad3      	subs	r3, r2, r3
 80021e8:	2b0a      	cmp	r3, #10
 80021ea:	d90c      	bls.n	8002206 <HAL_CAN_Start+0x5e>
      {
        /* Update error code */
        hcan->ErrorCode |= HAL_CAN_ERROR_TIMEOUT;
 80021ec:	687b      	ldr	r3, [r7, #4]
 80021ee:	6a5b      	ldr	r3, [r3, #36]	@ 0x24
 80021f0:	2280      	movs	r2, #128	@ 0x80
 80021f2:	0292      	lsls	r2, r2, #10
 80021f4:	431a      	orrs	r2, r3
 80021f6:	687b      	ldr	r3, [r7, #4]
 80021f8:	625a      	str	r2, [r3, #36]	@ 0x24

        /* Change CAN state */
        hcan->State = HAL_CAN_STATE_ERROR;
 80021fa:	687b      	ldr	r3, [r7, #4]
 80021fc:	2220      	movs	r2, #32
 80021fe:	2105      	movs	r1, #5
 8002200:	5499      	strb	r1, [r3, r2]

        return HAL_ERROR;
 8002202:	2301      	movs	r3, #1
 8002204:	e012      	b.n	800222c <HAL_CAN_Start+0x84>
    while ((hcan->Instance->MSR & CAN_MSR_INAK) != 0U)
 8002206:	687b      	ldr	r3, [r7, #4]
 8002208:	681b      	ldr	r3, [r3, #0]
 800220a:	685b      	ldr	r3, [r3, #4]
 800220c:	2201      	movs	r2, #1
 800220e:	4013      	ands	r3, r2
 8002210:	d1e5      	bne.n	80021de <HAL_CAN_Start+0x36>
      }
    }

    /* Reset the CAN ErrorCode */
    hcan->ErrorCode = HAL_CAN_ERROR_NONE;
 8002212:	687b      	ldr	r3, [r7, #4]
 8002214:	2200      	movs	r2, #0
 8002216:	625a      	str	r2, [r3, #36]	@ 0x24

    /* Return function status */
    return HAL_OK;
 8002218:	2300      	movs	r3, #0
 800221a:	e007      	b.n	800222c <HAL_CAN_Start+0x84>
  }
  else
  {
    /* Update error code */
    hcan->ErrorCode |= HAL_CAN_ERROR_NOT_READY;
 800221c:	687b      	ldr	r3, [r7, #4]
 800221e:	6a5b      	ldr	r3, [r3, #36]	@ 0x24
 8002220:	2280      	movs	r2, #128	@ 0x80
 8002222:	0312      	lsls	r2, r2, #12
 8002224:	431a      	orrs	r2, r3
 8002226:	687b      	ldr	r3, [r7, #4]
 8002228:	625a      	str	r2, [r3, #36]	@ 0x24

    return HAL_ERROR;
 800222a:	2301      	movs	r3, #1
  }
}
 800222c:	0018      	movs	r0, r3
 800222e:	46bd      	mov	sp, r7
 8002230:	b004      	add	sp, #16
 8002232:	bd80      	pop	{r7, pc}

08002234 <HAL_CAN_Stop>:
  * @param  hcan pointer to an CAN_HandleTypeDef structure that contains
  *         the configuration information for the specified CAN.
  * @retval HAL status
  */
HAL_StatusTypeDef HAL_CAN_Stop(CAN_HandleTypeDef *hcan)
{
 8002234:	b580      	push	{r7, lr}
 8002236:	b084      	sub	sp, #16
 8002238:	af00      	add	r7, sp, #0
 800223a:	6078      	str	r0, [r7, #4]
  uint32_t tickstart;

  if (hcan->State == HAL_CAN_STATE_LISTENING)
 800223c:	687b      	ldr	r3, [r7, #4]
 800223e:	2220      	movs	r2, #32
 8002240:	5c9b      	ldrb	r3, [r3, r2]
 8002242:	b2db      	uxtb	r3, r3
 8002244:	2b02      	cmp	r3, #2
 8002246:	d134      	bne.n	80022b2 <HAL_CAN_Stop+0x7e>
  {
    /* Request initialisation */
    SET_BIT(hcan->Instance->MCR, CAN_MCR_INRQ);
 8002248:	687b      	ldr	r3, [r7, #4]
 800224a:	681b      	ldr	r3, [r3, #0]
 800224c:	681a      	ldr	r2, [r3, #0]
 800224e:	687b      	ldr	r3, [r7, #4]
 8002250:	681b      	ldr	r3, [r3, #0]
 8002252:	2101      	movs	r1, #1
 8002254:	430a      	orrs	r2, r1
 8002256:	601a      	str	r2, [r3, #0]

    /* Get tick */
    tickstart = HAL_GetTick();
 8002258:	f7ff fd62 	bl	8001d20 <HAL_GetTick>
 800225c:	0003      	movs	r3, r0
 800225e:	60fb      	str	r3, [r7, #12]

    /* Wait the acknowledge */
    while ((hcan->Instance->MSR & CAN_MSR_INAK) == 0U)
 8002260:	e013      	b.n	800228a <HAL_CAN_Stop+0x56>
    {
      /* Check for the Timeout */
      if ((HAL_GetTick() - tickstart) > CAN_TIMEOUT_VALUE)
 8002262:	f7ff fd5d 	bl	8001d20 <HAL_GetTick>
 8002266:	0002      	movs	r2, r0
 8002268:	68fb      	ldr	r3, [r7, #12]
 800226a:	1ad3      	subs	r3, r2, r3
 800226c:	2b0a      	cmp	r3, #10
 800226e:	d90c      	bls.n	800228a <HAL_CAN_Stop+0x56>
      {
        /* Update error code */
        hcan->ErrorCode |= HAL_CAN_ERROR_TIMEOUT;
 8002270:	687b      	ldr	r3, [r7, #4]
 8002272:	6a5b      	ldr	r3, [r3, #36]	@ 0x24
 8002274:	2280      	movs	r2, #128	@ 0x80
 8002276:	0292      	lsls	r2, r2, #10
 8002278:	431a      	orrs	r2, r3
 800227a:	687b      	ldr	r3, [r7, #4]
 800227c:	625a      	str	r2, [r3, #36]	@ 0x24

        /* Change CAN state */
        hcan->State = HAL_CAN_STATE_ERROR;
 800227e:	687b      	ldr	r3, [r7, #4]
 8002280:	2220      	movs	r2, #32
 8002282:	2105      	movs	r1, #5
 8002284:	5499      	strb	r1, [r3, r2]

        return HAL_ERROR;
 8002286:	2301      	movs	r3, #1
 8002288:	e01b      	b.n	80022c2 <HAL_CAN_Stop+0x8e>
    while ((hcan->Instance->MSR & CAN_MSR_INAK) == 0U)
 800228a:	687b      	ldr	r3, [r7, #4]
 800228c:	681b      	ldr	r3, [r3, #0]
 800228e:	685b      	ldr	r3, [r3, #4]
 8002290:	2201      	movs	r2, #1
 8002292:	4013      	ands	r3, r2
 8002294:	d0e5      	beq.n	8002262 <HAL_CAN_Stop+0x2e>
      }
    }

    /* Exit from sleep mode */
    CLEAR_BIT(hcan->Instance->MCR, CAN_MCR_SLEEP);
 8002296:	687b      	ldr	r3, [r7, #4]
 8002298:	681b      	ldr	r3, [r3, #0]
 800229a:	681a      	ldr	r2, [r3, #0]
 800229c:	687b      	ldr	r3, [r7, #4]
 800229e:	681b      	ldr	r3, [r3, #0]
 80022a0:	2102      	movs	r1, #2
 80022a2:	438a      	bics	r2, r1
 80022a4:	601a      	str	r2, [r3, #0]

    /* Change CAN peripheral state */
    hcan->State = HAL_CAN_STATE_READY;
 80022a6:	687b      	ldr	r3, [r7, #4]
 80022a8:	2220      	movs	r2, #32
 80022aa:	2101      	movs	r1, #1
 80022ac:	5499      	strb	r1, [r3, r2]

    /* Return function status */
    return HAL_OK;
 80022ae:	2300      	movs	r3, #0
 80022b0:	e007      	b.n	80022c2 <HAL_CAN_Stop+0x8e>
  }
  else
  {
    /* Update error code */
    hcan->ErrorCode |= HAL_CAN_ERROR_NOT_STARTED;
 80022b2:	687b      	ldr	r3, [r7, #4]
 80022b4:	6a5b      	ldr	r3, [r3, #36]	@ 0x24
 80022b6:	2280      	movs	r2, #128	@ 0x80
 80022b8:	0352      	lsls	r2, r2, #13
 80022ba:	431a      	orrs	r2, r3
 80022bc:	687b      	ldr	r3, [r7, #4]
 80022be:	625a      	str	r2, [r3, #36]	@ 0x24

    return HAL_ERROR;
 80022c0:	2301      	movs	r3, #1
  }
}
 80022c2:	0018      	movs	r0, r3
 80022c4:	46bd      	mov	sp, r7
 80022c6:	b004      	add	sp, #16
 80022c8:	bd80      	pop	{r7, pc}

080022ca <HAL_CAN_AddTxMessage>:
  *         This parameter can be a value of @arg CAN_Tx_Mailboxes.
  * @retval HAL status
  */
HAL_StatusTypeDef HAL_CAN_AddTxMessage(CAN_HandleTypeDef *hcan, const CAN_TxHeaderTypeDef *pHeader,
                                       const uint8_t aData[], uint32_t *pTxMailbox)
{
 80022ca:	b580      	push	{r7, lr}
 80022cc:	b088      	sub	sp, #32
 80022ce:	af00      	add	r7, sp, #0
 80022d0:	60f8      	str	r0, [r7, #12]
 80022d2:	60b9      	str	r1, [r7, #8]
 80022d4:	607a      	str	r2, [r7, #4]
 80022d6:	603b      	str	r3, [r7, #0]
  uint32_t transmitmailbox;
  HAL_CAN_StateTypeDef state = hcan->State;
 80022d8:	201f      	movs	r0, #31
 80022da:	183b      	adds	r3, r7, r0
 80022dc:	68fa      	ldr	r2, [r7, #12]
 80022de:	2120      	movs	r1, #32
 80022e0:	5c52      	ldrb	r2, [r2, r1]
 80022e2:	701a      	strb	r2, [r3, #0]
  uint32_t tsr = READ_REG(hcan->Instance->TSR);
 80022e4:	68fb      	ldr	r3, [r7, #12]
 80022e6:	681b      	ldr	r3, [r3, #0]
 80022e8:	689b      	ldr	r3, [r3, #8]
 80022ea:	61bb      	str	r3, [r7, #24]
  {
    assert_param(IS_CAN_EXTID(pHeader->ExtId));
  }
  assert_param(IS_FUNCTIONAL_STATE(pHeader->TransmitGlobalTime));

  if ((state == HAL_CAN_STATE_READY) ||
 80022ec:	183b      	adds	r3, r7, r0
 80022ee:	781b      	ldrb	r3, [r3, #0]
 80022f0:	2b01      	cmp	r3, #1
 80022f2:	d004      	beq.n	80022fe <HAL_CAN_AddTxMessage+0x34>
 80022f4:	183b      	adds	r3, r7, r0
 80022f6:	781b      	ldrb	r3, [r3, #0]
 80022f8:	2b02      	cmp	r3, #2
 80022fa:	d000      	beq.n	80022fe <HAL_CAN_AddTxMessage+0x34>
 80022fc:	e0ab      	b.n	8002456 <HAL_CAN_AddTxMessage+0x18c>
      (state == HAL_CAN_STATE_LISTENING))
  {
    /* Check that all the Tx mailboxes are not full */
    if (((tsr & CAN_TSR_TME0) != 0U) ||
 80022fe:	69ba      	ldr	r2, [r7, #24]
 8002300:	2380      	movs	r3, #128	@ 0x80
 8002302:	04db      	lsls	r3, r3, #19
 8002304:	4013      	ands	r3, r2
 8002306:	d10a      	bne.n	800231e <HAL_CAN_AddTxMessage+0x54>
        ((tsr & CAN_TSR_TME1) != 0U) ||
 8002308:	69ba      	ldr	r2, [r7, #24]
 800230a:	2380      	movs	r3, #128	@ 0x80
 800230c:	051b      	lsls	r3, r3, #20
 800230e:	4013      	ands	r3, r2
    if (((tsr & CAN_TSR_TME0) != 0U) ||
 8002310:	d105      	bne.n	800231e <HAL_CAN_AddTxMessage+0x54>
        ((tsr & CAN_TSR_TME2) != 0U))
 8002312:	69ba      	ldr	r2, [r7, #24]
 8002314:	2380      	movs	r3, #128	@ 0x80
 8002316:	055b      	lsls	r3, r3, #21
 8002318:	4013      	ands	r3, r2
        ((tsr & CAN_TSR_TME1) != 0U) ||
 800231a:	d100      	bne.n	800231e <HAL_CAN_AddTxMessage+0x54>
 800231c:	e092      	b.n	8002444 <HAL_CAN_AddTxMessage+0x17a>
    {
      /* Select an empty transmit mailbox */
      transmitmailbox = (tsr & CAN_TSR_CODE) >> CAN_TSR_CODE_Pos;
 800231e:	69bb      	ldr	r3, [r7, #24]
 8002320:	0e1b      	lsrs	r3, r3, #24
 8002322:	2203      	movs	r2, #3
 8002324:	4013      	ands	r3, r2
 8002326:	617b      	str	r3, [r7, #20]

      /* Store the Tx mailbox */
      *pTxMailbox = (uint32_t)1 << transmitmailbox;
 8002328:	2201      	movs	r2, #1
 800232a:	697b      	ldr	r3, [r7, #20]
 800232c:	409a      	lsls	r2, r3
 800232e:	683b      	ldr	r3, [r7, #0]
 8002330:	601a      	str	r2, [r3, #0]

      /* Set up the Id */
      if (pHeader->IDE == CAN_ID_STD)
 8002332:	68bb      	ldr	r3, [r7, #8]
 8002334:	689b      	ldr	r3, [r3, #8]
 8002336:	2b00      	cmp	r3, #0
 8002338:	d10c      	bne.n	8002354 <HAL_CAN_AddTxMessage+0x8a>
      {
        hcan->Instance->sTxMailBox[transmitmailbox].TIR = ((pHeader->StdId << CAN_TI0R_STID_Pos) |
 800233a:	68bb      	ldr	r3, [r7, #8]
 800233c:	681b      	ldr	r3, [r3, #0]
 800233e:	0559      	lsls	r1, r3, #21
                                                           pHeader->RTR);
 8002340:	68bb      	ldr	r3, [r7, #8]
 8002342:	68da      	ldr	r2, [r3, #12]
        hcan->Instance->sTxMailBox[transmitmailbox].TIR = ((pHeader->StdId << CAN_TI0R_STID_Pos) |
 8002344:	68fb      	ldr	r3, [r7, #12]
 8002346:	681b      	ldr	r3, [r3, #0]
 8002348:	4311      	orrs	r1, r2
 800234a:	697a      	ldr	r2, [r7, #20]
 800234c:	3218      	adds	r2, #24
 800234e:	0112      	lsls	r2, r2, #4
 8002350:	50d1      	str	r1, [r2, r3]
 8002352:	e00f      	b.n	8002374 <HAL_CAN_AddTxMessage+0xaa>
      }
      else
      {
        hcan->Instance->sTxMailBox[transmitmailbox].TIR = ((pHeader->ExtId << CAN_TI0R_EXID_Pos) |
 8002354:	68bb      	ldr	r3, [r7, #8]
 8002356:	685b      	ldr	r3, [r3, #4]
 8002358:	00da      	lsls	r2, r3, #3
                                                           pHeader->IDE |
 800235a:	68bb      	ldr	r3, [r7, #8]
 800235c:	689b      	ldr	r3, [r3, #8]
        hcan->Instance->sTxMailBox[transmitmailbox].TIR = ((pHeader->ExtId << CAN_TI0R_EXID_Pos) |
 800235e:	431a      	orrs	r2, r3
 8002360:	0011      	movs	r1, r2
                                                           pHeader->RTR);
 8002362:	68bb      	ldr	r3, [r7, #8]
 8002364:	68da      	ldr	r2, [r3, #12]
        hcan->Instance->sTxMailBox[transmitmailbox].TIR = ((pHeader->ExtId << CAN_TI0R_EXID_Pos) |
 8002366:	68fb      	ldr	r3, [r7, #12]
 8002368:	681b      	ldr	r3, [r3, #0]
                                                           pHeader->IDE |
 800236a:	4311      	orrs	r1, r2
        hcan->Instance->sTxMailBox[transmitmailbox].TIR = ((pHeader->ExtId << CAN_TI0R_EXID_Pos) |
 800236c:	697a      	ldr	r2, [r7, #20]
 800236e:	3218      	adds	r2, #24
 8002370:	0112      	lsls	r2, r2, #4
 8002372:	50d1      	str	r1, [r2, r3]
      }

      /* Set up the DLC */
      hcan->Instance->sTxMailBox[transmitmailbox].TDTR = (pHeader->DLC);
 8002374:	68fb      	ldr	r3, [r7, #12]
 8002376:	6819      	ldr	r1, [r3, #0]
 8002378:	68bb      	ldr	r3, [r7, #8]
 800237a:	691a      	ldr	r2, [r3, #16]
 800237c:	697b      	ldr	r3, [r7, #20]
 800237e:	3318      	adds	r3, #24
 8002380:	011b      	lsls	r3, r3, #4
 8002382:	18cb      	adds	r3, r1, r3
 8002384:	3304      	adds	r3, #4
 8002386:	601a      	str	r2, [r3, #0]

      /* Set up the Transmit Global Time mode */
      if (pHeader->TransmitGlobalTime == ENABLE)
 8002388:	68bb      	ldr	r3, [r7, #8]
 800238a:	7d1b      	ldrb	r3, [r3, #20]
 800238c:	2b01      	cmp	r3, #1
 800238e:	d112      	bne.n	80023b6 <HAL_CAN_AddTxMessage+0xec>
      {
        SET_BIT(hcan->Instance->sTxMailBox[transmitmailbox].TDTR, CAN_TDT0R_TGT);
 8002390:	68fb      	ldr	r3, [r7, #12]
 8002392:	681a      	ldr	r2, [r3, #0]
 8002394:	697b      	ldr	r3, [r7, #20]
 8002396:	3318      	adds	r3, #24
 8002398:	011b      	lsls	r3, r3, #4
 800239a:	18d3      	adds	r3, r2, r3
 800239c:	3304      	adds	r3, #4
 800239e:	681a      	ldr	r2, [r3, #0]
 80023a0:	68fb      	ldr	r3, [r7, #12]
 80023a2:	6819      	ldr	r1, [r3, #0]
 80023a4:	2380      	movs	r3, #128	@ 0x80
 80023a6:	005b      	lsls	r3, r3, #1
 80023a8:	431a      	orrs	r2, r3
 80023aa:	697b      	ldr	r3, [r7, #20]
 80023ac:	3318      	adds	r3, #24
 80023ae:	011b      	lsls	r3, r3, #4
 80023b0:	18cb      	adds	r3, r1, r3
 80023b2:	3304      	adds	r3, #4
 80023b4:	601a      	str	r2, [r3, #0]
      }

      /* Set up the data field */
      WRITE_REG(hcan->Instance->sTxMailBox[transmitmailbox].TDHR,
 80023b6:	687b      	ldr	r3, [r7, #4]
 80023b8:	3307      	adds	r3, #7
 80023ba:	781b      	ldrb	r3, [r3, #0]
 80023bc:	061a      	lsls	r2, r3, #24
 80023be:	687b      	ldr	r3, [r7, #4]
 80023c0:	3306      	adds	r3, #6
 80023c2:	781b      	ldrb	r3, [r3, #0]
 80023c4:	041b      	lsls	r3, r3, #16
 80023c6:	431a      	orrs	r2, r3
 80023c8:	687b      	ldr	r3, [r7, #4]
 80023ca:	3305      	adds	r3, #5
 80023cc:	781b      	ldrb	r3, [r3, #0]
 80023ce:	021b      	lsls	r3, r3, #8
 80023d0:	431a      	orrs	r2, r3
 80023d2:	687b      	ldr	r3, [r7, #4]
 80023d4:	3304      	adds	r3, #4
 80023d6:	781b      	ldrb	r3, [r3, #0]
 80023d8:	0019      	movs	r1, r3
 80023da:	68fb      	ldr	r3, [r7, #12]
 80023dc:	6818      	ldr	r0, [r3, #0]
 80023de:	430a      	orrs	r2, r1
 80023e0:	6979      	ldr	r1, [r7, #20]
 80023e2:	23c6      	movs	r3, #198	@ 0xc6
 80023e4:	005b      	lsls	r3, r3, #1
 80023e6:	0109      	lsls	r1, r1, #4
 80023e8:	1841      	adds	r1, r0, r1
 80023ea:	18cb      	adds	r3, r1, r3
 80023ec:	601a      	str	r2, [r3, #0]
                ((uint32_t)aData[7] << CAN_TDH0R_DATA7_Pos) |
                ((uint32_t)aData[6] << CAN_TDH0R_DATA6_Pos) |
                ((uint32_t)aData[5] << CAN_TDH0R_DATA5_Pos) |
                ((uint32_t)aData[4] << CAN_TDH0R_DATA4_Pos));
      WRITE_REG(hcan->Instance->sTxMailBox[transmitmailbox].TDLR,
 80023ee:	687b      	ldr	r3, [r7, #4]
 80023f0:	3303      	adds	r3, #3
 80023f2:	781b      	ldrb	r3, [r3, #0]
 80023f4:	061a      	lsls	r2, r3, #24
 80023f6:	687b      	ldr	r3, [r7, #4]
 80023f8:	3302      	adds	r3, #2
 80023fa:	781b      	ldrb	r3, [r3, #0]
 80023fc:	041b      	lsls	r3, r3, #16
 80023fe:	431a      	orrs	r2, r3
 8002400:	687b      	ldr	r3, [r7, #4]
 8002402:	3301      	adds	r3, #1
 8002404:	781b      	ldrb	r3, [r3, #0]
 8002406:	021b      	lsls	r3, r3, #8
 8002408:	431a      	orrs	r2, r3
 800240a:	687b      	ldr	r3, [r7, #4]
 800240c:	781b      	ldrb	r3, [r3, #0]
 800240e:	0019      	movs	r1, r3
 8002410:	68fb      	ldr	r3, [r7, #12]
 8002412:	6818      	ldr	r0, [r3, #0]
 8002414:	430a      	orrs	r2, r1
 8002416:	6979      	ldr	r1, [r7, #20]
 8002418:	23c4      	movs	r3, #196	@ 0xc4
 800241a:	005b      	lsls	r3, r3, #1
 800241c:	0109      	lsls	r1, r1, #4
 800241e:	1841      	adds	r1, r0, r1
 8002420:	18cb      	adds	r3, r1, r3
 8002422:	601a      	str	r2, [r3, #0]
                ((uint32_t)aData[2] << CAN_TDL0R_DATA2_Pos) |
                ((uint32_t)aData[1] << CAN_TDL0R_DATA1_Pos) |
                ((uint32_t)aData[0] << CAN_TDL0R_DATA0_Pos));

      /* Request transmission */
      SET_BIT(hcan->Instance->sTxMailBox[transmitmailbox].TIR, CAN_TI0R_TXRQ);
 8002424:	68fb      	ldr	r3, [r7, #12]
 8002426:	681b      	ldr	r3, [r3, #0]
 8002428:	697a      	ldr	r2, [r7, #20]
 800242a:	3218      	adds	r2, #24
 800242c:	0112      	lsls	r2, r2, #4
 800242e:	58d2      	ldr	r2, [r2, r3]
 8002430:	68fb      	ldr	r3, [r7, #12]
 8002432:	681b      	ldr	r3, [r3, #0]
 8002434:	2101      	movs	r1, #1
 8002436:	4311      	orrs	r1, r2
 8002438:	697a      	ldr	r2, [r7, #20]
 800243a:	3218      	adds	r2, #24
 800243c:	0112      	lsls	r2, r2, #4
 800243e:	50d1      	str	r1, [r2, r3]

      /* Return function status */
      return HAL_OK;
 8002440:	2300      	movs	r3, #0
 8002442:	e010      	b.n	8002466 <HAL_CAN_AddTxMessage+0x19c>
    }
    else
    {
      /* Update error code */
      hcan->ErrorCode |= HAL_CAN_ERROR_PARAM;
 8002444:	68fb      	ldr	r3, [r7, #12]
 8002446:	6a5b      	ldr	r3, [r3, #36]	@ 0x24
 8002448:	2280      	movs	r2, #128	@ 0x80
 800244a:	0392      	lsls	r2, r2, #14
 800244c:	431a      	orrs	r2, r3
 800244e:	68fb      	ldr	r3, [r7, #12]
 8002450:	625a      	str	r2, [r3, #36]	@ 0x24

      return HAL_ERROR;
 8002452:	2301      	movs	r3, #1
 8002454:	e007      	b.n	8002466 <HAL_CAN_AddTxMessage+0x19c>
    }
  }
  else
  {
    /* Update error code */
    hcan->ErrorCode |= HAL_CAN_ERROR_NOT_INITIALIZED;
 8002456:	68fb      	ldr	r3, [r7, #12]
 8002458:	6a5b      	ldr	r3, [r3, #36]	@ 0x24
 800245a:	2280      	movs	r2, #128	@ 0x80
 800245c:	02d2      	lsls	r2, r2, #11
 800245e:	431a      	orrs	r2, r3
 8002460:	68fb      	ldr	r3, [r7, #12]
 8002462:	625a      	str	r2, [r3, #36]	@ 0x24

    return HAL_ERROR;
 8002464:	2301      	movs	r3, #1
  }
}
 8002466:	0018      	movs	r0, r3
 8002468:	46bd      	mov	sp, r7
 800246a:	b008      	add	sp, #32
 800246c:	bd80      	pop	{r7, pc}

0800246e <HAL_CAN_AbortTxRequest>:
  * @param  TxMailboxes List of the Tx Mailboxes to abort.
  *         This parameter can be any combination of @arg CAN_Tx_Mailboxes.
  * @retval HAL status
  */
HAL_StatusTypeDef HAL_CAN_AbortTxRequest(CAN_HandleTypeDef *hcan, uint32_t TxMailboxes)
{
 800246e:	b580      	push	{r7, lr}
 8002470:	b084      	sub	sp, #16
 8002472:	af00      	add	r7, sp, #0
 8002474:	6078      	str	r0, [r7, #4]
 8002476:	6039      	str	r1, [r7, #0]
  HAL_CAN_StateTypeDef state = hcan->State;
 8002478:	200f      	movs	r0, #15
 800247a:	183b      	adds	r3, r7, r0
 800247c:	687a      	ldr	r2, [r7, #4]
 800247e:	2120      	movs	r1, #32
 8002480:	5c52      	ldrb	r2, [r2, r1]
 8002482:	701a      	strb	r2, [r3, #0]

  /* Check function parameters */
  assert_param(IS_CAN_TX_MAILBOX_LIST(TxMailboxes));

  if ((state == HAL_CAN_STATE_READY) ||
 8002484:	0002      	movs	r2, r0
 8002486:	18bb      	adds	r3, r7, r2
 8002488:	781b      	ldrb	r3, [r3, #0]
 800248a:	2b01      	cmp	r3, #1
 800248c:	d003      	beq.n	8002496 <HAL_CAN_AbortTxRequest+0x28>
 800248e:	18bb      	adds	r3, r7, r2
 8002490:	781b      	ldrb	r3, [r3, #0]
 8002492:	2b02      	cmp	r3, #2
 8002494:	d127      	bne.n	80024e6 <HAL_CAN_AbortTxRequest+0x78>
      (state == HAL_CAN_STATE_LISTENING))
  {
    /* Check Tx Mailbox 0 */
    if ((TxMailboxes & CAN_TX_MAILBOX0) != 0U)
 8002496:	683b      	ldr	r3, [r7, #0]
 8002498:	2201      	movs	r2, #1
 800249a:	4013      	ands	r3, r2
 800249c:	d007      	beq.n	80024ae <HAL_CAN_AbortTxRequest+0x40>
    {
      /* Add cancellation request for Tx Mailbox 0 */
      SET_BIT(hcan->Instance->TSR, CAN_TSR_ABRQ0);
 800249e:	687b      	ldr	r3, [r7, #4]
 80024a0:	681b      	ldr	r3, [r3, #0]
 80024a2:	689a      	ldr	r2, [r3, #8]
 80024a4:	687b      	ldr	r3, [r7, #4]
 80024a6:	681b      	ldr	r3, [r3, #0]
 80024a8:	2180      	movs	r1, #128	@ 0x80
 80024aa:	430a      	orrs	r2, r1
 80024ac:	609a      	str	r2, [r3, #8]
    }

    /* Check Tx Mailbox 1 */
    if ((TxMailboxes & CAN_TX_MAILBOX1) != 0U)
 80024ae:	683b      	ldr	r3, [r7, #0]
 80024b0:	2202      	movs	r2, #2
 80024b2:	4013      	ands	r3, r2
 80024b4:	d008      	beq.n	80024c8 <HAL_CAN_AbortTxRequest+0x5a>
    {
      /* Add cancellation request for Tx Mailbox 1 */
      SET_BIT(hcan->Instance->TSR, CAN_TSR_ABRQ1);
 80024b6:	687b      	ldr	r3, [r7, #4]
 80024b8:	681b      	ldr	r3, [r3, #0]
 80024ba:	689a      	ldr	r2, [r3, #8]
 80024bc:	687b      	ldr	r3, [r7, #4]
 80024be:	681b      	ldr	r3, [r3, #0]
 80024c0:	2180      	movs	r1, #128	@ 0x80
 80024c2:	0209      	lsls	r1, r1, #8
 80024c4:	430a      	orrs	r2, r1
 80024c6:	609a      	str	r2, [r3, #8]
    }

    /* Check Tx Mailbox 2 */
    if ((TxMailboxes & CAN_TX_MAILBOX2) != 0U)
 80024c8:	683b      	ldr	r3, [r7, #0]
 80024ca:	2204      	movs	r2, #4
 80024cc:	4013      	ands	r3, r2
 80024ce:	d008      	beq.n	80024e2 <HAL_CAN_AbortTxRequest+0x74>
    {
      /* Add cancellation request for Tx Mailbox 2 */
      SET_BIT(hcan->Instance->TSR, CAN_TSR_ABRQ2);
 80024d0:	687b      	ldr	r3, [r7, #4]
 80024d2:	681b      	ldr	r3, [r3, #0]
 80024d4:	689a      	ldr	r2, [r3, #8]
 80024d6:	687b      	ldr	r3, [r7, #4]
 80024d8:	681b      	ldr	r3, [r3, #0]
 80024da:	2180      	movs	r1, #128	@ 0x80
 80024dc:	0409      	lsls	r1, r1, #16
 80024de:	430a      	orrs	r2, r1
 80024e0:	609a      	str	r2, [r3, #8]
    }

    /* Return function status */
    return HAL_OK;
 80024e2:	2300      	movs	r3, #0
 80024e4:	e007      	b.n	80024f6 <HAL_CAN_AbortTxRequest+0x88>
  }
  else
  {
    /* Update error code */
    hcan->ErrorCode |= HAL_CAN_ERROR_NOT_INITIALIZED;
 80024e6:	687b      	ldr	r3, [r7, #4]
 80024e8:	6a5b      	ldr	r3, [r3, #36]	@ 0x24
 80024ea:	2280      	movs	r2, #128	@ 0x80
 80024ec:	02d2      	lsls	r2, r2, #11
 80024ee:	431a      	orrs	r2, r3
 80024f0:	687b      	ldr	r3, [r7, #4]
 80024f2:	625a      	str	r2, [r3, #36]	@ 0x24

    return HAL_ERROR;
 80024f4:	2301      	movs	r3, #1
  }
}
 80024f6:	0018      	movs	r0, r3
 80024f8:	46bd      	mov	sp, r7
 80024fa:	b004      	add	sp, #16
 80024fc:	bd80      	pop	{r7, pc}

080024fe <HAL_CAN_GetRxMessage>:
  * @param  aData array where the payload of the Rx frame will be stored.
  * @retval HAL status
  */
HAL_StatusTypeDef HAL_CAN_GetRxMessage(CAN_HandleTypeDef *hcan, uint32_t RxFifo,
                                       CAN_RxHeaderTypeDef *pHeader, uint8_t aData[])
{
 80024fe:	b580      	push	{r7, lr}
 8002500:	b086      	sub	sp, #24
 8002502:	af00      	add	r7, sp, #0
 8002504:	60f8      	str	r0, [r7, #12]
 8002506:	60b9      	str	r1, [r7, #8]
 8002508:	607a      	str	r2, [r7, #4]
 800250a:	603b      	str	r3, [r7, #0]
  HAL_CAN_StateTypeDef state = hcan->State;
 800250c:	2017      	movs	r0, #23
 800250e:	183b      	adds	r3, r7, r0
 8002510:	68fa      	ldr	r2, [r7, #12]
 8002512:	2120      	movs	r1, #32
 8002514:	5c52      	ldrb	r2, [r2, r1]
 8002516:	701a      	strb	r2, [r3, #0]

  assert_param(IS_CAN_RX_FIFO(RxFifo));

  if ((state == HAL_CAN_STATE_READY) ||
 8002518:	0002      	movs	r2, r0
 800251a:	18bb      	adds	r3, r7, r2
 800251c:	781b      	ldrb	r3, [r3, #0]
 800251e:	2b01      	cmp	r3, #1
 8002520:	d004      	beq.n	800252c <HAL_CAN_GetRxMessage+0x2e>
 8002522:	18bb      	adds	r3, r7, r2
 8002524:	781b      	ldrb	r3, [r3, #0]
 8002526:	2b02      	cmp	r3, #2
 8002528:	d000      	beq.n	800252c <HAL_CAN_GetRxMessage+0x2e>
 800252a:	e107      	b.n	800273c <HAL_CAN_GetRxMessage+0x23e>
      (state == HAL_CAN_STATE_LISTENING))
  {
    /* Check the Rx FIFO */
    if (RxFifo == CAN_RX_FIFO0) /* Rx element is assigned to Rx FIFO 0 */
 800252c:	68bb      	ldr	r3, [r7, #8]
 800252e:	2b00      	cmp	r3, #0
 8002530:	d10e      	bne.n	8002550 <HAL_CAN_GetRxMessage+0x52>
    {
      /* Check that the Rx FIFO 0 is not empty */
      if ((hcan->Instance->RF0R & CAN_RF0R_FMP0) == 0U)
 8002532:	68fb      	ldr	r3, [r7, #12]
 8002534:	681b      	ldr	r3, [r3, #0]
 8002536:	68db      	ldr	r3, [r3, #12]
 8002538:	2203      	movs	r2, #3
 800253a:	4013      	ands	r3, r2
 800253c:	d117      	bne.n	800256e <HAL_CAN_GetRxMessage+0x70>
      {
        /* Update error code */
        hcan->ErrorCode |= HAL_CAN_ERROR_PARAM;
 800253e:	68fb      	ldr	r3, [r7, #12]
 8002540:	6a5b      	ldr	r3, [r3, #36]	@ 0x24
 8002542:	2280      	movs	r2, #128	@ 0x80
 8002544:	0392      	lsls	r2, r2, #14
 8002546:	431a      	orrs	r2, r3
 8002548:	68fb      	ldr	r3, [r7, #12]
 800254a:	625a      	str	r2, [r3, #36]	@ 0x24

        return HAL_ERROR;
 800254c:	2301      	movs	r3, #1
 800254e:	e0fd      	b.n	800274c <HAL_CAN_GetRxMessage+0x24e>
      }
    }
    else /* Rx element is assigned to Rx FIFO 1 */
    {
      /* Check that the Rx FIFO 1 is not empty */
      if ((hcan->Instance->RF1R & CAN_RF1R_FMP1) == 0U)
 8002550:	68fb      	ldr	r3, [r7, #12]
 8002552:	681b      	ldr	r3, [r3, #0]
 8002554:	691b      	ldr	r3, [r3, #16]
 8002556:	2203      	movs	r2, #3
 8002558:	4013      	ands	r3, r2
 800255a:	d108      	bne.n	800256e <HAL_CAN_GetRxMessage+0x70>
      {
        /* Update error code */
        hcan->ErrorCode |= HAL_CAN_ERROR_PARAM;
 800255c:	68fb      	ldr	r3, [r7, #12]
 800255e:	6a5b      	ldr	r3, [r3, #36]	@ 0x24
 8002560:	2280      	movs	r2, #128	@ 0x80
 8002562:	0392      	lsls	r2, r2, #14
 8002564:	431a      	orrs	r2, r3
 8002566:	68fb      	ldr	r3, [r7, #12]
 8002568:	625a      	str	r2, [r3, #36]	@ 0x24

        return HAL_ERROR;
 800256a:	2301      	movs	r3, #1
 800256c:	e0ee      	b.n	800274c <HAL_CAN_GetRxMessage+0x24e>
      }
    }

    /* Get the header */
    pHeader->IDE = CAN_RI0R_IDE & hcan->Instance->sFIFOMailBox[RxFifo].RIR;
 800256e:	68fb      	ldr	r3, [r7, #12]
 8002570:	681b      	ldr	r3, [r3, #0]
 8002572:	68ba      	ldr	r2, [r7, #8]
 8002574:	321b      	adds	r2, #27
 8002576:	0112      	lsls	r2, r2, #4
 8002578:	58d3      	ldr	r3, [r2, r3]
 800257a:	2204      	movs	r2, #4
 800257c:	401a      	ands	r2, r3
 800257e:	687b      	ldr	r3, [r7, #4]
 8002580:	609a      	str	r2, [r3, #8]
    if (pHeader->IDE == CAN_ID_STD)
 8002582:	687b      	ldr	r3, [r7, #4]
 8002584:	689b      	ldr	r3, [r3, #8]
 8002586:	2b00      	cmp	r3, #0
 8002588:	d10b      	bne.n	80025a2 <HAL_CAN_GetRxMessage+0xa4>
    {
      pHeader->StdId = (CAN_RI0R_STID & hcan->Instance->sFIFOMailBox[RxFifo].RIR) >> CAN_TI0R_STID_Pos;
 800258a:	68fb      	ldr	r3, [r7, #12]
 800258c:	681b      	ldr	r3, [r3, #0]
 800258e:	68ba      	ldr	r2, [r7, #8]
 8002590:	321b      	adds	r2, #27
 8002592:	0112      	lsls	r2, r2, #4
 8002594:	58d3      	ldr	r3, [r2, r3]
 8002596:	0d5b      	lsrs	r3, r3, #21
 8002598:	055b      	lsls	r3, r3, #21
 800259a:	0d5a      	lsrs	r2, r3, #21
 800259c:	687b      	ldr	r3, [r7, #4]
 800259e:	601a      	str	r2, [r3, #0]
 80025a0:	e00a      	b.n	80025b8 <HAL_CAN_GetRxMessage+0xba>
    }
    else
    {
      pHeader->ExtId = ((CAN_RI0R_EXID | CAN_RI0R_STID) &
                        hcan->Instance->sFIFOMailBox[RxFifo].RIR) >> CAN_RI0R_EXID_Pos;
 80025a2:	68fb      	ldr	r3, [r7, #12]
 80025a4:	681b      	ldr	r3, [r3, #0]
 80025a6:	68ba      	ldr	r2, [r7, #8]
 80025a8:	321b      	adds	r2, #27
 80025aa:	0112      	lsls	r2, r2, #4
 80025ac:	58d3      	ldr	r3, [r2, r3]
 80025ae:	08db      	lsrs	r3, r3, #3
 80025b0:	00db      	lsls	r3, r3, #3
 80025b2:	08da      	lsrs	r2, r3, #3
      pHeader->ExtId = ((CAN_RI0R_EXID | CAN_RI0R_STID) &
 80025b4:	687b      	ldr	r3, [r7, #4]
 80025b6:	605a      	str	r2, [r3, #4]
    }
    pHeader->RTR = (CAN_RI0R_RTR & hcan->Instance->sFIFOMailBox[RxFifo].RIR);
 80025b8:	68fb      	ldr	r3, [r7, #12]
 80025ba:	681b      	ldr	r3, [r3, #0]
 80025bc:	68ba      	ldr	r2, [r7, #8]
 80025be:	321b      	adds	r2, #27
 80025c0:	0112      	lsls	r2, r2, #4
 80025c2:	58d3      	ldr	r3, [r2, r3]
 80025c4:	2202      	movs	r2, #2
 80025c6:	401a      	ands	r2, r3
 80025c8:	687b      	ldr	r3, [r7, #4]
 80025ca:	60da      	str	r2, [r3, #12]
    if (((CAN_RDT0R_DLC & hcan->Instance->sFIFOMailBox[RxFifo].RDTR) >> CAN_RDT0R_DLC_Pos) >= 8U)
 80025cc:	68fb      	ldr	r3, [r7, #12]
 80025ce:	681a      	ldr	r2, [r3, #0]
 80025d0:	68bb      	ldr	r3, [r7, #8]
 80025d2:	331b      	adds	r3, #27
 80025d4:	011b      	lsls	r3, r3, #4
 80025d6:	18d3      	adds	r3, r2, r3
 80025d8:	3304      	adds	r3, #4
 80025da:	681b      	ldr	r3, [r3, #0]
 80025dc:	2208      	movs	r2, #8
 80025de:	4013      	ands	r3, r2
 80025e0:	d003      	beq.n	80025ea <HAL_CAN_GetRxMessage+0xec>
    {
      /* Truncate DLC to 8 if received field is over range */
      pHeader->DLC = 8U;
 80025e2:	687b      	ldr	r3, [r7, #4]
 80025e4:	2208      	movs	r2, #8
 80025e6:	611a      	str	r2, [r3, #16]
 80025e8:	e00b      	b.n	8002602 <HAL_CAN_GetRxMessage+0x104>
    }
    else
    {
      pHeader->DLC = (CAN_RDT0R_DLC & hcan->Instance->sFIFOMailBox[RxFifo].RDTR) >> CAN_RDT0R_DLC_Pos;
 80025ea:	68fb      	ldr	r3, [r7, #12]
 80025ec:	681a      	ldr	r2, [r3, #0]
 80025ee:	68bb      	ldr	r3, [r7, #8]
 80025f0:	331b      	adds	r3, #27
 80025f2:	011b      	lsls	r3, r3, #4
 80025f4:	18d3      	adds	r3, r2, r3
 80025f6:	3304      	adds	r3, #4
 80025f8:	681b      	ldr	r3, [r3, #0]
 80025fa:	220f      	movs	r2, #15
 80025fc:	401a      	ands	r2, r3
 80025fe:	687b      	ldr	r3, [r7, #4]
 8002600:	611a      	str	r2, [r3, #16]
    }
    pHeader->FilterMatchIndex = (CAN_RDT0R_FMI & hcan->Instance->sFIFOMailBox[RxFifo].RDTR) >> CAN_RDT0R_FMI_Pos;
 8002602:	68fb      	ldr	r3, [r7, #12]
 8002604:	681a      	ldr	r2, [r3, #0]
 8002606:	68bb      	ldr	r3, [r7, #8]
 8002608:	331b      	adds	r3, #27
 800260a:	011b      	lsls	r3, r3, #4
 800260c:	18d3      	adds	r3, r2, r3
 800260e:	3304      	adds	r3, #4
 8002610:	681b      	ldr	r3, [r3, #0]
 8002612:	0a1b      	lsrs	r3, r3, #8
 8002614:	22ff      	movs	r2, #255	@ 0xff
 8002616:	401a      	ands	r2, r3
 8002618:	687b      	ldr	r3, [r7, #4]
 800261a:	619a      	str	r2, [r3, #24]
    pHeader->Timestamp = (CAN_RDT0R_TIME & hcan->Instance->sFIFOMailBox[RxFifo].RDTR) >> CAN_RDT0R_TIME_Pos;
 800261c:	68fb      	ldr	r3, [r7, #12]
 800261e:	681a      	ldr	r2, [r3, #0]
 8002620:	68bb      	ldr	r3, [r7, #8]
 8002622:	331b      	adds	r3, #27
 8002624:	011b      	lsls	r3, r3, #4
 8002626:	18d3      	adds	r3, r2, r3
 8002628:	3304      	adds	r3, #4
 800262a:	681b      	ldr	r3, [r3, #0]
 800262c:	0c1b      	lsrs	r3, r3, #16
 800262e:	041b      	lsls	r3, r3, #16
 8002630:	0c1a      	lsrs	r2, r3, #16
 8002632:	687b      	ldr	r3, [r7, #4]
 8002634:	615a      	str	r2, [r3, #20]

    /* Get the data */
    aData[0] = (uint8_t)((CAN_RDL0R_DATA0 & hcan->Instance->sFIFOMailBox[RxFifo].RDLR) >> CAN_RDL0R_DATA0_Pos);
 8002636:	68fb      	ldr	r3, [r7, #12]
 8002638:	6819      	ldr	r1, [r3, #0]
 800263a:	68ba      	ldr	r2, [r7, #8]
 800263c:	23dc      	movs	r3, #220	@ 0xdc
 800263e:	005b      	lsls	r3, r3, #1
 8002640:	0112      	lsls	r2, r2, #4
 8002642:	188a      	adds	r2, r1, r2
 8002644:	18d3      	adds	r3, r2, r3
 8002646:	681b      	ldr	r3, [r3, #0]
 8002648:	b2da      	uxtb	r2, r3
 800264a:	683b      	ldr	r3, [r7, #0]
 800264c:	701a      	strb	r2, [r3, #0]
    aData[1] = (uint8_t)((CAN_RDL0R_DATA1 & hcan->Instance->sFIFOMailBox[RxFifo].RDLR) >> CAN_RDL0R_DATA1_Pos);
 800264e:	68fb      	ldr	r3, [r7, #12]
 8002650:	6819      	ldr	r1, [r3, #0]
 8002652:	68ba      	ldr	r2, [r7, #8]
 8002654:	23dc      	movs	r3, #220	@ 0xdc
 8002656:	005b      	lsls	r3, r3, #1
 8002658:	0112      	lsls	r2, r2, #4
 800265a:	188a      	adds	r2, r1, r2
 800265c:	18d3      	adds	r3, r2, r3
 800265e:	681b      	ldr	r3, [r3, #0]
 8002660:	0a1a      	lsrs	r2, r3, #8
 8002662:	683b      	ldr	r3, [r7, #0]
 8002664:	3301      	adds	r3, #1
 8002666:	b2d2      	uxtb	r2, r2
 8002668:	701a      	strb	r2, [r3, #0]
    aData[2] = (uint8_t)((CAN_RDL0R_DATA2 & hcan->Instance->sFIFOMailBox[RxFifo].RDLR) >> CAN_RDL0R_DATA2_Pos);
 800266a:	68fb      	ldr	r3, [r7, #12]
 800266c:	6819      	ldr	r1, [r3, #0]
 800266e:	68ba      	ldr	r2, [r7, #8]
 8002670:	23dc      	movs	r3, #220	@ 0xdc
 8002672:	005b      	lsls	r3, r3, #1
 8002674:	0112      	lsls	r2, r2, #4
 8002676:	188a      	adds	r2, r1, r2
 8002678:	18d3      	adds	r3, r2, r3
 800267a:	681b      	ldr	r3, [r3, #0]
 800267c:	0c1a      	lsrs	r2, r3, #16
 800267e:	683b      	ldr	r3, [r7, #0]
 8002680:	3302      	adds	r3, #2
 8002682:	b2d2      	uxtb	r2, r2
 8002684:	701a      	strb	r2, [r3, #0]
    aData[3] = (uint8_t)((CAN_RDL0R_DATA3 & hcan->Instance->sFIFOMailBox[RxFifo].RDLR) >> CAN_RDL0R_DATA3_Pos);
 8002686:	68fb      	ldr	r3, [r7, #12]
 8002688:	6819      	ldr	r1, [r3, #0]
 800268a:	68ba      	ldr	r2, [r7, #8]
 800268c:	23dc      	movs	r3, #220	@ 0xdc
 800268e:	005b      	lsls	r3, r3, #1
 8002690:	0112      	lsls	r2, r2, #4
 8002692:	188a      	adds	r2, r1, r2
 8002694:	18d3      	adds	r3, r2, r3
 8002696:	681b      	ldr	r3, [r3, #0]
 8002698:	0e1a      	lsrs	r2, r3, #24
 800269a:	683b      	ldr	r3, [r7, #0]
 800269c:	3303      	adds	r3, #3
 800269e:	b2d2      	uxtb	r2, r2
 80026a0:	701a      	strb	r2, [r3, #0]
    aData[4] = (uint8_t)((CAN_RDH0R_DATA4 & hcan->Instance->sFIFOMailBox[RxFifo].RDHR) >> CAN_RDH0R_DATA4_Pos);
 80026a2:	68fb      	ldr	r3, [r7, #12]
 80026a4:	6819      	ldr	r1, [r3, #0]
 80026a6:	68ba      	ldr	r2, [r7, #8]
 80026a8:	23de      	movs	r3, #222	@ 0xde
 80026aa:	005b      	lsls	r3, r3, #1
 80026ac:	0112      	lsls	r2, r2, #4
 80026ae:	188a      	adds	r2, r1, r2
 80026b0:	18d3      	adds	r3, r2, r3
 80026b2:	681a      	ldr	r2, [r3, #0]
 80026b4:	683b      	ldr	r3, [r7, #0]
 80026b6:	3304      	adds	r3, #4
 80026b8:	b2d2      	uxtb	r2, r2
 80026ba:	701a      	strb	r2, [r3, #0]
    aData[5] = (uint8_t)((CAN_RDH0R_DATA5 & hcan->Instance->sFIFOMailBox[RxFifo].RDHR) >> CAN_RDH0R_DATA5_Pos);
 80026bc:	68fb      	ldr	r3, [r7, #12]
 80026be:	6819      	ldr	r1, [r3, #0]
 80026c0:	68ba      	ldr	r2, [r7, #8]
 80026c2:	23de      	movs	r3, #222	@ 0xde
 80026c4:	005b      	lsls	r3, r3, #1
 80026c6:	0112      	lsls	r2, r2, #4
 80026c8:	188a      	adds	r2, r1, r2
 80026ca:	18d3      	adds	r3, r2, r3
 80026cc:	681b      	ldr	r3, [r3, #0]
 80026ce:	0a1a      	lsrs	r2, r3, #8
 80026d0:	683b      	ldr	r3, [r7, #0]
 80026d2:	3305      	adds	r3, #5
 80026d4:	b2d2      	uxtb	r2, r2
 80026d6:	701a      	strb	r2, [r3, #0]
    aData[6] = (uint8_t)((CAN_RDH0R_DATA6 & hcan->Instance->sFIFOMailBox[RxFifo].RDHR) >> CAN_RDH0R_DATA6_Pos);
 80026d8:	68fb      	ldr	r3, [r7, #12]
 80026da:	6819      	ldr	r1, [r3, #0]
 80026dc:	68ba      	ldr	r2, [r7, #8]
 80026de:	23de      	movs	r3, #222	@ 0xde
 80026e0:	005b      	lsls	r3, r3, #1
 80026e2:	0112      	lsls	r2, r2, #4
 80026e4:	188a      	adds	r2, r1, r2
 80026e6:	18d3      	adds	r3, r2, r3
 80026e8:	681b      	ldr	r3, [r3, #0]
 80026ea:	0c1a      	lsrs	r2, r3, #16
 80026ec:	683b      	ldr	r3, [r7, #0]
 80026ee:	3306      	adds	r3, #6
 80026f0:	b2d2      	uxtb	r2, r2
 80026f2:	701a      	strb	r2, [r3, #0]
    aData[7] = (uint8_t)((CAN_RDH0R_DATA7 & hcan->Instance->sFIFOMailBox[RxFifo].RDHR) >> CAN_RDH0R_DATA7_Pos);
 80026f4:	68fb      	ldr	r3, [r7, #12]
 80026f6:	6819      	ldr	r1, [r3, #0]
 80026f8:	68ba      	ldr	r2, [r7, #8]
 80026fa:	23de      	movs	r3, #222	@ 0xde
 80026fc:	005b      	lsls	r3, r3, #1
 80026fe:	0112      	lsls	r2, r2, #4
 8002700:	188a      	adds	r2, r1, r2
 8002702:	18d3      	adds	r3, r2, r3
 8002704:	681b      	ldr	r3, [r3, #0]
 8002706:	0e1a      	lsrs	r2, r3, #24
 8002708:	683b      	ldr	r3, [r7, #0]
 800270a:	3307      	adds	r3, #7
 800270c:	b2d2      	uxtb	r2, r2
 800270e:	701a      	strb	r2, [r3, #0]

    /* Release the FIFO */
    if (RxFifo == CAN_RX_FIFO0) /* Rx element is assigned to Rx FIFO 0 */
 8002710:	68bb      	ldr	r3, [r7, #8]
 8002712:	2b00      	cmp	r3, #0
 8002714:	d108      	bne.n	8002728 <HAL_CAN_GetRxMessage+0x22a>
    {
      /* Release RX FIFO 0 */
      SET_BIT(hcan->Instance->RF0R, CAN_RF0R_RFOM0);
 8002716:	68fb      	ldr	r3, [r7, #12]
 8002718:	681b      	ldr	r3, [r3, #0]
 800271a:	68da      	ldr	r2, [r3, #12]
 800271c:	68fb      	ldr	r3, [r7, #12]
 800271e:	681b      	ldr	r3, [r3, #0]
 8002720:	2120      	movs	r1, #32
 8002722:	430a      	orrs	r2, r1
 8002724:	60da      	str	r2, [r3, #12]
 8002726:	e007      	b.n	8002738 <HAL_CAN_GetRxMessage+0x23a>
    }
    else /* Rx element is assigned to Rx FIFO 1 */
    {
      /* Release RX FIFO 1 */
      SET_BIT(hcan->Instance->RF1R, CAN_RF1R_RFOM1);
 8002728:	68fb      	ldr	r3, [r7, #12]
 800272a:	681b      	ldr	r3, [r3, #0]
 800272c:	691a      	ldr	r2, [r3, #16]
 800272e:	68fb      	ldr	r3, [r7, #12]
 8002730:	681b      	ldr	r3, [r3, #0]
 8002732:	2120      	movs	r1, #32
 8002734:	430a      	orrs	r2, r1
 8002736:	611a      	str	r2, [r3, #16]
    }

    /* Return function status */
    return HAL_OK;
 8002738:	2300      	movs	r3, #0
 800273a:	e007      	b.n	800274c <HAL_CAN_GetRxMessage+0x24e>
  }
  else
  {
    /* Update error code */
    hcan->ErrorCode |= HAL_CAN_ERROR_NOT_INITIALIZED;
 800273c:	68fb      	ldr	r3, [r7, #12]
 800273e:	6a5b      	ldr	r3, [r3, #36]	@ 0x24
 8002740:	2280      	movs	r2, #128	@ 0x80
 8002742:	02d2      	lsls	r2, r2, #11
 8002744:	431a      	orrs	r2, r3
 8002746:	68fb      	ldr	r3, [r7, #12]
 8002748:	625a      	str	r2, [r3, #36]	@ 0x24

    return HAL_ERROR;
 800274a:	2301      	movs	r3, #1
  }
}
 800274c:	0018      	movs	r0, r3
 800274e:	46bd      	mov	sp, r7
 8002750:	b006      	add	sp, #24
 8002752:	bd80      	pop	{r7, pc}

08002754 <HAL_CAN_GetRxFifoFillLevel>:
  * @param  RxFifo Rx FIFO.
  *         This parameter can be a value of @arg CAN_receive_FIFO_number.
  * @retval Number of messages available in Rx FIFO.
  */
uint32_t HAL_CAN_GetRxFifoFillLevel(const CAN_HandleTypeDef *hcan, uint32_t RxFifo)
{
 8002754:	b580      	push	{r7, lr}
 8002756:	b084      	sub	sp, #16
 8002758:	af00      	add	r7, sp, #0
 800275a:	6078      	str	r0, [r7, #4]
 800275c:	6039      	str	r1, [r7, #0]
  uint32_t filllevel = 0U;
 800275e:	2300      	movs	r3, #0
 8002760:	60fb      	str	r3, [r7, #12]
  HAL_CAN_StateTypeDef state = hcan->State;
 8002762:	200b      	movs	r0, #11
 8002764:	183b      	adds	r3, r7, r0
 8002766:	687a      	ldr	r2, [r7, #4]
 8002768:	2120      	movs	r1, #32
 800276a:	5c52      	ldrb	r2, [r2, r1]
 800276c:	701a      	strb	r2, [r3, #0]

  /* Check function parameters */
  assert_param(IS_CAN_RX_FIFO(RxFifo));

  if ((state == HAL_CAN_STATE_READY) ||
 800276e:	0002      	movs	r2, r0
 8002770:	18bb      	adds	r3, r7, r2
 8002772:	781b      	ldrb	r3, [r3, #0]
 8002774:	2b01      	cmp	r3, #1
 8002776:	d003      	beq.n	8002780 <HAL_CAN_GetRxFifoFillLevel+0x2c>
 8002778:	18bb      	adds	r3, r7, r2
 800277a:	781b      	ldrb	r3, [r3, #0]
 800277c:	2b02      	cmp	r3, #2
 800277e:	d10f      	bne.n	80027a0 <HAL_CAN_GetRxFifoFillLevel+0x4c>
      (state == HAL_CAN_STATE_LISTENING))
  {
    if (RxFifo == CAN_RX_FIFO0)
 8002780:	683b      	ldr	r3, [r7, #0]
 8002782:	2b00      	cmp	r3, #0
 8002784:	d106      	bne.n	8002794 <HAL_CAN_GetRxFifoFillLevel+0x40>
    {
      filllevel = hcan->Instance->RF0R & CAN_RF0R_FMP0;
 8002786:	687b      	ldr	r3, [r7, #4]
 8002788:	681b      	ldr	r3, [r3, #0]
 800278a:	68db      	ldr	r3, [r3, #12]
 800278c:	2203      	movs	r2, #3
 800278e:	4013      	ands	r3, r2
 8002790:	60fb      	str	r3, [r7, #12]
 8002792:	e005      	b.n	80027a0 <HAL_CAN_GetRxFifoFillLevel+0x4c>
    }
    else /* RxFifo == CAN_RX_FIFO1 */
    {
      filllevel = hcan->Instance->RF1R & CAN_RF1R_FMP1;
 8002794:	687b      	ldr	r3, [r7, #4]
 8002796:	681b      	ldr	r3, [r3, #0]
 8002798:	691b      	ldr	r3, [r3, #16]
 800279a:	2203      	movs	r2, #3
 800279c:	4013      	ands	r3, r2
 800279e:	60fb      	str	r3, [r7, #12]
    }
  }

  /* Return Rx FIFO fill level */
  return filllevel;
 80027a0:	68fb      	ldr	r3, [r7, #12]
}
 80027a2:	0018      	movs	r0, r3
 80027a4:	46bd      	mov	sp, r7
 80027a6:	b004      	add	sp, #16
 80027a8:	bd80      	pop	{r7, pc}

080027aa <HAL_CAN_ActivateNotification>:
  * @param  ActiveITs indicates which interrupts will be enabled.
  *         This parameter can be any combination of @arg CAN_Interrupts.
  * @retval HAL status
  */
HAL_StatusTypeDef HAL_CAN_ActivateNotification(CAN_HandleTypeDef *hcan, uint32_t ActiveITs)
{
 80027aa:	b580      	push	{r7, lr}
 80027ac:	b084      	sub	sp, #16
 80027ae:	af00      	add	r7, sp, #0
 80027b0:	6078      	str	r0, [r7, #4]
 80027b2:	6039      	str	r1, [r7, #0]
  HAL_CAN_StateTypeDef state = hcan->State;
 80027b4:	200f      	movs	r0, #15
 80027b6:	183b      	adds	r3, r7, r0
 80027b8:	687a      	ldr	r2, [r7, #4]
 80027ba:	2120      	movs	r1, #32
 80027bc:	5c52      	ldrb	r2, [r2, r1]
 80027be:	701a      	strb	r2, [r3, #0]

  /* Check function parameters */
  assert_param(IS_CAN_IT(ActiveITs));

  if ((state == HAL_CAN_STATE_READY) ||
 80027c0:	0002      	movs	r2, r0
 80027c2:	18bb      	adds	r3, r7, r2
 80027c4:	781b      	ldrb	r3, [r3, #0]
 80027c6:	2b01      	cmp	r3, #1
 80027c8:	d003      	beq.n	80027d2 <HAL_CAN_ActivateNotification+0x28>
 80027ca:	18bb      	adds	r3, r7, r2
 80027cc:	781b      	ldrb	r3, [r3, #0]
 80027ce:	2b02      	cmp	r3, #2
 80027d0:	d109      	bne.n	80027e6 <HAL_CAN_ActivateNotification+0x3c>
      (state == HAL_CAN_STATE_LISTENING))
  {
    /* Enable the selected interrupts */
    __HAL_CAN_ENABLE_IT(hcan, ActiveITs);
 80027d2:	687b      	ldr	r3, [r7, #4]
 80027d4:	681b      	ldr	r3, [r3, #0]
 80027d6:	6959      	ldr	r1, [r3, #20]
 80027d8:	687b      	ldr	r3, [r7, #4]
 80027da:	681b      	ldr	r3, [r3, #0]
 80027dc:	683a      	ldr	r2, [r7, #0]
 80027de:	430a      	orrs	r2, r1
 80027e0:	615a      	str	r2, [r3, #20]

    /* Return function status */
    return HAL_OK;
 80027e2:	2300      	movs	r3, #0
 80027e4:	e007      	b.n	80027f6 <HAL_CAN_ActivateNotification+0x4c>
  }
  else
  {
    /* Update error code */
    hcan->ErrorCode |= HAL_CAN_ERROR_NOT_INITIALIZED;
 80027e6:	687b      	ldr	r3, [r7, #4]
 80027e8:	6a5b      	ldr	r3, [r3, #36]	@ 0x24
 80027ea:	2280      	movs	r2, #128	@ 0x80
 80027ec:	02d2      	lsls	r2, r2, #11
 80027ee:	431a      	orrs	r2, r3
 80027f0:	687b      	ldr	r3, [r7, #4]
 80027f2:	625a      	str	r2, [r3, #36]	@ 0x24

    return HAL_ERROR;
 80027f4:	2301      	movs	r3, #1
  }
}
 80027f6:	0018      	movs	r0, r3
 80027f8:	46bd      	mov	sp, r7
 80027fa:	b004      	add	sp, #16
 80027fc:	bd80      	pop	{r7, pc}

080027fe <HAL_CAN_DeactivateNotification>:
  * @param  InactiveITs indicates which interrupts will be disabled.
  *         This parameter can be any combination of @arg CAN_Interrupts.
  * @retval HAL status
  */
HAL_StatusTypeDef HAL_CAN_DeactivateNotification(CAN_HandleTypeDef *hcan, uint32_t InactiveITs)
{
 80027fe:	b580      	push	{r7, lr}
 8002800:	b084      	sub	sp, #16
 8002802:	af00      	add	r7, sp, #0
 8002804:	6078      	str	r0, [r7, #4]
 8002806:	6039      	str	r1, [r7, #0]
  HAL_CAN_StateTypeDef state = hcan->State;
 8002808:	200f      	movs	r0, #15
 800280a:	183b      	adds	r3, r7, r0
 800280c:	687a      	ldr	r2, [r7, #4]
 800280e:	2120      	movs	r1, #32
 8002810:	5c52      	ldrb	r2, [r2, r1]
 8002812:	701a      	strb	r2, [r3, #0]

  /* Check function parameters */
  assert_param(IS_CAN_IT(InactiveITs));

  if ((state == HAL_CAN_STATE_READY) ||
 8002814:	0002      	movs	r2, r0
 8002816:	18bb      	adds	r3, r7, r2
 8002818:	781b      	ldrb	r3, [r3, #0]
 800281a:	2b01      	cmp	r3, #1
 800281c:	d003      	beq.n	8002826 <HAL_CAN_DeactivateNotification+0x28>
 800281e:	18bb      	adds	r3, r7, r2
 8002820:	781b      	ldrb	r3, [r3, #0]
 8002822:	2b02      	cmp	r3, #2
 8002824:	d10a      	bne.n	800283c <HAL_CAN_DeactivateNotification+0x3e>
      (state == HAL_CAN_STATE_LISTENING))
  {
    /* Disable the selected interrupts */
    __HAL_CAN_DISABLE_IT(hcan, InactiveITs);
 8002826:	687b      	ldr	r3, [r7, #4]
 8002828:	681b      	ldr	r3, [r3, #0]
 800282a:	695a      	ldr	r2, [r3, #20]
 800282c:	683b      	ldr	r3, [r7, #0]
 800282e:	43d9      	mvns	r1, r3
 8002830:	687b      	ldr	r3, [r7, #4]
 8002832:	681b      	ldr	r3, [r3, #0]
 8002834:	400a      	ands	r2, r1
 8002836:	615a      	str	r2, [r3, #20]

    /* Return function status */
    return HAL_OK;
 8002838:	2300      	movs	r3, #0
 800283a:	e007      	b.n	800284c <HAL_CAN_DeactivateNotification+0x4e>
  }
  else
  {
    /* Update error code */
    hcan->ErrorCode |= HAL_CAN_ERROR_NOT_INITIALIZED;
 800283c:	687b      	ldr	r3, [r7, #4]
 800283e:	6a5b      	ldr	r3, [r3, #36]	@ 0x24
 8002840:	2280      	movs	r2, #128	@ 0x80
 8002842:	02d2      	lsls	r2, r2, #11
 8002844:	431a      	orrs	r2, r3
 8002846:	687b      	ldr	r3, [r7, #4]
 8002848:	625a      	str	r2, [r3, #36]	@ 0x24

    return HAL_ERROR;
 800284a:	2301      	movs	r3, #1
  }
}
 800284c:	0018      	movs	r0, r3
 800284e:	46bd      	mov	sp, r7
 8002850:	b004      	add	sp, #16
 8002852:	bd80      	pop	{r7, pc}

08002854 <HAL_CAN_IRQHandler>:
  * @param  hcan pointer to a CAN_HandleTypeDef structure that contains
  *         the configuration information for the specified CAN.
  * @retval None
  */
void HAL_CAN_IRQHandler(CAN_HandleTypeDef *hcan)
{
 8002854:	b580      	push	{r7, lr}
 8002856:	b08a      	sub	sp, #40	@ 0x28
 8002858:	af00      	add	r7, sp, #0
 800285a:	6078      	str	r0, [r7, #4]
  uint32_t errorcode = HAL_CAN_ERROR_NONE;
 800285c:	2300      	movs	r3, #0
 800285e:	627b      	str	r3, [r7, #36]	@ 0x24
  uint32_t interrupts = READ_REG(hcan->Instance->IER);
 8002860:	687b      	ldr	r3, [r7, #4]
 8002862:	681b      	ldr	r3, [r3, #0]
 8002864:	695b      	ldr	r3, [r3, #20]
 8002866:	623b      	str	r3, [r7, #32]
  uint32_t msrflags = READ_REG(hcan->Instance->MSR);
 8002868:	687b      	ldr	r3, [r7, #4]
 800286a:	681b      	ldr	r3, [r3, #0]
 800286c:	685b      	ldr	r3, [r3, #4]
 800286e:	61fb      	str	r3, [r7, #28]
  uint32_t tsrflags = READ_REG(hcan->Instance->TSR);
 8002870:	687b      	ldr	r3, [r7, #4]
 8002872:	681b      	ldr	r3, [r3, #0]
 8002874:	689b      	ldr	r3, [r3, #8]
 8002876:	61bb      	str	r3, [r7, #24]
  uint32_t rf0rflags = READ_REG(hcan->Instance->RF0R);
 8002878:	687b      	ldr	r3, [r7, #4]
 800287a:	681b      	ldr	r3, [r3, #0]
 800287c:	68db      	ldr	r3, [r3, #12]
 800287e:	617b      	str	r3, [r7, #20]
  uint32_t rf1rflags = READ_REG(hcan->Instance->RF1R);
 8002880:	687b      	ldr	r3, [r7, #4]
 8002882:	681b      	ldr	r3, [r3, #0]
 8002884:	691b      	ldr	r3, [r3, #16]
 8002886:	613b      	str	r3, [r7, #16]
  uint32_t esrflags = READ_REG(hcan->Instance->ESR);
 8002888:	687b      	ldr	r3, [r7, #4]
 800288a:	681b      	ldr	r3, [r3, #0]
 800288c:	699b      	ldr	r3, [r3, #24]
 800288e:	60fb      	str	r3, [r7, #12]

  /* Transmit Mailbox empty interrupt management *****************************/
  if ((interrupts & CAN_IT_TX_MAILBOX_EMPTY) != 0U)
 8002890:	6a3b      	ldr	r3, [r7, #32]
 8002892:	2201      	movs	r2, #1
 8002894:	4013      	ands	r3, r2
 8002896:	d100      	bne.n	800289a <HAL_CAN_IRQHandler+0x46>
 8002898:	e084      	b.n	80029a4 <HAL_CAN_IRQHandler+0x150>
  {
    /* Transmit Mailbox 0 management *****************************************/
    if ((tsrflags & CAN_TSR_RQCP0) != 0U)
 800289a:	69bb      	ldr	r3, [r7, #24]
 800289c:	2201      	movs	r2, #1
 800289e:	4013      	ands	r3, r2
 80028a0:	d024      	beq.n	80028ec <HAL_CAN_IRQHandler+0x98>
    {
      /* Clear the Transmission Complete flag (and TXOK0,ALST0,TERR0 bits) */
      __HAL_CAN_CLEAR_FLAG(hcan, CAN_FLAG_RQCP0);
 80028a2:	687b      	ldr	r3, [r7, #4]
 80028a4:	681b      	ldr	r3, [r3, #0]
 80028a6:	2201      	movs	r2, #1
 80028a8:	609a      	str	r2, [r3, #8]

      if ((tsrflags & CAN_TSR_TXOK0) != 0U)
 80028aa:	69bb      	ldr	r3, [r7, #24]
 80028ac:	2202      	movs	r2, #2
 80028ae:	4013      	ands	r3, r2
 80028b0:	d004      	beq.n	80028bc <HAL_CAN_IRQHandler+0x68>
#if USE_HAL_CAN_REGISTER_CALLBACKS == 1
        /* Call registered callback*/
        hcan->TxMailbox0CompleteCallback(hcan);
#else
        /* Call weak (surcharged) callback */
        HAL_CAN_TxMailbox0CompleteCallback(hcan);
 80028b2:	687b      	ldr	r3, [r7, #4]
 80028b4:	0018      	movs	r0, r3
 80028b6:	f7ff f8af 	bl	8001a18 <HAL_CAN_TxMailbox0CompleteCallback>
 80028ba:	e017      	b.n	80028ec <HAL_CAN_IRQHandler+0x98>
#endif /* USE_HAL_CAN_REGISTER_CALLBACKS */
      }
      else
      {
        if ((tsrflags & CAN_TSR_ALST0) != 0U)
 80028bc:	69bb      	ldr	r3, [r7, #24]
 80028be:	2204      	movs	r2, #4
 80028c0:	4013      	ands	r3, r2
 80028c2:	d005      	beq.n	80028d0 <HAL_CAN_IRQHandler+0x7c>
        {
          /* Update error code */
          errorcode |= HAL_CAN_ERROR_TX_ALST0;
 80028c4:	6a7b      	ldr	r3, [r7, #36]	@ 0x24
 80028c6:	2280      	movs	r2, #128	@ 0x80
 80028c8:	0112      	lsls	r2, r2, #4
 80028ca:	4313      	orrs	r3, r2
 80028cc:	627b      	str	r3, [r7, #36]	@ 0x24
 80028ce:	e00d      	b.n	80028ec <HAL_CAN_IRQHandler+0x98>
        }
        else if ((tsrflags & CAN_TSR_TERR0) != 0U)
 80028d0:	69bb      	ldr	r3, [r7, #24]
 80028d2:	2208      	movs	r2, #8
 80028d4:	4013      	ands	r3, r2
 80028d6:	d005      	beq.n	80028e4 <HAL_CAN_IRQHandler+0x90>
        {
          /* Update error code */
          errorcode |= HAL_CAN_ERROR_TX_TERR0;
 80028d8:	6a7b      	ldr	r3, [r7, #36]	@ 0x24
 80028da:	2280      	movs	r2, #128	@ 0x80
 80028dc:	0152      	lsls	r2, r2, #5
 80028de:	4313      	orrs	r3, r2
 80028e0:	627b      	str	r3, [r7, #36]	@ 0x24
 80028e2:	e003      	b.n	80028ec <HAL_CAN_IRQHandler+0x98>
#if USE_HAL_CAN_REGISTER_CALLBACKS == 1
          /* Call registered callback*/
          hcan->TxMailbox0AbortCallback(hcan);
#else
          /* Call weak (surcharged) callback */
          HAL_CAN_TxMailbox0AbortCallback(hcan);
 80028e4:	687b      	ldr	r3, [r7, #4]
 80028e6:	0018      	movs	r0, r3
 80028e8:	f000 f968 	bl	8002bbc <HAL_CAN_TxMailbox0AbortCallback>
        }
      }
    }

    /* Transmit Mailbox 1 management *****************************************/
    if ((tsrflags & CAN_TSR_RQCP1) != 0U)
 80028ec:	69ba      	ldr	r2, [r7, #24]
 80028ee:	2380      	movs	r3, #128	@ 0x80
 80028f0:	005b      	lsls	r3, r3, #1
 80028f2:	4013      	ands	r3, r2
 80028f4:	d028      	beq.n	8002948 <HAL_CAN_IRQHandler+0xf4>
    {
      /* Clear the Transmission Complete flag (and TXOK1,ALST1,TERR1 bits) */
      __HAL_CAN_CLEAR_FLAG(hcan, CAN_FLAG_RQCP1);
 80028f6:	687b      	ldr	r3, [r7, #4]
 80028f8:	681b      	ldr	r3, [r3, #0]
 80028fa:	2280      	movs	r2, #128	@ 0x80
 80028fc:	0052      	lsls	r2, r2, #1
 80028fe:	609a      	str	r2, [r3, #8]

      if ((tsrflags & CAN_TSR_TXOK1) != 0U)
 8002900:	69ba      	ldr	r2, [r7, #24]
 8002902:	2380      	movs	r3, #128	@ 0x80
 8002904:	009b      	lsls	r3, r3, #2
 8002906:	4013      	ands	r3, r2
 8002908:	d004      	beq.n	8002914 <HAL_CAN_IRQHandler+0xc0>
#if USE_HAL_CAN_REGISTER_CALLBACKS == 1
        /* Call registered callback*/
        hcan->TxMailbox1CompleteCallback(hcan);
#else
        /* Call weak (surcharged) callback */
        HAL_CAN_TxMailbox1CompleteCallback(hcan);
 800290a:	687b      	ldr	r3, [r7, #4]
 800290c:	0018      	movs	r0, r3
 800290e:	f7ff f88f 	bl	8001a30 <HAL_CAN_TxMailbox1CompleteCallback>
 8002912:	e019      	b.n	8002948 <HAL_CAN_IRQHandler+0xf4>
#endif /* USE_HAL_CAN_REGISTER_CALLBACKS */
      }
      else
      {
        if ((tsrflags & CAN_TSR_ALST1) != 0U)
 8002914:	69ba      	ldr	r2, [r7, #24]
 8002916:	2380      	movs	r3, #128	@ 0x80
 8002918:	00db      	lsls	r3, r3, #3
 800291a:	4013      	ands	r3, r2
 800291c:	d005      	beq.n	800292a <HAL_CAN_IRQHandler+0xd6>
        {
          /* Update error code */
          errorcode |= HAL_CAN_ERROR_TX_ALST1;
 800291e:	6a7b      	ldr	r3, [r7, #36]	@ 0x24
 8002920:	2280      	movs	r2, #128	@ 0x80
 8002922:	0192      	lsls	r2, r2, #6
 8002924:	4313      	orrs	r3, r2
 8002926:	627b      	str	r3, [r7, #36]	@ 0x24
 8002928:	e00e      	b.n	8002948 <HAL_CAN_IRQHandler+0xf4>
        }
        else if ((tsrflags & CAN_TSR_TERR1) != 0U)
 800292a:	69ba      	ldr	r2, [r7, #24]
 800292c:	2380      	movs	r3, #128	@ 0x80
 800292e:	011b      	lsls	r3, r3, #4
 8002930:	4013      	ands	r3, r2
 8002932:	d005      	beq.n	8002940 <HAL_CAN_IRQHandler+0xec>
        {
          /* Update error code */
          errorcode |= HAL_CAN_ERROR_TX_TERR1;
 8002934:	6a7b      	ldr	r3, [r7, #36]	@ 0x24
 8002936:	2280      	movs	r2, #128	@ 0x80
 8002938:	01d2      	lsls	r2, r2, #7
 800293a:	4313      	orrs	r3, r2
 800293c:	627b      	str	r3, [r7, #36]	@ 0x24
 800293e:	e003      	b.n	8002948 <HAL_CAN_IRQHandler+0xf4>
#if USE_HAL_CAN_REGISTER_CALLBACKS == 1
          /* Call registered callback*/
          hcan->TxMailbox1AbortCallback(hcan);
#else
          /* Call weak (surcharged) callback */
          HAL_CAN_TxMailbox1AbortCallback(hcan);
 8002940:	687b      	ldr	r3, [r7, #4]
 8002942:	0018      	movs	r0, r3
 8002944:	f000 f942 	bl	8002bcc <HAL_CAN_TxMailbox1AbortCallback>
        }
      }
    }

    /* Transmit Mailbox 2 management *****************************************/
    if ((tsrflags & CAN_TSR_RQCP2) != 0U)
 8002948:	69ba      	ldr	r2, [r7, #24]
 800294a:	2380      	movs	r3, #128	@ 0x80
 800294c:	025b      	lsls	r3, r3, #9
 800294e:	4013      	ands	r3, r2
 8002950:	d028      	beq.n	80029a4 <HAL_CAN_IRQHandler+0x150>
    {
      /* Clear the Transmission Complete flag (and TXOK2,ALST2,TERR2 bits) */
      __HAL_CAN_CLEAR_FLAG(hcan, CAN_FLAG_RQCP2);
 8002952:	687b      	ldr	r3, [r7, #4]
 8002954:	681b      	ldr	r3, [r3, #0]
 8002956:	2280      	movs	r2, #128	@ 0x80
 8002958:	0252      	lsls	r2, r2, #9
 800295a:	609a      	str	r2, [r3, #8]

      if ((tsrflags & CAN_TSR_TXOK2) != 0U)
 800295c:	69ba      	ldr	r2, [r7, #24]
 800295e:	2380      	movs	r3, #128	@ 0x80
 8002960:	029b      	lsls	r3, r3, #10
 8002962:	4013      	ands	r3, r2
 8002964:	d004      	beq.n	8002970 <HAL_CAN_IRQHandler+0x11c>
#if USE_HAL_CAN_REGISTER_CALLBACKS == 1
        /* Call registered callback*/
        hcan->TxMailbox2CompleteCallback(hcan);
#else
        /* Call weak (surcharged) callback */
        HAL_CAN_TxMailbox2CompleteCallback(hcan);
 8002966:	687b      	ldr	r3, [r7, #4]
 8002968:	0018      	movs	r0, r3
 800296a:	f7ff f86d 	bl	8001a48 <HAL_CAN_TxMailbox2CompleteCallback>
 800296e:	e019      	b.n	80029a4 <HAL_CAN_IRQHandler+0x150>
#endif /* USE_HAL_CAN_REGISTER_CALLBACKS */
      }
      else
      {
        if ((tsrflags & CAN_TSR_ALST2) != 0U)
 8002970:	69ba      	ldr	r2, [r7, #24]
 8002972:	2380      	movs	r3, #128	@ 0x80
 8002974:	02db      	lsls	r3, r3, #11
 8002976:	4013      	ands	r3, r2
 8002978:	d005      	beq.n	8002986 <HAL_CAN_IRQHandler+0x132>
        {
          /* Update error code */
          errorcode |= HAL_CAN_ERROR_TX_ALST2;
 800297a:	6a7b      	ldr	r3, [r7, #36]	@ 0x24
 800297c:	2280      	movs	r2, #128	@ 0x80
 800297e:	0212      	lsls	r2, r2, #8
 8002980:	4313      	orrs	r3, r2
 8002982:	627b      	str	r3, [r7, #36]	@ 0x24
 8002984:	e00e      	b.n	80029a4 <HAL_CAN_IRQHandler+0x150>
        }
        else if ((tsrflags & CAN_TSR_TERR2) != 0U)
 8002986:	69ba      	ldr	r2, [r7, #24]
 8002988:	2380      	movs	r3, #128	@ 0x80
 800298a:	031b      	lsls	r3, r3, #12
 800298c:	4013      	ands	r3, r2
 800298e:	d005      	beq.n	800299c <HAL_CAN_IRQHandler+0x148>
        {
          /* Update error code */
          errorcode |= HAL_CAN_ERROR_TX_TERR2;
 8002990:	6a7b      	ldr	r3, [r7, #36]	@ 0x24
 8002992:	2280      	movs	r2, #128	@ 0x80
 8002994:	0252      	lsls	r2, r2, #9
 8002996:	4313      	orrs	r3, r2
 8002998:	627b      	str	r3, [r7, #36]	@ 0x24
 800299a:	e003      	b.n	80029a4 <HAL_CAN_IRQHandler+0x150>
#if USE_HAL_CAN_REGISTER_CALLBACKS == 1
          /* Call registered callback*/
          hcan->TxMailbox2AbortCallback(hcan);
#else
          /* Call weak (surcharged) callback */
          HAL_CAN_TxMailbox2AbortCallback(hcan);
 800299c:	687b      	ldr	r3, [r7, #4]
 800299e:	0018      	movs	r0, r3
 80029a0:	f000 f91c 	bl	8002bdc <HAL_CAN_TxMailbox2AbortCallback>
      }
    }
  }

  /* Receive FIFO 0 overrun interrupt management *****************************/
  if ((interrupts & CAN_IT_RX_FIFO0_OVERRUN) != 0U)
 80029a4:	6a3b      	ldr	r3, [r7, #32]
 80029a6:	2208      	movs	r2, #8
 80029a8:	4013      	ands	r3, r2
 80029aa:	d00c      	beq.n	80029c6 <HAL_CAN_IRQHandler+0x172>
  {
    if ((rf0rflags & CAN_RF0R_FOVR0) != 0U)
 80029ac:	697b      	ldr	r3, [r7, #20]
 80029ae:	2210      	movs	r2, #16
 80029b0:	4013      	ands	r3, r2
 80029b2:	d008      	beq.n	80029c6 <HAL_CAN_IRQHandler+0x172>
    {
      /* Set CAN error code to Rx Fifo 0 overrun error */
      errorcode |= HAL_CAN_ERROR_RX_FOV0;
 80029b4:	6a7b      	ldr	r3, [r7, #36]	@ 0x24
 80029b6:	2280      	movs	r2, #128	@ 0x80
 80029b8:	0092      	lsls	r2, r2, #2
 80029ba:	4313      	orrs	r3, r2
 80029bc:	627b      	str	r3, [r7, #36]	@ 0x24

      /* Clear FIFO0 Overrun Flag */
      __HAL_CAN_CLEAR_FLAG(hcan, CAN_FLAG_FOV0);
 80029be:	687b      	ldr	r3, [r7, #4]
 80029c0:	681b      	ldr	r3, [r3, #0]
 80029c2:	2210      	movs	r2, #16
 80029c4:	60da      	str	r2, [r3, #12]
    }
  }

  /* Receive FIFO 0 full interrupt management ********************************/
  if ((interrupts & CAN_IT_RX_FIFO0_FULL) != 0U)
 80029c6:	6a3b      	ldr	r3, [r7, #32]
 80029c8:	2204      	movs	r2, #4
 80029ca:	4013      	ands	r3, r2
 80029cc:	d00b      	beq.n	80029e6 <HAL_CAN_IRQHandler+0x192>
  {
    if ((rf0rflags & CAN_RF0R_FULL0) != 0U)
 80029ce:	697b      	ldr	r3, [r7, #20]
 80029d0:	2208      	movs	r2, #8
 80029d2:	4013      	ands	r3, r2
 80029d4:	d007      	beq.n	80029e6 <HAL_CAN_IRQHandler+0x192>
    {
      /* Clear FIFO 0 full Flag */
      __HAL_CAN_CLEAR_FLAG(hcan, CAN_FLAG_FF0);
 80029d6:	687b      	ldr	r3, [r7, #4]
 80029d8:	681b      	ldr	r3, [r3, #0]
 80029da:	2208      	movs	r2, #8
 80029dc:	60da      	str	r2, [r3, #12]
#if USE_HAL_CAN_REGISTER_CALLBACKS == 1
      /* Call registered callback*/
      hcan->RxFifo0FullCallback(hcan);
#else
      /* Call weak (surcharged) callback */
      HAL_CAN_RxFifo0FullCallback(hcan);
 80029de:	687b      	ldr	r3, [r7, #4]
 80029e0:	0018      	movs	r0, r3
 80029e2:	f000 f903 	bl	8002bec <HAL_CAN_RxFifo0FullCallback>
#endif /* USE_HAL_CAN_REGISTER_CALLBACKS */
    }
  }

  /* Receive FIFO 0 message pending interrupt management *********************/
  if ((interrupts & CAN_IT_RX_FIFO0_MSG_PENDING) != 0U)
 80029e6:	6a3b      	ldr	r3, [r7, #32]
 80029e8:	2202      	movs	r2, #2
 80029ea:	4013      	ands	r3, r2
 80029ec:	d009      	beq.n	8002a02 <HAL_CAN_IRQHandler+0x1ae>
  {
    /* Check if message is still pending */
    if ((hcan->Instance->RF0R & CAN_RF0R_FMP0) != 0U)
 80029ee:	687b      	ldr	r3, [r7, #4]
 80029f0:	681b      	ldr	r3, [r3, #0]
 80029f2:	68db      	ldr	r3, [r3, #12]
 80029f4:	2203      	movs	r2, #3
 80029f6:	4013      	ands	r3, r2
 80029f8:	d003      	beq.n	8002a02 <HAL_CAN_IRQHandler+0x1ae>
#if USE_HAL_CAN_REGISTER_CALLBACKS == 1
      /* Call registered callback*/
      hcan->RxFifo0MsgPendingCallback(hcan);
#else
      /* Call weak (surcharged) callback */
      HAL_CAN_RxFifo0MsgPendingCallback(hcan);
 80029fa:	687b      	ldr	r3, [r7, #4]
 80029fc:	0018      	movs	r0, r3
 80029fe:	f7fe ffdb 	bl	80019b8 <HAL_CAN_RxFifo0MsgPendingCallback>
#endif /* USE_HAL_CAN_REGISTER_CALLBACKS */
    }
  }

  /* Receive FIFO 1 overrun interrupt management *****************************/
  if ((interrupts & CAN_IT_RX_FIFO1_OVERRUN) != 0U)
 8002a02:	6a3b      	ldr	r3, [r7, #32]
 8002a04:	2240      	movs	r2, #64	@ 0x40
 8002a06:	4013      	ands	r3, r2
 8002a08:	d00c      	beq.n	8002a24 <HAL_CAN_IRQHandler+0x1d0>
  {
    if ((rf1rflags & CAN_RF1R_FOVR1) != 0U)
 8002a0a:	693b      	ldr	r3, [r7, #16]
 8002a0c:	2210      	movs	r2, #16
 8002a0e:	4013      	ands	r3, r2
 8002a10:	d008      	beq.n	8002a24 <HAL_CAN_IRQHandler+0x1d0>
    {
      /* Set CAN error code to Rx Fifo 1 overrun error */
      errorcode |= HAL_CAN_ERROR_RX_FOV1;
 8002a12:	6a7b      	ldr	r3, [r7, #36]	@ 0x24
 8002a14:	2280      	movs	r2, #128	@ 0x80
 8002a16:	00d2      	lsls	r2, r2, #3
 8002a18:	4313      	orrs	r3, r2
 8002a1a:	627b      	str	r3, [r7, #36]	@ 0x24

      /* Clear FIFO1 Overrun Flag */
      __HAL_CAN_CLEAR_FLAG(hcan, CAN_FLAG_FOV1);
 8002a1c:	687b      	ldr	r3, [r7, #4]
 8002a1e:	681b      	ldr	r3, [r3, #0]
 8002a20:	2210      	movs	r2, #16
 8002a22:	611a      	str	r2, [r3, #16]
    }
  }

  /* Receive FIFO 1 full interrupt management ********************************/
  if ((interrupts & CAN_IT_RX_FIFO1_FULL) != 0U)
 8002a24:	6a3b      	ldr	r3, [r7, #32]
 8002a26:	2220      	movs	r2, #32
 8002a28:	4013      	ands	r3, r2
 8002a2a:	d00b      	beq.n	8002a44 <HAL_CAN_IRQHandler+0x1f0>
  {
    if ((rf1rflags & CAN_RF1R_FULL1) != 0U)
 8002a2c:	693b      	ldr	r3, [r7, #16]
 8002a2e:	2208      	movs	r2, #8
 8002a30:	4013      	ands	r3, r2
 8002a32:	d007      	beq.n	8002a44 <HAL_CAN_IRQHandler+0x1f0>
    {
      /* Clear FIFO 1 full Flag */
      __HAL_CAN_CLEAR_FLAG(hcan, CAN_FLAG_FF1);
 8002a34:	687b      	ldr	r3, [r7, #4]
 8002a36:	681b      	ldr	r3, [r3, #0]
 8002a38:	2208      	movs	r2, #8
 8002a3a:	611a      	str	r2, [r3, #16]
#if USE_HAL_CAN_REGISTER_CALLBACKS == 1
      /* Call registered callback*/
      hcan->RxFifo1FullCallback(hcan);
#else
      /* Call weak (surcharged) callback */
      HAL_CAN_RxFifo1FullCallback(hcan);
 8002a3c:	687b      	ldr	r3, [r7, #4]
 8002a3e:	0018      	movs	r0, r3
 8002a40:	f000 f8e4 	bl	8002c0c <HAL_CAN_RxFifo1FullCallback>
#endif /* USE_HAL_CAN_REGISTER_CALLBACKS */
    }
  }

  /* Receive FIFO 1 message pending interrupt management *********************/
  if ((interrupts & CAN_IT_RX_FIFO1_MSG_PENDING) != 0U)
 8002a44:	6a3b      	ldr	r3, [r7, #32]
 8002a46:	2210      	movs	r2, #16
 8002a48:	4013      	ands	r3, r2
 8002a4a:	d009      	beq.n	8002a60 <HAL_CAN_IRQHandler+0x20c>
  {
    /* Check if message is still pending */
    if ((hcan->Instance->RF1R & CAN_RF1R_FMP1) != 0U)
 8002a4c:	687b      	ldr	r3, [r7, #4]
 8002a4e:	681b      	ldr	r3, [r3, #0]
 8002a50:	691b      	ldr	r3, [r3, #16]
 8002a52:	2203      	movs	r2, #3
 8002a54:	4013      	ands	r3, r2
 8002a56:	d003      	beq.n	8002a60 <HAL_CAN_IRQHandler+0x20c>
#if USE_HAL_CAN_REGISTER_CALLBACKS == 1
      /* Call registered callback*/
      hcan->RxFifo1MsgPendingCallback(hcan);
#else
      /* Call weak (surcharged) callback */
      HAL_CAN_RxFifo1MsgPendingCallback(hcan);
 8002a58:	687b      	ldr	r3, [r7, #4]
 8002a5a:	0018      	movs	r0, r3
 8002a5c:	f000 f8ce 	bl	8002bfc <HAL_CAN_RxFifo1MsgPendingCallback>
#endif /* USE_HAL_CAN_REGISTER_CALLBACKS */
    }
  }

  /* Sleep interrupt management *********************************************/
  if ((interrupts & CAN_IT_SLEEP_ACK) != 0U)
 8002a60:	6a3a      	ldr	r2, [r7, #32]
 8002a62:	2380      	movs	r3, #128	@ 0x80
 8002a64:	029b      	lsls	r3, r3, #10
 8002a66:	4013      	ands	r3, r2
 8002a68:	d00b      	beq.n	8002a82 <HAL_CAN_IRQHandler+0x22e>
  {
    if ((msrflags & CAN_MSR_SLAKI) != 0U)
 8002a6a:	69fb      	ldr	r3, [r7, #28]
 8002a6c:	2210      	movs	r2, #16
 8002a6e:	4013      	ands	r3, r2
 8002a70:	d007      	beq.n	8002a82 <HAL_CAN_IRQHandler+0x22e>
    {
      /* Clear Sleep interrupt Flag */
      __HAL_CAN_CLEAR_FLAG(hcan, CAN_FLAG_SLAKI);
 8002a72:	687b      	ldr	r3, [r7, #4]
 8002a74:	681b      	ldr	r3, [r3, #0]
 8002a76:	2210      	movs	r2, #16
 8002a78:	605a      	str	r2, [r3, #4]
#if USE_HAL_CAN_REGISTER_CALLBACKS == 1
      /* Call registered callback*/
      hcan->SleepCallback(hcan);
#else
      /* Call weak (surcharged) callback */
      HAL_CAN_SleepCallback(hcan);
 8002a7a:	687b      	ldr	r3, [r7, #4]
 8002a7c:	0018      	movs	r0, r3
 8002a7e:	f000 f8cd 	bl	8002c1c <HAL_CAN_SleepCallback>
#endif /* USE_HAL_CAN_REGISTER_CALLBACKS */
    }
  }

  /* WakeUp interrupt management *********************************************/
  if ((interrupts & CAN_IT_WAKEUP) != 0U)
 8002a82:	6a3a      	ldr	r2, [r7, #32]
 8002a84:	2380      	movs	r3, #128	@ 0x80
 8002a86:	025b      	lsls	r3, r3, #9
 8002a88:	4013      	ands	r3, r2
 8002a8a:	d00b      	beq.n	8002aa4 <HAL_CAN_IRQHandler+0x250>
  {
    if ((msrflags & CAN_MSR_WKUI) != 0U)
 8002a8c:	69fb      	ldr	r3, [r7, #28]
 8002a8e:	2208      	movs	r2, #8
 8002a90:	4013      	ands	r3, r2
 8002a92:	d007      	beq.n	8002aa4 <HAL_CAN_IRQHandler+0x250>
    {
      /* Clear WakeUp Flag */
      __HAL_CAN_CLEAR_FLAG(hcan, CAN_FLAG_WKU);
 8002a94:	687b      	ldr	r3, [r7, #4]
 8002a96:	681b      	ldr	r3, [r3, #0]
 8002a98:	2208      	movs	r2, #8
 8002a9a:	605a      	str	r2, [r3, #4]
#if USE_HAL_CAN_REGISTER_CALLBACKS == 1
      /* Call registered callback*/
      hcan->WakeUpFromRxMsgCallback(hcan);
#else
      /* Call weak (surcharged) callback */
      HAL_CAN_WakeUpFromRxMsgCallback(hcan);
 8002a9c:	687b      	ldr	r3, [r7, #4]
 8002a9e:	0018      	movs	r0, r3
 8002aa0:	f000 f8c4 	bl	8002c2c <HAL_CAN_WakeUpFromRxMsgCallback>
#endif /* USE_HAL_CAN_REGISTER_CALLBACKS */
    }
  }

  /* Error interrupts management *********************************************/
  if ((interrupts & CAN_IT_ERROR) != 0U)
 8002aa4:	6a3a      	ldr	r2, [r7, #32]
 8002aa6:	2380      	movs	r3, #128	@ 0x80
 8002aa8:	021b      	lsls	r3, r3, #8
 8002aaa:	4013      	ands	r3, r2
 8002aac:	d100      	bne.n	8002ab0 <HAL_CAN_IRQHandler+0x25c>
 8002aae:	e074      	b.n	8002b9a <HAL_CAN_IRQHandler+0x346>
  {
    if ((msrflags & CAN_MSR_ERRI) != 0U)
 8002ab0:	69fb      	ldr	r3, [r7, #28]
 8002ab2:	2204      	movs	r2, #4
 8002ab4:	4013      	ands	r3, r2
 8002ab6:	d100      	bne.n	8002aba <HAL_CAN_IRQHandler+0x266>
 8002ab8:	e06b      	b.n	8002b92 <HAL_CAN_IRQHandler+0x33e>
    {
      /* Check Error Warning Flag */
      if (((interrupts & CAN_IT_ERROR_WARNING) != 0U) &&
 8002aba:	6a3a      	ldr	r2, [r7, #32]
 8002abc:	2380      	movs	r3, #128	@ 0x80
 8002abe:	005b      	lsls	r3, r3, #1
 8002ac0:	4013      	ands	r3, r2
 8002ac2:	d007      	beq.n	8002ad4 <HAL_CAN_IRQHandler+0x280>
          ((esrflags & CAN_ESR_EWGF) != 0U))
 8002ac4:	68fb      	ldr	r3, [r7, #12]
 8002ac6:	2201      	movs	r2, #1
 8002ac8:	4013      	ands	r3, r2
      if (((interrupts & CAN_IT_ERROR_WARNING) != 0U) &&
 8002aca:	d003      	beq.n	8002ad4 <HAL_CAN_IRQHandler+0x280>
      {
        /* Set CAN error code to Error Warning */
        errorcode |= HAL_CAN_ERROR_EWG;
 8002acc:	6a7b      	ldr	r3, [r7, #36]	@ 0x24
 8002ace:	2201      	movs	r2, #1
 8002ad0:	4313      	orrs	r3, r2
 8002ad2:	627b      	str	r3, [r7, #36]	@ 0x24

        /* No need for clear of Error Warning Flag as read-only */
      }

      /* Check Error Passive Flag */
      if (((interrupts & CAN_IT_ERROR_PASSIVE) != 0U) &&
 8002ad4:	6a3a      	ldr	r2, [r7, #32]
 8002ad6:	2380      	movs	r3, #128	@ 0x80
 8002ad8:	009b      	lsls	r3, r3, #2
 8002ada:	4013      	ands	r3, r2
 8002adc:	d007      	beq.n	8002aee <HAL_CAN_IRQHandler+0x29a>
          ((esrflags & CAN_ESR_EPVF) != 0U))
 8002ade:	68fb      	ldr	r3, [r7, #12]
 8002ae0:	2202      	movs	r2, #2
 8002ae2:	4013      	ands	r3, r2
      if (((interrupts & CAN_IT_ERROR_PASSIVE) != 0U) &&
 8002ae4:	d003      	beq.n	8002aee <HAL_CAN_IRQHandler+0x29a>
      {
        /* Set CAN error code to Error Passive */
        errorcode |= HAL_CAN_ERROR_EPV;
 8002ae6:	6a7b      	ldr	r3, [r7, #36]	@ 0x24
 8002ae8:	2202      	movs	r2, #2
 8002aea:	4313      	orrs	r3, r2
 8002aec:	627b      	str	r3, [r7, #36]	@ 0x24

        /* No need for clear of Error Passive Flag as read-only */
      }

      /* Check Bus-off Flag */
      if (((interrupts & CAN_IT_BUSOFF) != 0U) &&
 8002aee:	6a3a      	ldr	r2, [r7, #32]
 8002af0:	2380      	movs	r3, #128	@ 0x80
 8002af2:	00db      	lsls	r3, r3, #3
 8002af4:	4013      	ands	r3, r2
 8002af6:	d007      	beq.n	8002b08 <HAL_CAN_IRQHandler+0x2b4>
          ((esrflags & CAN_ESR_BOFF) != 0U))
 8002af8:	68fb      	ldr	r3, [r7, #12]
 8002afa:	2204      	movs	r2, #4
 8002afc:	4013      	ands	r3, r2
      if (((interrupts & CAN_IT_BUSOFF) != 0U) &&
 8002afe:	d003      	beq.n	8002b08 <HAL_CAN_IRQHandler+0x2b4>
      {
        /* Set CAN error code to Bus-Off */
        errorcode |= HAL_CAN_ERROR_BOF;
 8002b00:	6a7b      	ldr	r3, [r7, #36]	@ 0x24
 8002b02:	2204      	movs	r2, #4
 8002b04:	4313      	orrs	r3, r2
 8002b06:	627b      	str	r3, [r7, #36]	@ 0x24

        /* No need for clear of Error Bus-Off as read-only */
      }

      /* Check Last Error Code Flag */
      if (((interrupts & CAN_IT_LAST_ERROR_CODE) != 0U) &&
 8002b08:	6a3a      	ldr	r2, [r7, #32]
 8002b0a:	2380      	movs	r3, #128	@ 0x80
 8002b0c:	011b      	lsls	r3, r3, #4
 8002b0e:	4013      	ands	r3, r2
 8002b10:	d03f      	beq.n	8002b92 <HAL_CAN_IRQHandler+0x33e>
          ((esrflags & CAN_ESR_LEC) != 0U))
 8002b12:	68fb      	ldr	r3, [r7, #12]
 8002b14:	2270      	movs	r2, #112	@ 0x70
 8002b16:	4013      	ands	r3, r2
      if (((interrupts & CAN_IT_LAST_ERROR_CODE) != 0U) &&
 8002b18:	d03b      	beq.n	8002b92 <HAL_CAN_IRQHandler+0x33e>
      {
        switch (esrflags & CAN_ESR_LEC)
 8002b1a:	68fb      	ldr	r3, [r7, #12]
 8002b1c:	2270      	movs	r2, #112	@ 0x70
 8002b1e:	4013      	ands	r3, r2
 8002b20:	2b60      	cmp	r3, #96	@ 0x60
 8002b22:	d027      	beq.n	8002b74 <HAL_CAN_IRQHandler+0x320>
 8002b24:	d82c      	bhi.n	8002b80 <HAL_CAN_IRQHandler+0x32c>
 8002b26:	2b50      	cmp	r3, #80	@ 0x50
 8002b28:	d01f      	beq.n	8002b6a <HAL_CAN_IRQHandler+0x316>
 8002b2a:	d829      	bhi.n	8002b80 <HAL_CAN_IRQHandler+0x32c>
 8002b2c:	2b40      	cmp	r3, #64	@ 0x40
 8002b2e:	d017      	beq.n	8002b60 <HAL_CAN_IRQHandler+0x30c>
 8002b30:	d826      	bhi.n	8002b80 <HAL_CAN_IRQHandler+0x32c>
 8002b32:	2b30      	cmp	r3, #48	@ 0x30
 8002b34:	d00f      	beq.n	8002b56 <HAL_CAN_IRQHandler+0x302>
 8002b36:	d823      	bhi.n	8002b80 <HAL_CAN_IRQHandler+0x32c>
 8002b38:	2b10      	cmp	r3, #16
 8002b3a:	d002      	beq.n	8002b42 <HAL_CAN_IRQHandler+0x2ee>
 8002b3c:	2b20      	cmp	r3, #32
 8002b3e:	d005      	beq.n	8002b4c <HAL_CAN_IRQHandler+0x2f8>
          case (CAN_ESR_LEC_2 | CAN_ESR_LEC_1):
            /* Set CAN error code to CRC error */
            errorcode |= HAL_CAN_ERROR_CRC;
            break;
          default:
            break;
 8002b40:	e01e      	b.n	8002b80 <HAL_CAN_IRQHandler+0x32c>
            errorcode |= HAL_CAN_ERROR_STF;
 8002b42:	6a7b      	ldr	r3, [r7, #36]	@ 0x24
 8002b44:	2208      	movs	r2, #8
 8002b46:	4313      	orrs	r3, r2
 8002b48:	627b      	str	r3, [r7, #36]	@ 0x24
            break;
 8002b4a:	e01a      	b.n	8002b82 <HAL_CAN_IRQHandler+0x32e>
            errorcode |= HAL_CAN_ERROR_FOR;
 8002b4c:	6a7b      	ldr	r3, [r7, #36]	@ 0x24
 8002b4e:	2210      	movs	r2, #16
 8002b50:	4313      	orrs	r3, r2
 8002b52:	627b      	str	r3, [r7, #36]	@ 0x24
            break;
 8002b54:	e015      	b.n	8002b82 <HAL_CAN_IRQHandler+0x32e>
            errorcode |= HAL_CAN_ERROR_ACK;
 8002b56:	6a7b      	ldr	r3, [r7, #36]	@ 0x24
 8002b58:	2220      	movs	r2, #32
 8002b5a:	4313      	orrs	r3, r2
 8002b5c:	627b      	str	r3, [r7, #36]	@ 0x24
            break;
 8002b5e:	e010      	b.n	8002b82 <HAL_CAN_IRQHandler+0x32e>
            errorcode |= HAL_CAN_ERROR_BR;
 8002b60:	6a7b      	ldr	r3, [r7, #36]	@ 0x24
 8002b62:	2240      	movs	r2, #64	@ 0x40
 8002b64:	4313      	orrs	r3, r2
 8002b66:	627b      	str	r3, [r7, #36]	@ 0x24
            break;
 8002b68:	e00b      	b.n	8002b82 <HAL_CAN_IRQHandler+0x32e>
            errorcode |= HAL_CAN_ERROR_BD;
 8002b6a:	6a7b      	ldr	r3, [r7, #36]	@ 0x24
 8002b6c:	2280      	movs	r2, #128	@ 0x80
 8002b6e:	4313      	orrs	r3, r2
 8002b70:	627b      	str	r3, [r7, #36]	@ 0x24
            break;
 8002b72:	e006      	b.n	8002b82 <HAL_CAN_IRQHandler+0x32e>
            errorcode |= HAL_CAN_ERROR_CRC;
 8002b74:	6a7b      	ldr	r3, [r7, #36]	@ 0x24
 8002b76:	2280      	movs	r2, #128	@ 0x80
 8002b78:	0052      	lsls	r2, r2, #1
 8002b7a:	4313      	orrs	r3, r2
 8002b7c:	627b      	str	r3, [r7, #36]	@ 0x24
            break;
 8002b7e:	e000      	b.n	8002b82 <HAL_CAN_IRQHandler+0x32e>
            break;
 8002b80:	46c0      	nop			@ (mov r8, r8)
        }

        /* Clear Last error code Flag */
        CLEAR_BIT(hcan->Instance->ESR, CAN_ESR_LEC);
 8002b82:	687b      	ldr	r3, [r7, #4]
 8002b84:	681b      	ldr	r3, [r3, #0]
 8002b86:	699a      	ldr	r2, [r3, #24]
 8002b88:	687b      	ldr	r3, [r7, #4]
 8002b8a:	681b      	ldr	r3, [r3, #0]
 8002b8c:	2170      	movs	r1, #112	@ 0x70
 8002b8e:	438a      	bics	r2, r1
 8002b90:	619a      	str	r2, [r3, #24]
      }
    }

    /* Clear ERRI Flag */
    __HAL_CAN_CLEAR_FLAG(hcan, CAN_FLAG_ERRI);
 8002b92:	687b      	ldr	r3, [r7, #4]
 8002b94:	681b      	ldr	r3, [r3, #0]
 8002b96:	2204      	movs	r2, #4
 8002b98:	605a      	str	r2, [r3, #4]
  }

  /* Call the Error call Back in case of Errors */
  if (errorcode != HAL_CAN_ERROR_NONE)
 8002b9a:	6a7b      	ldr	r3, [r7, #36]	@ 0x24
 8002b9c:	2b00      	cmp	r3, #0
 8002b9e:	d009      	beq.n	8002bb4 <HAL_CAN_IRQHandler+0x360>
  {
    /* Update error code in handle */
    hcan->ErrorCode |= errorcode;
 8002ba0:	687b      	ldr	r3, [r7, #4]
 8002ba2:	6a5a      	ldr	r2, [r3, #36]	@ 0x24
 8002ba4:	6a7b      	ldr	r3, [r7, #36]	@ 0x24
 8002ba6:	431a      	orrs	r2, r3
 8002ba8:	687b      	ldr	r3, [r7, #4]
 8002baa:	625a      	str	r2, [r3, #36]	@ 0x24
#if USE_HAL_CAN_REGISTER_CALLBACKS == 1
    /* Call registered callback*/
    hcan->ErrorCallback(hcan);
#else
    /* Call weak (surcharged) callback */
    HAL_CAN_ErrorCallback(hcan);
 8002bac:	687b      	ldr	r3, [r7, #4]
 8002bae:	0018      	movs	r0, r3
 8002bb0:	f000 f844 	bl	8002c3c <HAL_CAN_ErrorCallback>
#endif /* USE_HAL_CAN_REGISTER_CALLBACKS */
  }
}
 8002bb4:	46c0      	nop			@ (mov r8, r8)
 8002bb6:	46bd      	mov	sp, r7
 8002bb8:	b00a      	add	sp, #40	@ 0x28
 8002bba:	bd80      	pop	{r7, pc}

08002bbc <HAL_CAN_TxMailbox0AbortCallback>:
  * @param  hcan pointer to an CAN_HandleTypeDef structure that contains
  *         the configuration information for the specified CAN.
  * @retval None
  */
__weak void HAL_CAN_TxMailbox0AbortCallback(CAN_HandleTypeDef *hcan)
{
 8002bbc:	b580      	push	{r7, lr}
 8002bbe:	b082      	sub	sp, #8
 8002bc0:	af00      	add	r7, sp, #0
 8002bc2:	6078      	str	r0, [r7, #4]

  /* NOTE : This function Should not be modified, when the callback is needed,
            the HAL_CAN_TxMailbox0AbortCallback could be implemented in the
            user file
   */
}
 8002bc4:	46c0      	nop			@ (mov r8, r8)
 8002bc6:	46bd      	mov	sp, r7
 8002bc8:	b002      	add	sp, #8
 8002bca:	bd80      	pop	{r7, pc}

08002bcc <HAL_CAN_TxMailbox1AbortCallback>:
  * @param  hcan pointer to an CAN_HandleTypeDef structure that contains
  *         the configuration information for the specified CAN.
  * @retval None
  */
__weak void HAL_CAN_TxMailbox1AbortCallback(CAN_HandleTypeDef *hcan)
{
 8002bcc:	b580      	push	{r7, lr}
 8002bce:	b082      	sub	sp, #8
 8002bd0:	af00      	add	r7, sp, #0
 8002bd2:	6078      	str	r0, [r7, #4]

  /* NOTE : This function Should not be modified, when the callback is needed,
            the HAL_CAN_TxMailbox1AbortCallback could be implemented in the
            user file
   */
}
 8002bd4:	46c0      	nop			@ (mov r8, r8)
 8002bd6:	46bd      	mov	sp, r7
 8002bd8:	b002      	add	sp, #8
 8002bda:	bd80      	pop	{r7, pc}

08002bdc <HAL_CAN_TxMailbox2AbortCallback>:
  * @param  hcan pointer to an CAN_HandleTypeDef structure that contains
  *         the configuration information for the specified CAN.
  * @retval None
  */
__weak void HAL_CAN_TxMailbox2AbortCallback(CAN_HandleTypeDef *hcan)
{
 8002bdc:	b580      	push	{r7, lr}
 8002bde:	b082      	sub	sp, #8
 8002be0:	af00      	add	r7, sp, #0
 8002be2:	6078      	str	r0, [r7, #4]

  /* NOTE : This function Should not be modified, when the callback is needed,
            the HAL_CAN_TxMailbox2AbortCallback could be implemented in the
            user file
   */
}
 8002be4:	46c0      	nop			@ (mov r8, r8)
 8002be6:	46bd      	mov	sp, r7
 8002be8:	b002      	add	sp, #8
 8002bea:	bd80      	pop	{r7, pc}

08002bec <HAL_CAN_RxFifo0FullCallback>:
  * @param  hcan pointer to a CAN_HandleTypeDef structure that contains
  *         the configuration information for the specified CAN.
  * @retval None
  */
__weak void HAL_CAN_RxFifo0FullCallback(CAN_HandleTypeDef *hcan)
{
 8002bec:	b580      	push	{r7, lr}
 8002bee:	b082      	sub	sp, #8
 8002bf0:	af00      	add	r7, sp, #0
 8002bf2:	6078      	str	r0, [r7, #4]

  /* NOTE : This function Should not be modified, when the callback is needed,
            the HAL_CAN_RxFifo0FullCallback could be implemented in the user
            file
   */
}
 8002bf4:	46c0      	nop			@ (mov r8, r8)
 8002bf6:	46bd      	mov	sp, r7
 8002bf8:	b002      	add	sp, #8
 8002bfa:	bd80      	pop	{r7, pc}

08002bfc <HAL_CAN_RxFifo1MsgPendingCallback>:
  * @param  hcan pointer to a CAN_HandleTypeDef structure that contains
  *         the configuration information for the specified CAN.
  * @retval None
  */
__weak void HAL_CAN_RxFifo1MsgPendingCallback(CAN_HandleTypeDef *hcan)
{
 8002bfc:	b580      	push	{r7, lr}
 8002bfe:	b082      	sub	sp, #8
 8002c00:	af00      	add	r7, sp, #0
 8002c02:	6078      	str	r0, [r7, #4]

  /* NOTE : This function Should not be modified, when the callback is needed,
            the HAL_CAN_RxFifo1MsgPendingCallback could be implemented in the
            user file
   */
}
 8002c04:	46c0      	nop			@ (mov r8, r8)
 8002c06:	46bd      	mov	sp, r7
 8002c08:	b002      	add	sp, #8
 8002c0a:	bd80      	pop	{r7, pc}

08002c0c <HAL_CAN_RxFifo1FullCallback>:
  * @param  hcan pointer to a CAN_HandleTypeDef structure that contains
  *         the configuration information for the specified CAN.
  * @retval None
  */
__weak void HAL_CAN_RxFifo1FullCallback(CAN_HandleTypeDef *hcan)
{
 8002c0c:	b580      	push	{r7, lr}
 8002c0e:	b082      	sub	sp, #8
 8002c10:	af00      	add	r7, sp, #0
 8002c12:	6078      	str	r0, [r7, #4]

  /* NOTE : This function Should not be modified, when the callback is needed,
            the HAL_CAN_RxFifo1FullCallback could be implemented in the user
            file
   */
}
 8002c14:	46c0      	nop			@ (mov r8, r8)
 8002c16:	46bd      	mov	sp, r7
 8002c18:	b002      	add	sp, #8
 8002c1a:	bd80      	pop	{r7, pc}

08002c1c <HAL_CAN_SleepCallback>:
  * @param  hcan pointer to a CAN_HandleTypeDef structure that contains
  *         the configuration information for the specified CAN.
  * @retval None
  */
__weak void HAL_CAN_SleepCallback(CAN_HandleTypeDef *hcan)
{
 8002c1c:	b580      	push	{r7, lr}
 8002c1e:	b082      	sub	sp, #8
 8002c20:	af00      	add	r7, sp, #0
 8002c22:	6078      	str	r0, [r7, #4]
  UNUSED(hcan);

  /* NOTE : This function Should not be modified, when the callback is needed,
            the HAL_CAN_SleepCallback could be implemented in the user file
   */
}
 8002c24:	46c0      	nop			@ (mov r8, r8)
 8002c26:	46bd      	mov	sp, r7
 8002c28:	b002      	add	sp, #8
 8002c2a:	bd80      	pop	{r7, pc}

08002c2c <HAL_CAN_WakeUpFromRxMsgCallback>:
  * @param  hcan pointer to a CAN_HandleTypeDef structure that contains
  *         the configuration information for the specified CAN.
  * @retval None
  */
__weak void HAL_CAN_WakeUpFromRxMsgCallback(CAN_HandleTypeDef *hcan)
{
 8002c2c:	b580      	push	{r7, lr}
 8002c2e:	b082      	sub	sp, #8
 8002c30:	af00      	add	r7, sp, #0
 8002c32:	6078      	str	r0, [r7, #4]

  /* NOTE : This function Should not be modified, when the callback is needed,
            the HAL_CAN_WakeUpFromRxMsgCallback could be implemented in the
            user file
   */
}
 8002c34:	46c0      	nop			@ (mov r8, r8)
 8002c36:	46bd      	mov	sp, r7
 8002c38:	b002      	add	sp, #8
 8002c3a:	bd80      	pop	{r7, pc}

08002c3c <HAL_CAN_ErrorCallback>:
  * @param  hcan pointer to a CAN_HandleTypeDef structure that contains
  *         the configuration information for the specified CAN.
  * @retval None
  */
__weak void HAL_CAN_ErrorCallback(CAN_HandleTypeDef *hcan)
{
 8002c3c:	b580      	push	{r7, lr}
 8002c3e:	b082      	sub	sp, #8
 8002c40:	af00      	add	r7, sp, #0
 8002c42:	6078      	str	r0, [r7, #4]
  UNUSED(hcan);

  /* NOTE : This function Should not be modified, when the callback is needed,
            the HAL_CAN_ErrorCallback could be implemented in the user file
   */
}
 8002c44:	46c0      	nop			@ (mov r8, r8)
 8002c46:	46bd      	mov	sp, r7
 8002c48:	b002      	add	sp, #8
 8002c4a:	bd80      	pop	{r7, pc}

08002c4c <__NVIC_EnableIRQ>:
{
 8002c4c:	b580      	push	{r7, lr}
 8002c4e:	b082      	sub	sp, #8
 8002c50:	af00      	add	r7, sp, #0
 8002c52:	0002      	movs	r2, r0
 8002c54:	1dfb      	adds	r3, r7, #7
 8002c56:	701a      	strb	r2, [r3, #0]
  if ((int32_t)(IRQn) >= 0)
 8002c58:	1dfb      	adds	r3, r7, #7
 8002c5a:	781b      	ldrb	r3, [r3, #0]
 8002c5c:	2b7f      	cmp	r3, #127	@ 0x7f
 8002c5e:	d809      	bhi.n	8002c74 <__NVIC_EnableIRQ+0x28>
    NVIC->ISER[0U] = (uint32_t)(1UL << (((uint32_t)IRQn) & 0x1FUL));
 8002c60:	1dfb      	adds	r3, r7, #7
 8002c62:	781b      	ldrb	r3, [r3, #0]
 8002c64:	001a      	movs	r2, r3
 8002c66:	231f      	movs	r3, #31
 8002c68:	401a      	ands	r2, r3
 8002c6a:	4b04      	ldr	r3, [pc, #16]	@ (8002c7c <__NVIC_EnableIRQ+0x30>)
 8002c6c:	2101      	movs	r1, #1
 8002c6e:	4091      	lsls	r1, r2
 8002c70:	000a      	movs	r2, r1
 8002c72:	601a      	str	r2, [r3, #0]
}
 8002c74:	46c0      	nop			@ (mov r8, r8)
 8002c76:	46bd      	mov	sp, r7
 8002c78:	b002      	add	sp, #8
 8002c7a:	bd80      	pop	{r7, pc}
 8002c7c:	e000e100 	.word	0xe000e100

08002c80 <__NVIC_DisableIRQ>:
{
 8002c80:	b580      	push	{r7, lr}
 8002c82:	b082      	sub	sp, #8
 8002c84:	af00      	add	r7, sp, #0
 8002c86:	0002      	movs	r2, r0
 8002c88:	1dfb      	adds	r3, r7, #7
 8002c8a:	701a      	strb	r2, [r3, #0]
  if ((int32_t)(IRQn) >= 0)
 8002c8c:	1dfb      	adds	r3, r7, #7
 8002c8e:	781b      	ldrb	r3, [r3, #0]
 8002c90:	2b7f      	cmp	r3, #127	@ 0x7f
 8002c92:	d810      	bhi.n	8002cb6 <__NVIC_DisableIRQ+0x36>
    NVIC->ICER[0U] = (uint32_t)(1UL << (((uint32_t)IRQn) & 0x1FUL));
 8002c94:	1dfb      	adds	r3, r7, #7
 8002c96:	781b      	ldrb	r3, [r3, #0]
 8002c98:	001a      	movs	r2, r3
 8002c9a:	231f      	movs	r3, #31
 8002c9c:	4013      	ands	r3, r2
 8002c9e:	4908      	ldr	r1, [pc, #32]	@ (8002cc0 <__NVIC_DisableIRQ+0x40>)
 8002ca0:	2201      	movs	r2, #1
 8002ca2:	409a      	lsls	r2, r3
 8002ca4:	0013      	movs	r3, r2
 8002ca6:	2280      	movs	r2, #128	@ 0x80
 8002ca8:	508b      	str	r3, [r1, r2]
  __ASM volatile ("dsb 0xF":::"memory");
 8002caa:	f3bf 8f4f 	dsb	sy
}
 8002cae:	46c0      	nop			@ (mov r8, r8)
  __ASM volatile ("isb 0xF":::"memory");
 8002cb0:	f3bf 8f6f 	isb	sy
}
 8002cb4:	46c0      	nop			@ (mov r8, r8)
}
 8002cb6:	46c0      	nop			@ (mov r8, r8)
 8002cb8:	46bd      	mov	sp, r7
 8002cba:	b002      	add	sp, #8
 8002cbc:	bd80      	pop	{r7, pc}
 8002cbe:	46c0      	nop			@ (mov r8, r8)
 8002cc0:	e000e100 	.word	0xe000e100

08002cc4 <__NVIC_SetPriority>:
{
 8002cc4:	b590      	push	{r4, r7, lr}
 8002cc6:	b083      	sub	sp, #12
 8002cc8:	af00      	add	r7, sp, #0
 8002cca:	0002      	movs	r2, r0
 8002ccc:	6039      	str	r1, [r7, #0]
 8002cce:	1dfb      	adds	r3, r7, #7
 8002cd0:	701a      	strb	r2, [r3, #0]
  if ((int32_t)(IRQn) >= 0)
 8002cd2:	1dfb      	adds	r3, r7, #7
 8002cd4:	781b      	ldrb	r3, [r3, #0]
 8002cd6:	2b7f      	cmp	r3, #127	@ 0x7f
 8002cd8:	d828      	bhi.n	8002d2c <__NVIC_SetPriority+0x68>
    NVIC->IP[_IP_IDX(IRQn)]  = ((uint32_t)(NVIC->IP[_IP_IDX(IRQn)]  & ~(0xFFUL << _BIT_SHIFT(IRQn))) |
 8002cda:	4a2f      	ldr	r2, [pc, #188]	@ (8002d98 <__NVIC_SetPriority+0xd4>)
 8002cdc:	1dfb      	adds	r3, r7, #7
 8002cde:	781b      	ldrb	r3, [r3, #0]
 8002ce0:	b25b      	sxtb	r3, r3
 8002ce2:	089b      	lsrs	r3, r3, #2
 8002ce4:	33c0      	adds	r3, #192	@ 0xc0
 8002ce6:	009b      	lsls	r3, r3, #2
 8002ce8:	589b      	ldr	r3, [r3, r2]
 8002cea:	1dfa      	adds	r2, r7, #7
 8002cec:	7812      	ldrb	r2, [r2, #0]
 8002cee:	0011      	movs	r1, r2
 8002cf0:	2203      	movs	r2, #3
 8002cf2:	400a      	ands	r2, r1
 8002cf4:	00d2      	lsls	r2, r2, #3
 8002cf6:	21ff      	movs	r1, #255	@ 0xff
 8002cf8:	4091      	lsls	r1, r2
 8002cfa:	000a      	movs	r2, r1
 8002cfc:	43d2      	mvns	r2, r2
 8002cfe:	401a      	ands	r2, r3
 8002d00:	0011      	movs	r1, r2
       (((priority << (8U - __NVIC_PRIO_BITS)) & (uint32_t)0xFFUL) << _BIT_SHIFT(IRQn)));
 8002d02:	683b      	ldr	r3, [r7, #0]
 8002d04:	019b      	lsls	r3, r3, #6
 8002d06:	22ff      	movs	r2, #255	@ 0xff
 8002d08:	401a      	ands	r2, r3
 8002d0a:	1dfb      	adds	r3, r7, #7
 8002d0c:	781b      	ldrb	r3, [r3, #0]
 8002d0e:	0018      	movs	r0, r3
 8002d10:	2303      	movs	r3, #3
 8002d12:	4003      	ands	r3, r0
 8002d14:	00db      	lsls	r3, r3, #3
 8002d16:	409a      	lsls	r2, r3
    NVIC->IP[_IP_IDX(IRQn)]  = ((uint32_t)(NVIC->IP[_IP_IDX(IRQn)]  & ~(0xFFUL << _BIT_SHIFT(IRQn))) |
 8002d18:	481f      	ldr	r0, [pc, #124]	@ (8002d98 <__NVIC_SetPriority+0xd4>)
 8002d1a:	1dfb      	adds	r3, r7, #7
 8002d1c:	781b      	ldrb	r3, [r3, #0]
 8002d1e:	b25b      	sxtb	r3, r3
 8002d20:	089b      	lsrs	r3, r3, #2
 8002d22:	430a      	orrs	r2, r1
 8002d24:	33c0      	adds	r3, #192	@ 0xc0
 8002d26:	009b      	lsls	r3, r3, #2
 8002d28:	501a      	str	r2, [r3, r0]
}
 8002d2a:	e031      	b.n	8002d90 <__NVIC_SetPriority+0xcc>
    SCB->SHP[_SHP_IDX(IRQn)] = ((uint32_t)(SCB->SHP[_SHP_IDX(IRQn)] & ~(0xFFUL << _BIT_SHIFT(IRQn))) |
 8002d2c:	4a1b      	ldr	r2, [pc, #108]	@ (8002d9c <__NVIC_SetPriority+0xd8>)
 8002d2e:	1dfb      	adds	r3, r7, #7
 8002d30:	781b      	ldrb	r3, [r3, #0]
 8002d32:	0019      	movs	r1, r3
 8002d34:	230f      	movs	r3, #15
 8002d36:	400b      	ands	r3, r1
 8002d38:	3b08      	subs	r3, #8
 8002d3a:	089b      	lsrs	r3, r3, #2
 8002d3c:	3306      	adds	r3, #6
 8002d3e:	009b      	lsls	r3, r3, #2
 8002d40:	18d3      	adds	r3, r2, r3
 8002d42:	3304      	adds	r3, #4
 8002d44:	681b      	ldr	r3, [r3, #0]
 8002d46:	1dfa      	adds	r2, r7, #7
 8002d48:	7812      	ldrb	r2, [r2, #0]
 8002d4a:	0011      	movs	r1, r2
 8002d4c:	2203      	movs	r2, #3
 8002d4e:	400a      	ands	r2, r1
 8002d50:	00d2      	lsls	r2, r2, #3
 8002d52:	21ff      	movs	r1, #255	@ 0xff
 8002d54:	4091      	lsls	r1, r2
 8002d56:	000a      	movs	r2, r1
 8002d58:	43d2      	mvns	r2, r2
 8002d5a:	401a      	ands	r2, r3
 8002d5c:	0011      	movs	r1, r2
       (((priority << (8U - __NVIC_PRIO_BITS)) & (uint32_t)0xFFUL) << _BIT_SHIFT(IRQn)));
 8002d5e:	683b      	ldr	r3, [r7, #0]
 8002d60:	019b      	lsls	r3, r3, #6
 8002d62:	22ff      	movs	r2, #255	@ 0xff
 8002d64:	401a      	ands	r2, r3
 8002d66:	1dfb      	adds	r3, r7, #7
 8002d68:	781b      	ldrb	r3, [r3, #0]
 8002d6a:	0018      	movs	r0, r3
 8002d6c:	2303      	movs	r3, #3
 8002d6e:	4003      	ands	r3, r0
 8002d70:	00db      	lsls	r3, r3, #3
 8002d72:	409a      	lsls	r2, r3
    SCB->SHP[_SHP_IDX(IRQn)] = ((uint32_t)(SCB->SHP[_SHP_IDX(IRQn)] & ~(0xFFUL << _BIT_SHIFT(IRQn))) |
 8002d74:	4809      	ldr	r0, [pc, #36]	@ (8002d9c <__NVIC_SetPriority+0xd8>)
 8002d76:	1dfb      	adds	r3, r7, #7
 8002d78:	781b      	ldrb	r3, [r3, #0]
 8002d7a:	001c      	movs	r4, r3
 8002d7c:	230f      	movs	r3, #15
 8002d7e:	4023      	ands	r3, r4
 8002d80:	3b08      	subs	r3, #8
 8002d82:	089b      	lsrs	r3, r3, #2
 8002d84:	430a      	orrs	r2, r1
 8002d86:	3306      	adds	r3, #6
 8002d88:	009b      	lsls	r3, r3, #2
 8002d8a:	18c3      	adds	r3, r0, r3
 8002d8c:	3304      	adds	r3, #4
 8002d8e:	601a      	str	r2, [r3, #0]
}
 8002d90:	46c0      	nop			@ (mov r8, r8)
 8002d92:	46bd      	mov	sp, r7
 8002d94:	b003      	add	sp, #12
 8002d96:	bd90      	pop	{r4, r7, pc}
 8002d98:	e000e100 	.word	0xe000e100
 8002d9c:	e000ed00 	.word	0xe000ed00

08002da0 <SysTick_Config>:
  \note    When the variable <b>__Vendor_SysTickConfig</b> is set to 1, then the
           function <b>SysTick_Config</b> is not included. In this case, the file <b><i>device</i>.h</b>
           must contain a vendor-specific implementation of this function.
 */
__STATIC_INLINE uint32_t SysTick_Config(uint32_t ticks)
{
 8002da0:	b580      	push	{r7, lr}
 8002da2:	b082      	sub	sp, #8
 8002da4:	af00      	add	r7, sp, #0
 8002da6:	6078      	str	r0, [r7, #4]
  if ((ticks - 1UL) > SysTick_LOAD_RELOAD_Msk)
 8002da8:	687b      	ldr	r3, [r7, #4]
 8002daa:	1e5a      	subs	r2, r3, #1
 8002dac:	2380      	movs	r3, #128	@ 0x80
 8002dae:	045b      	lsls	r3, r3, #17
 8002db0:	429a      	cmp	r2, r3
 8002db2:	d301      	bcc.n	8002db8 <SysTick_Config+0x18>
  {
    return (1UL);                                                   /* Reload value impossible */
 8002db4:	2301      	movs	r3, #1
 8002db6:	e010      	b.n	8002dda <SysTick_Config+0x3a>
  }

  SysTick->LOAD  = (uint32_t)(ticks - 1UL);                         /* set reload register */
 8002db8:	4b0a      	ldr	r3, [pc, #40]	@ (8002de4 <SysTick_Config+0x44>)
 8002dba:	687a      	ldr	r2, [r7, #4]
 8002dbc:	3a01      	subs	r2, #1
 8002dbe:	605a      	str	r2, [r3, #4]
  NVIC_SetPriority (SysTick_IRQn, (1UL << __NVIC_PRIO_BITS) - 1UL); /* set Priority for Systick Interrupt */
 8002dc0:	2301      	movs	r3, #1
 8002dc2:	425b      	negs	r3, r3
 8002dc4:	2103      	movs	r1, #3
 8002dc6:	0018      	movs	r0, r3
 8002dc8:	f7ff ff7c 	bl	8002cc4 <__NVIC_SetPriority>
  SysTick->VAL   = 0UL;                                             /* Load the SysTick Counter Value */
 8002dcc:	4b05      	ldr	r3, [pc, #20]	@ (8002de4 <SysTick_Config+0x44>)
 8002dce:	2200      	movs	r2, #0
 8002dd0:	609a      	str	r2, [r3, #8]
  SysTick->CTRL  = SysTick_CTRL_CLKSOURCE_Msk |
 8002dd2:	4b04      	ldr	r3, [pc, #16]	@ (8002de4 <SysTick_Config+0x44>)
 8002dd4:	2207      	movs	r2, #7
 8002dd6:	601a      	str	r2, [r3, #0]
                   SysTick_CTRL_TICKINT_Msk   |
                   SysTick_CTRL_ENABLE_Msk;                         /* Enable SysTick IRQ and SysTick Timer */
  return (0UL);                                                     /* Function successful */
 8002dd8:	2300      	movs	r3, #0
}
 8002dda:	0018      	movs	r0, r3
 8002ddc:	46bd      	mov	sp, r7
 8002dde:	b002      	add	sp, #8
 8002de0:	bd80      	pop	{r7, pc}
 8002de2:	46c0      	nop			@ (mov r8, r8)
 8002de4:	e000e010 	.word	0xe000e010

08002de8 <HAL_NVIC_SetPriority>:
  *         with stm32f0xx devices, this parameter is a dummy value and it is ignored, because 
  *         no subpriority supported in Cortex M0 based products.   
  * @retval None
  */
void HAL_NVIC_SetPriority(IRQn_Type IRQn, uint32_t PreemptPriority, uint32_t SubPriority)
{
 8002de8:	b580      	push	{r7, lr}
 8002dea:	b084      	sub	sp, #16
 8002dec:	af00      	add	r7, sp, #0
 8002dee:	60b9      	str	r1, [r7, #8]
 8002df0:	607a      	str	r2, [r7, #4]
 8002df2:	210f      	movs	r1, #15
 8002df4:	187b      	adds	r3, r7, r1
 8002df6:	1c02      	adds	r2, r0, #0
 8002df8:	701a      	strb	r2, [r3, #0]
  /* Check the parameters */
  assert_param(IS_NVIC_PREEMPTION_PRIORITY(PreemptPriority));
  NVIC_SetPriority(IRQn,PreemptPriority);
 8002dfa:	68ba      	ldr	r2, [r7, #8]
 8002dfc:	187b      	adds	r3, r7, r1
 8002dfe:	781b      	ldrb	r3, [r3, #0]
 8002e00:	b25b      	sxtb	r3, r3
 8002e02:	0011      	movs	r1, r2
 8002e04:	0018      	movs	r0, r3
 8002e06:	f7ff ff5d 	bl	8002cc4 <__NVIC_SetPriority>

  /* Prevent unused argument(s) compilation warning */
  UNUSED(SubPriority);
}
 8002e0a:	46c0      	nop			@ (mov r8, r8)
 8002e0c:	46bd      	mov	sp, r7
 8002e0e:	b004      	add	sp, #16
 8002e10:	bd80      	pop	{r7, pc}

08002e12 <HAL_NVIC_EnableIRQ>:
  *         This parameter can be an enumerator of IRQn_Type enumeration
  *         (For the complete STM32 Devices IRQ Channels list, please refer to the appropriate CMSIS device file (stm32f0xxxx.h))
  * @retval None
  */
void HAL_NVIC_EnableIRQ(IRQn_Type IRQn)
{
 8002e12:	b580      	push	{r7, lr}
 8002e14:	b082      	sub	sp, #8
 8002e16:	af00      	add	r7, sp, #0
 8002e18:	0002      	movs	r2, r0
 8002e1a:	1dfb      	adds	r3, r7, #7
 8002e1c:	701a      	strb	r2, [r3, #0]
  /* Check the parameters */
  assert_param(IS_NVIC_DEVICE_IRQ(IRQn));
  
  /* Enable interrupt */
  NVIC_EnableIRQ(IRQn);
 8002e1e:	1dfb      	adds	r3, r7, #7
 8002e20:	781b      	ldrb	r3, [r3, #0]
 8002e22:	b25b      	sxtb	r3, r3
 8002e24:	0018      	movs	r0, r3
 8002e26:	f7ff ff11 	bl	8002c4c <__NVIC_EnableIRQ>
}
 8002e2a:	46c0      	nop			@ (mov r8, r8)
 8002e2c:	46bd      	mov	sp, r7
 8002e2e:	b002      	add	sp, #8
 8002e30:	bd80      	pop	{r7, pc}

08002e32 <HAL_NVIC_DisableIRQ>:
  *         This parameter can be an enumerator of IRQn_Type enumeration
  *         (For the complete STM32 Devices IRQ Channels list, please refer to the appropriate CMSIS device file (stm32f0xxxx.h))
  * @retval None
  */
void HAL_NVIC_DisableIRQ(IRQn_Type IRQn)
{
 8002e32:	b580      	push	{r7, lr}
 8002e34:	b082      	sub	sp, #8
 8002e36:	af00      	add	r7, sp, #0
 8002e38:	0002      	movs	r2, r0
 8002e3a:	1dfb      	adds	r3, r7, #7
 8002e3c:	701a      	strb	r2, [r3, #0]
  /* Check the parameters */
  assert_param(IS_NVIC_DEVICE_IRQ(IRQn));
  
  /* Disable interrupt */
  NVIC_DisableIRQ(IRQn);
 8002e3e:	1dfb      	adds	r3, r7, #7
 8002e40:	781b      	ldrb	r3, [r3, #0]
 8002e42:	b25b      	sxtb	r3, r3
 8002e44:	0018      	movs	r0, r3
 8002e46:	f7ff ff1b 	bl	8002c80 <__NVIC_DisableIRQ>
}
 8002e4a:	46c0      	nop			@ (mov r8, r8)
 8002e4c:	46bd      	mov	sp, r7
 8002e4e:	b002      	add	sp, #8
 8002e50:	bd80      	pop	{r7, pc}

08002e52 <HAL_SYSTICK_Config>:
  * @param  TicksNumb Specifies the ticks Number of ticks between two interrupts.
  * @retval status:  - 0  Function succeeded.
  *                  - 1  Function failed.
  */
uint32_t HAL_SYSTICK_Config(uint32_t TicksNumb)
{
 8002e52:	b580      	push	{r7, lr}
 8002e54:	b082      	sub	sp, #8
 8002e56:	af00      	add	r7, sp, #0
 8002e58:	6078      	str	r0, [r7, #4]
   return SysTick_Config(TicksNumb);
 8002e5a:	687b      	ldr	r3, [r7, #4]
 8002e5c:	0018      	movs	r0, r3
 8002e5e:	f7ff ff9f 	bl	8002da0 <SysTick_Config>
 8002e62:	0003      	movs	r3, r0
}
 8002e64:	0018      	movs	r0, r3
 8002e66:	46bd      	mov	sp, r7
 8002e68:	b002      	add	sp, #8
 8002e6a:	bd80      	pop	{r7, pc}

08002e6c <HAL_DMA_Abort_IT>:
  * @param  hdma  pointer to a DMA_HandleTypeDef structure that contains
  *               the configuration information for the specified DMA Stream.
  * @retval HAL status
  */
HAL_StatusTypeDef HAL_DMA_Abort_IT(DMA_HandleTypeDef *hdma)
{
 8002e6c:	b580      	push	{r7, lr}
 8002e6e:	b084      	sub	sp, #16
 8002e70:	af00      	add	r7, sp, #0
 8002e72:	6078      	str	r0, [r7, #4]
  HAL_StatusTypeDef status = HAL_OK;
 8002e74:	210f      	movs	r1, #15
 8002e76:	187b      	adds	r3, r7, r1
 8002e78:	2200      	movs	r2, #0
 8002e7a:	701a      	strb	r2, [r3, #0]

  if (HAL_DMA_STATE_BUSY != hdma->State)
 8002e7c:	687b      	ldr	r3, [r7, #4]
 8002e7e:	2221      	movs	r2, #33	@ 0x21
 8002e80:	5c9b      	ldrb	r3, [r3, r2]
 8002e82:	b2db      	uxtb	r3, r3
 8002e84:	2b02      	cmp	r3, #2
 8002e86:	d006      	beq.n	8002e96 <HAL_DMA_Abort_IT+0x2a>
  {
    /* no transfer ongoing */
    hdma->ErrorCode = HAL_DMA_ERROR_NO_XFER;
 8002e88:	687b      	ldr	r3, [r7, #4]
 8002e8a:	2204      	movs	r2, #4
 8002e8c:	639a      	str	r2, [r3, #56]	@ 0x38

    status = HAL_ERROR;
 8002e8e:	187b      	adds	r3, r7, r1
 8002e90:	2201      	movs	r2, #1
 8002e92:	701a      	strb	r2, [r3, #0]
 8002e94:	e028      	b.n	8002ee8 <HAL_DMA_Abort_IT+0x7c>
  }
  else
  {

    /* Disable DMA IT */
    hdma->Instance->CCR &= ~(DMA_IT_TC | DMA_IT_HT | DMA_IT_TE);
 8002e96:	687b      	ldr	r3, [r7, #4]
 8002e98:	681b      	ldr	r3, [r3, #0]
 8002e9a:	681a      	ldr	r2, [r3, #0]
 8002e9c:	687b      	ldr	r3, [r7, #4]
 8002e9e:	681b      	ldr	r3, [r3, #0]
 8002ea0:	210e      	movs	r1, #14
 8002ea2:	438a      	bics	r2, r1
 8002ea4:	601a      	str	r2, [r3, #0]

    /* Disable the channel */
    hdma->Instance->CCR &= ~DMA_CCR_EN;
 8002ea6:	687b      	ldr	r3, [r7, #4]
 8002ea8:	681b      	ldr	r3, [r3, #0]
 8002eaa:	681a      	ldr	r2, [r3, #0]
 8002eac:	687b      	ldr	r3, [r7, #4]
 8002eae:	681b      	ldr	r3, [r3, #0]
 8002eb0:	2101      	movs	r1, #1
 8002eb2:	438a      	bics	r2, r1
 8002eb4:	601a      	str	r2, [r3, #0]

    /* Clear all flags */
    hdma->DmaBaseAddress->IFCR = DMA_FLAG_GL1 << hdma->ChannelIndex;
 8002eb6:	687b      	ldr	r3, [r7, #4]
 8002eb8:	6c1a      	ldr	r2, [r3, #64]	@ 0x40
 8002eba:	687b      	ldr	r3, [r7, #4]
 8002ebc:	6bdb      	ldr	r3, [r3, #60]	@ 0x3c
 8002ebe:	2101      	movs	r1, #1
 8002ec0:	4091      	lsls	r1, r2
 8002ec2:	000a      	movs	r2, r1
 8002ec4:	605a      	str	r2, [r3, #4]

    /* Change the DMA state */
    hdma->State = HAL_DMA_STATE_READY;
 8002ec6:	687b      	ldr	r3, [r7, #4]
 8002ec8:	2221      	movs	r2, #33	@ 0x21
 8002eca:	2101      	movs	r1, #1
 8002ecc:	5499      	strb	r1, [r3, r2]

    /* Process Unlocked */
    __HAL_UNLOCK(hdma);
 8002ece:	687b      	ldr	r3, [r7, #4]
 8002ed0:	2220      	movs	r2, #32
 8002ed2:	2100      	movs	r1, #0
 8002ed4:	5499      	strb	r1, [r3, r2]

    /* Call User Abort callback */
    if (hdma->XferAbortCallback != NULL)
 8002ed6:	687b      	ldr	r3, [r7, #4]
 8002ed8:	6b5b      	ldr	r3, [r3, #52]	@ 0x34
 8002eda:	2b00      	cmp	r3, #0
 8002edc:	d004      	beq.n	8002ee8 <HAL_DMA_Abort_IT+0x7c>
    {
      hdma->XferAbortCallback(hdma);
 8002ede:	687b      	ldr	r3, [r7, #4]
 8002ee0:	6b5b      	ldr	r3, [r3, #52]	@ 0x34
 8002ee2:	687a      	ldr	r2, [r7, #4]
 8002ee4:	0010      	movs	r0, r2
 8002ee6:	4798      	blx	r3
    }
  }
  return status;
 8002ee8:	230f      	movs	r3, #15
 8002eea:	18fb      	adds	r3, r7, r3
 8002eec:	781b      	ldrb	r3, [r3, #0]
}
 8002eee:	0018      	movs	r0, r3
 8002ef0:	46bd      	mov	sp, r7
 8002ef2:	b004      	add	sp, #16
 8002ef4:	bd80      	pop	{r7, pc}
	...

08002ef8 <HAL_FLASH_Program>:
  * @param  Data          Specifie the data to be programmed
  * 
  * @retval HAL_StatusTypeDef HAL Status
  */
HAL_StatusTypeDef HAL_FLASH_Program(uint32_t TypeProgram, uint32_t Address, uint64_t Data)
{
 8002ef8:	b5f0      	push	{r4, r5, r6, r7, lr}
 8002efa:	b087      	sub	sp, #28
 8002efc:	af00      	add	r7, sp, #0
 8002efe:	60f8      	str	r0, [r7, #12]
 8002f00:	60b9      	str	r1, [r7, #8]
 8002f02:	603a      	str	r2, [r7, #0]
 8002f04:	607b      	str	r3, [r7, #4]
  HAL_StatusTypeDef status = HAL_ERROR;
 8002f06:	2317      	movs	r3, #23
 8002f08:	18fb      	adds	r3, r7, r3
 8002f0a:	2201      	movs	r2, #1
 8002f0c:	701a      	strb	r2, [r3, #0]
  uint8_t index = 0U;
 8002f0e:	2316      	movs	r3, #22
 8002f10:	18fb      	adds	r3, r7, r3
 8002f12:	2200      	movs	r2, #0
 8002f14:	701a      	strb	r2, [r3, #0]
  uint8_t nbiterations = 0U;
 8002f16:	2315      	movs	r3, #21
 8002f18:	18fb      	adds	r3, r7, r3
 8002f1a:	2200      	movs	r2, #0
 8002f1c:	701a      	strb	r2, [r3, #0]
  
  /* Process Locked */
  __HAL_LOCK(&pFlash);
 8002f1e:	4b3e      	ldr	r3, [pc, #248]	@ (8003018 <HAL_FLASH_Program+0x120>)
 8002f20:	7e1b      	ldrb	r3, [r3, #24]
 8002f22:	2b01      	cmp	r3, #1
 8002f24:	d101      	bne.n	8002f2a <HAL_FLASH_Program+0x32>
 8002f26:	2302      	movs	r3, #2
 8002f28:	e072      	b.n	8003010 <HAL_FLASH_Program+0x118>
 8002f2a:	4b3b      	ldr	r3, [pc, #236]	@ (8003018 <HAL_FLASH_Program+0x120>)
 8002f2c:	2201      	movs	r2, #1
 8002f2e:	761a      	strb	r2, [r3, #24]
  /* Check the parameters */
  assert_param(IS_FLASH_TYPEPROGRAM(TypeProgram));
  assert_param(IS_FLASH_PROGRAM_ADDRESS(Address));

    /* Wait for last operation to be completed */
    status = FLASH_WaitForLastOperation(FLASH_TIMEOUT_VALUE);
 8002f30:	2317      	movs	r3, #23
 8002f32:	18fe      	adds	r6, r7, r3
 8002f34:	4b39      	ldr	r3, [pc, #228]	@ (800301c <HAL_FLASH_Program+0x124>)
 8002f36:	0018      	movs	r0, r3
 8002f38:	f000 f8c4 	bl	80030c4 <FLASH_WaitForLastOperation>
 8002f3c:	0003      	movs	r3, r0
 8002f3e:	7033      	strb	r3, [r6, #0]
  
  if(status == HAL_OK)
 8002f40:	2317      	movs	r3, #23
 8002f42:	18fb      	adds	r3, r7, r3
 8002f44:	781b      	ldrb	r3, [r3, #0]
 8002f46:	2b00      	cmp	r3, #0
 8002f48:	d15c      	bne.n	8003004 <HAL_FLASH_Program+0x10c>
  {
    if(TypeProgram == FLASH_TYPEPROGRAM_HALFWORD)
 8002f4a:	68fb      	ldr	r3, [r7, #12]
 8002f4c:	2b01      	cmp	r3, #1
 8002f4e:	d104      	bne.n	8002f5a <HAL_FLASH_Program+0x62>
    {
      /* Program halfword (16-bit) at a specified address. */
      nbiterations = 1U;
 8002f50:	2315      	movs	r3, #21
 8002f52:	18fb      	adds	r3, r7, r3
 8002f54:	2201      	movs	r2, #1
 8002f56:	701a      	strb	r2, [r3, #0]
 8002f58:	e00b      	b.n	8002f72 <HAL_FLASH_Program+0x7a>
    }
    else if(TypeProgram == FLASH_TYPEPROGRAM_WORD)
 8002f5a:	68fb      	ldr	r3, [r7, #12]
 8002f5c:	2b02      	cmp	r3, #2
 8002f5e:	d104      	bne.n	8002f6a <HAL_FLASH_Program+0x72>
    {
      /* Program word (32-bit = 2*16-bit) at a specified address. */
      nbiterations = 2U;
 8002f60:	2315      	movs	r3, #21
 8002f62:	18fb      	adds	r3, r7, r3
 8002f64:	2202      	movs	r2, #2
 8002f66:	701a      	strb	r2, [r3, #0]
 8002f68:	e003      	b.n	8002f72 <HAL_FLASH_Program+0x7a>
    }
    else
    {
      /* Program double word (64-bit = 4*16-bit) at a specified address. */
      nbiterations = 4U;
 8002f6a:	2315      	movs	r3, #21
 8002f6c:	18fb      	adds	r3, r7, r3
 8002f6e:	2204      	movs	r2, #4
 8002f70:	701a      	strb	r2, [r3, #0]
    }

    for (index = 0U; index < nbiterations; index++)
 8002f72:	2316      	movs	r3, #22
 8002f74:	18fb      	adds	r3, r7, r3
 8002f76:	2200      	movs	r2, #0
 8002f78:	701a      	strb	r2, [r3, #0]
 8002f7a:	e039      	b.n	8002ff0 <HAL_FLASH_Program+0xf8>
    {
      FLASH_Program_HalfWord((Address + (2U*index)), (uint16_t)(Data >> (16U*index)));
 8002f7c:	2116      	movs	r1, #22
 8002f7e:	187b      	adds	r3, r7, r1
 8002f80:	781b      	ldrb	r3, [r3, #0]
 8002f82:	005a      	lsls	r2, r3, #1
 8002f84:	68bb      	ldr	r3, [r7, #8]
 8002f86:	18d0      	adds	r0, r2, r3
 8002f88:	187b      	adds	r3, r7, r1
 8002f8a:	781b      	ldrb	r3, [r3, #0]
 8002f8c:	011b      	lsls	r3, r3, #4
 8002f8e:	001a      	movs	r2, r3
 8002f90:	3a20      	subs	r2, #32
 8002f92:	2a00      	cmp	r2, #0
 8002f94:	db03      	blt.n	8002f9e <HAL_FLASH_Program+0xa6>
 8002f96:	6879      	ldr	r1, [r7, #4]
 8002f98:	40d1      	lsrs	r1, r2
 8002f9a:	000c      	movs	r4, r1
 8002f9c:	e008      	b.n	8002fb0 <HAL_FLASH_Program+0xb8>
 8002f9e:	2220      	movs	r2, #32
 8002fa0:	1ad2      	subs	r2, r2, r3
 8002fa2:	6879      	ldr	r1, [r7, #4]
 8002fa4:	4091      	lsls	r1, r2
 8002fa6:	000a      	movs	r2, r1
 8002fa8:	6839      	ldr	r1, [r7, #0]
 8002faa:	40d9      	lsrs	r1, r3
 8002fac:	000c      	movs	r4, r1
 8002fae:	4314      	orrs	r4, r2
 8002fb0:	687a      	ldr	r2, [r7, #4]
 8002fb2:	40da      	lsrs	r2, r3
 8002fb4:	0015      	movs	r5, r2
 8002fb6:	b2a3      	uxth	r3, r4
 8002fb8:	0019      	movs	r1, r3
 8002fba:	f000 f867 	bl	800308c <FLASH_Program_HalfWord>

        /* Wait for last operation to be completed */
        status = FLASH_WaitForLastOperation(FLASH_TIMEOUT_VALUE);
 8002fbe:	2317      	movs	r3, #23
 8002fc0:	18fe      	adds	r6, r7, r3
 8002fc2:	4b16      	ldr	r3, [pc, #88]	@ (800301c <HAL_FLASH_Program+0x124>)
 8002fc4:	0018      	movs	r0, r3
 8002fc6:	f000 f87d 	bl	80030c4 <FLASH_WaitForLastOperation>
 8002fca:	0003      	movs	r3, r0
 8002fcc:	7033      	strb	r3, [r6, #0]
    
        /* If the program operation is completed, disable the PG Bit */
        CLEAR_BIT(FLASH->CR, FLASH_CR_PG);
 8002fce:	4b14      	ldr	r3, [pc, #80]	@ (8003020 <HAL_FLASH_Program+0x128>)
 8002fd0:	691a      	ldr	r2, [r3, #16]
 8002fd2:	4b13      	ldr	r3, [pc, #76]	@ (8003020 <HAL_FLASH_Program+0x128>)
 8002fd4:	2101      	movs	r1, #1
 8002fd6:	438a      	bics	r2, r1
 8002fd8:	611a      	str	r2, [r3, #16]
      /* In case of error, stop programming procedure */
      if (status != HAL_OK)
 8002fda:	2317      	movs	r3, #23
 8002fdc:	18fb      	adds	r3, r7, r3
 8002fde:	781b      	ldrb	r3, [r3, #0]
 8002fe0:	2b00      	cmp	r3, #0
 8002fe2:	d10e      	bne.n	8003002 <HAL_FLASH_Program+0x10a>
    for (index = 0U; index < nbiterations; index++)
 8002fe4:	2116      	movs	r1, #22
 8002fe6:	187b      	adds	r3, r7, r1
 8002fe8:	781a      	ldrb	r2, [r3, #0]
 8002fea:	187b      	adds	r3, r7, r1
 8002fec:	3201      	adds	r2, #1
 8002fee:	701a      	strb	r2, [r3, #0]
 8002ff0:	2316      	movs	r3, #22
 8002ff2:	18fa      	adds	r2, r7, r3
 8002ff4:	2315      	movs	r3, #21
 8002ff6:	18fb      	adds	r3, r7, r3
 8002ff8:	7812      	ldrb	r2, [r2, #0]
 8002ffa:	781b      	ldrb	r3, [r3, #0]
 8002ffc:	429a      	cmp	r2, r3
 8002ffe:	d3bd      	bcc.n	8002f7c <HAL_FLASH_Program+0x84>
 8003000:	e000      	b.n	8003004 <HAL_FLASH_Program+0x10c>
      {
        break;
 8003002:	46c0      	nop			@ (mov r8, r8)
      }
    }
  }

  /* Process Unlocked */
  __HAL_UNLOCK(&pFlash);
 8003004:	4b04      	ldr	r3, [pc, #16]	@ (8003018 <HAL_FLASH_Program+0x120>)
 8003006:	2200      	movs	r2, #0
 8003008:	761a      	strb	r2, [r3, #24]

  return status;
 800300a:	2317      	movs	r3, #23
 800300c:	18fb      	adds	r3, r7, r3
 800300e:	781b      	ldrb	r3, [r3, #0]
}
 8003010:	0018      	movs	r0, r3
 8003012:	46bd      	mov	sp, r7
 8003014:	b007      	add	sp, #28
 8003016:	bdf0      	pop	{r4, r5, r6, r7, pc}
 8003018:	200005d8 	.word	0x200005d8
 800301c:	0000c350 	.word	0x0000c350
 8003020:	40022000 	.word	0x40022000

08003024 <HAL_FLASH_Unlock>:
/**
  * @brief  Unlock the FLASH control register access
  * @retval HAL Status
  */
HAL_StatusTypeDef HAL_FLASH_Unlock(void)
{
 8003024:	b580      	push	{r7, lr}
 8003026:	b082      	sub	sp, #8
 8003028:	af00      	add	r7, sp, #0
  HAL_StatusTypeDef status = HAL_OK;
 800302a:	1dfb      	adds	r3, r7, #7
 800302c:	2200      	movs	r2, #0
 800302e:	701a      	strb	r2, [r3, #0]

  if(READ_BIT(FLASH->CR, FLASH_CR_LOCK) != RESET)
 8003030:	4b0c      	ldr	r3, [pc, #48]	@ (8003064 <HAL_FLASH_Unlock+0x40>)
 8003032:	691b      	ldr	r3, [r3, #16]
 8003034:	2280      	movs	r2, #128	@ 0x80
 8003036:	4013      	ands	r3, r2
 8003038:	d00d      	beq.n	8003056 <HAL_FLASH_Unlock+0x32>
  {
    /* Authorize the FLASH Registers access */
    WRITE_REG(FLASH->KEYR, FLASH_KEY1);
 800303a:	4b0a      	ldr	r3, [pc, #40]	@ (8003064 <HAL_FLASH_Unlock+0x40>)
 800303c:	4a0a      	ldr	r2, [pc, #40]	@ (8003068 <HAL_FLASH_Unlock+0x44>)
 800303e:	605a      	str	r2, [r3, #4]
    WRITE_REG(FLASH->KEYR, FLASH_KEY2);
 8003040:	4b08      	ldr	r3, [pc, #32]	@ (8003064 <HAL_FLASH_Unlock+0x40>)
 8003042:	4a0a      	ldr	r2, [pc, #40]	@ (800306c <HAL_FLASH_Unlock+0x48>)
 8003044:	605a      	str	r2, [r3, #4]

    /* Verify Flash is unlocked */
    if(READ_BIT(FLASH->CR, FLASH_CR_LOCK) != RESET)
 8003046:	4b07      	ldr	r3, [pc, #28]	@ (8003064 <HAL_FLASH_Unlock+0x40>)
 8003048:	691b      	ldr	r3, [r3, #16]
 800304a:	2280      	movs	r2, #128	@ 0x80
 800304c:	4013      	ands	r3, r2
 800304e:	d002      	beq.n	8003056 <HAL_FLASH_Unlock+0x32>
    {
      status = HAL_ERROR;
 8003050:	1dfb      	adds	r3, r7, #7
 8003052:	2201      	movs	r2, #1
 8003054:	701a      	strb	r2, [r3, #0]
    }
  }

  return status;
 8003056:	1dfb      	adds	r3, r7, #7
 8003058:	781b      	ldrb	r3, [r3, #0]
}
 800305a:	0018      	movs	r0, r3
 800305c:	46bd      	mov	sp, r7
 800305e:	b002      	add	sp, #8
 8003060:	bd80      	pop	{r7, pc}
 8003062:	46c0      	nop			@ (mov r8, r8)
 8003064:	40022000 	.word	0x40022000
 8003068:	45670123 	.word	0x45670123
 800306c:	cdef89ab 	.word	0xcdef89ab

08003070 <HAL_FLASH_Lock>:
/**
  * @brief  Locks the FLASH control register access
  * @retval HAL Status
  */
HAL_StatusTypeDef HAL_FLASH_Lock(void)
{
 8003070:	b580      	push	{r7, lr}
 8003072:	af00      	add	r7, sp, #0
  /* Set the LOCK Bit to lock the FLASH Registers access */
  SET_BIT(FLASH->CR, FLASH_CR_LOCK);
 8003074:	4b04      	ldr	r3, [pc, #16]	@ (8003088 <HAL_FLASH_Lock+0x18>)
 8003076:	691a      	ldr	r2, [r3, #16]
 8003078:	4b03      	ldr	r3, [pc, #12]	@ (8003088 <HAL_FLASH_Lock+0x18>)
 800307a:	2180      	movs	r1, #128	@ 0x80
 800307c:	430a      	orrs	r2, r1
 800307e:	611a      	str	r2, [r3, #16]
  
  return HAL_OK;  
 8003080:	2300      	movs	r3, #0
}
 8003082:	0018      	movs	r0, r3
 8003084:	46bd      	mov	sp, r7
 8003086:	bd80      	pop	{r7, pc}
 8003088:	40022000 	.word	0x40022000

0800308c <FLASH_Program_HalfWord>:
  * @param  Address specify the address to be programmed.
  * @param  Data    specify the data to be programmed.
  * @retval None
  */
static void FLASH_Program_HalfWord(uint32_t Address, uint16_t Data)
{
 800308c:	b580      	push	{r7, lr}
 800308e:	b082      	sub	sp, #8
 8003090:	af00      	add	r7, sp, #0
 8003092:	6078      	str	r0, [r7, #4]
 8003094:	000a      	movs	r2, r1
 8003096:	1cbb      	adds	r3, r7, #2
 8003098:	801a      	strh	r2, [r3, #0]
  /* Clean the error context */
  pFlash.ErrorCode = HAL_FLASH_ERROR_NONE;
 800309a:	4b08      	ldr	r3, [pc, #32]	@ (80030bc <FLASH_Program_HalfWord+0x30>)
 800309c:	2200      	movs	r2, #0
 800309e:	61da      	str	r2, [r3, #28]
  
    /* Proceed to program the new data */
    SET_BIT(FLASH->CR, FLASH_CR_PG);
 80030a0:	4b07      	ldr	r3, [pc, #28]	@ (80030c0 <FLASH_Program_HalfWord+0x34>)
 80030a2:	691a      	ldr	r2, [r3, #16]
 80030a4:	4b06      	ldr	r3, [pc, #24]	@ (80030c0 <FLASH_Program_HalfWord+0x34>)
 80030a6:	2101      	movs	r1, #1
 80030a8:	430a      	orrs	r2, r1
 80030aa:	611a      	str	r2, [r3, #16]

  /* Write data in the address */
  *(__IO uint16_t*)Address = Data;
 80030ac:	687b      	ldr	r3, [r7, #4]
 80030ae:	1cba      	adds	r2, r7, #2
 80030b0:	8812      	ldrh	r2, [r2, #0]
 80030b2:	801a      	strh	r2, [r3, #0]
}
 80030b4:	46c0      	nop			@ (mov r8, r8)
 80030b6:	46bd      	mov	sp, r7
 80030b8:	b002      	add	sp, #8
 80030ba:	bd80      	pop	{r7, pc}
 80030bc:	200005d8 	.word	0x200005d8
 80030c0:	40022000 	.word	0x40022000

080030c4 <FLASH_WaitForLastOperation>:
  * @brief  Wait for a FLASH operation to complete.
  * @param  Timeout  maximum flash operation timeout
  * @retval HAL Status
  */
HAL_StatusTypeDef FLASH_WaitForLastOperation(uint32_t Timeout)
{
 80030c4:	b580      	push	{r7, lr}
 80030c6:	b084      	sub	sp, #16
 80030c8:	af00      	add	r7, sp, #0
 80030ca:	6078      	str	r0, [r7, #4]
  /* Wait for the FLASH operation to complete by polling on BUSY flag to be reset.
     Even if the FLASH operation fails, the BUSY flag will be reset and an error
     flag will be set */
     
  uint32_t tickstart = HAL_GetTick();
 80030cc:	f7fe fe28 	bl	8001d20 <HAL_GetTick>
 80030d0:	0003      	movs	r3, r0
 80030d2:	60fb      	str	r3, [r7, #12]
     
  while(__HAL_FLASH_GET_FLAG(FLASH_FLAG_BSY)) 
 80030d4:	e00f      	b.n	80030f6 <FLASH_WaitForLastOperation+0x32>
  { 
    if (Timeout != HAL_MAX_DELAY)
 80030d6:	687b      	ldr	r3, [r7, #4]
 80030d8:	3301      	adds	r3, #1
 80030da:	d00c      	beq.n	80030f6 <FLASH_WaitForLastOperation+0x32>
    {
      if((Timeout == 0U) || ((HAL_GetTick()-tickstart) > Timeout))
 80030dc:	687b      	ldr	r3, [r7, #4]
 80030de:	2b00      	cmp	r3, #0
 80030e0:	d007      	beq.n	80030f2 <FLASH_WaitForLastOperation+0x2e>
 80030e2:	f7fe fe1d 	bl	8001d20 <HAL_GetTick>
 80030e6:	0002      	movs	r2, r0
 80030e8:	68fb      	ldr	r3, [r7, #12]
 80030ea:	1ad3      	subs	r3, r2, r3
 80030ec:	687a      	ldr	r2, [r7, #4]
 80030ee:	429a      	cmp	r2, r3
 80030f0:	d201      	bcs.n	80030f6 <FLASH_WaitForLastOperation+0x32>
      {
        return HAL_TIMEOUT;
 80030f2:	2303      	movs	r3, #3
 80030f4:	e01f      	b.n	8003136 <FLASH_WaitForLastOperation+0x72>
  while(__HAL_FLASH_GET_FLAG(FLASH_FLAG_BSY)) 
 80030f6:	4b12      	ldr	r3, [pc, #72]	@ (8003140 <FLASH_WaitForLastOperation+0x7c>)
 80030f8:	68db      	ldr	r3, [r3, #12]
 80030fa:	2201      	movs	r2, #1
 80030fc:	4013      	ands	r3, r2
 80030fe:	2b01      	cmp	r3, #1
 8003100:	d0e9      	beq.n	80030d6 <FLASH_WaitForLastOperation+0x12>
      }
    }
  }
  
  /* Check FLASH End of Operation flag  */
  if (__HAL_FLASH_GET_FLAG(FLASH_FLAG_EOP))
 8003102:	4b0f      	ldr	r3, [pc, #60]	@ (8003140 <FLASH_WaitForLastOperation+0x7c>)
 8003104:	68db      	ldr	r3, [r3, #12]
 8003106:	2220      	movs	r2, #32
 8003108:	4013      	ands	r3, r2
 800310a:	2b20      	cmp	r3, #32
 800310c:	d102      	bne.n	8003114 <FLASH_WaitForLastOperation+0x50>
  {
    /* Clear FLASH End of Operation pending bit */
    __HAL_FLASH_CLEAR_FLAG(FLASH_FLAG_EOP);
 800310e:	4b0c      	ldr	r3, [pc, #48]	@ (8003140 <FLASH_WaitForLastOperation+0x7c>)
 8003110:	2220      	movs	r2, #32
 8003112:	60da      	str	r2, [r3, #12]
  }
  
  if(__HAL_FLASH_GET_FLAG(FLASH_FLAG_WRPERR)  || 
 8003114:	4b0a      	ldr	r3, [pc, #40]	@ (8003140 <FLASH_WaitForLastOperation+0x7c>)
 8003116:	68db      	ldr	r3, [r3, #12]
 8003118:	2210      	movs	r2, #16
 800311a:	4013      	ands	r3, r2
 800311c:	2b10      	cmp	r3, #16
 800311e:	d005      	beq.n	800312c <FLASH_WaitForLastOperation+0x68>
     __HAL_FLASH_GET_FLAG(FLASH_FLAG_PGERR))
 8003120:	4b07      	ldr	r3, [pc, #28]	@ (8003140 <FLASH_WaitForLastOperation+0x7c>)
 8003122:	68db      	ldr	r3, [r3, #12]
 8003124:	2204      	movs	r2, #4
 8003126:	4013      	ands	r3, r2
  if(__HAL_FLASH_GET_FLAG(FLASH_FLAG_WRPERR)  || 
 8003128:	2b04      	cmp	r3, #4
 800312a:	d103      	bne.n	8003134 <FLASH_WaitForLastOperation+0x70>
  {
    /*Save the error code*/
    FLASH_SetErrorCode();
 800312c:	f000 f80a 	bl	8003144 <FLASH_SetErrorCode>
    return HAL_ERROR;
 8003130:	2301      	movs	r3, #1
 8003132:	e000      	b.n	8003136 <FLASH_WaitForLastOperation+0x72>
  }

  /* There is no error flag set */
  return HAL_OK;
 8003134:	2300      	movs	r3, #0
}
 8003136:	0018      	movs	r0, r3
 8003138:	46bd      	mov	sp, r7
 800313a:	b004      	add	sp, #16
 800313c:	bd80      	pop	{r7, pc}
 800313e:	46c0      	nop			@ (mov r8, r8)
 8003140:	40022000 	.word	0x40022000

08003144 <FLASH_SetErrorCode>:
/**
  * @brief  Set the specific FLASH error flag.
  * @retval None
  */
static void FLASH_SetErrorCode(void)
{
 8003144:	b580      	push	{r7, lr}
 8003146:	b082      	sub	sp, #8
 8003148:	af00      	add	r7, sp, #0
  uint32_t flags = 0U;
 800314a:	2300      	movs	r3, #0
 800314c:	607b      	str	r3, [r7, #4]
  
  if(__HAL_FLASH_GET_FLAG(FLASH_FLAG_WRPERR))
 800314e:	4b13      	ldr	r3, [pc, #76]	@ (800319c <FLASH_SetErrorCode+0x58>)
 8003150:	68db      	ldr	r3, [r3, #12]
 8003152:	2210      	movs	r2, #16
 8003154:	4013      	ands	r3, r2
 8003156:	2b10      	cmp	r3, #16
 8003158:	d109      	bne.n	800316e <FLASH_SetErrorCode+0x2a>
  {
    pFlash.ErrorCode |= HAL_FLASH_ERROR_WRP;
 800315a:	4b11      	ldr	r3, [pc, #68]	@ (80031a0 <FLASH_SetErrorCode+0x5c>)
 800315c:	69db      	ldr	r3, [r3, #28]
 800315e:	2202      	movs	r2, #2
 8003160:	431a      	orrs	r2, r3
 8003162:	4b0f      	ldr	r3, [pc, #60]	@ (80031a0 <FLASH_SetErrorCode+0x5c>)
 8003164:	61da      	str	r2, [r3, #28]
    flags |= FLASH_FLAG_WRPERR;
 8003166:	687b      	ldr	r3, [r7, #4]
 8003168:	2210      	movs	r2, #16
 800316a:	4313      	orrs	r3, r2
 800316c:	607b      	str	r3, [r7, #4]
  }
  if(__HAL_FLASH_GET_FLAG(FLASH_FLAG_PGERR))
 800316e:	4b0b      	ldr	r3, [pc, #44]	@ (800319c <FLASH_SetErrorCode+0x58>)
 8003170:	68db      	ldr	r3, [r3, #12]
 8003172:	2204      	movs	r2, #4
 8003174:	4013      	ands	r3, r2
 8003176:	2b04      	cmp	r3, #4
 8003178:	d109      	bne.n	800318e <FLASH_SetErrorCode+0x4a>
  {
    pFlash.ErrorCode |= HAL_FLASH_ERROR_PROG;
 800317a:	4b09      	ldr	r3, [pc, #36]	@ (80031a0 <FLASH_SetErrorCode+0x5c>)
 800317c:	69db      	ldr	r3, [r3, #28]
 800317e:	2201      	movs	r2, #1
 8003180:	431a      	orrs	r2, r3
 8003182:	4b07      	ldr	r3, [pc, #28]	@ (80031a0 <FLASH_SetErrorCode+0x5c>)
 8003184:	61da      	str	r2, [r3, #28]
    flags |= FLASH_FLAG_PGERR;
 8003186:	687b      	ldr	r3, [r7, #4]
 8003188:	2204      	movs	r2, #4
 800318a:	4313      	orrs	r3, r2
 800318c:	607b      	str	r3, [r7, #4]
  }
  /* Clear FLASH error pending bits */
  __HAL_FLASH_CLEAR_FLAG(flags);
 800318e:	4b03      	ldr	r3, [pc, #12]	@ (800319c <FLASH_SetErrorCode+0x58>)
 8003190:	687a      	ldr	r2, [r7, #4]
 8003192:	60da      	str	r2, [r3, #12]
}  
 8003194:	46c0      	nop			@ (mov r8, r8)
 8003196:	46bd      	mov	sp, r7
 8003198:	b002      	add	sp, #8
 800319a:	bd80      	pop	{r7, pc}
 800319c:	40022000 	.word	0x40022000
 80031a0:	200005d8 	.word	0x200005d8

080031a4 <HAL_FLASHEx_Erase>:
  *         (0xFFFFFFFF means that all the pages have been correctly erased)
  *
  * @retval HAL_StatusTypeDef HAL Status
  */
HAL_StatusTypeDef HAL_FLASHEx_Erase(FLASH_EraseInitTypeDef *pEraseInit, uint32_t *PageError)
{
 80031a4:	b5b0      	push	{r4, r5, r7, lr}
 80031a6:	b084      	sub	sp, #16
 80031a8:	af00      	add	r7, sp, #0
 80031aa:	6078      	str	r0, [r7, #4]
 80031ac:	6039      	str	r1, [r7, #0]
  HAL_StatusTypeDef status = HAL_ERROR;
 80031ae:	230f      	movs	r3, #15
 80031b0:	18fb      	adds	r3, r7, r3
 80031b2:	2201      	movs	r2, #1
 80031b4:	701a      	strb	r2, [r3, #0]
  uint32_t address = 0U;
 80031b6:	2300      	movs	r3, #0
 80031b8:	60bb      	str	r3, [r7, #8]

  /* Process Locked */
  __HAL_LOCK(&pFlash);
 80031ba:	4b32      	ldr	r3, [pc, #200]	@ (8003284 <HAL_FLASHEx_Erase+0xe0>)
 80031bc:	7e1b      	ldrb	r3, [r3, #24]
 80031be:	2b01      	cmp	r3, #1
 80031c0:	d101      	bne.n	80031c6 <HAL_FLASHEx_Erase+0x22>
 80031c2:	2302      	movs	r3, #2
 80031c4:	e05a      	b.n	800327c <HAL_FLASHEx_Erase+0xd8>
 80031c6:	4b2f      	ldr	r3, [pc, #188]	@ (8003284 <HAL_FLASHEx_Erase+0xe0>)
 80031c8:	2201      	movs	r2, #1
 80031ca:	761a      	strb	r2, [r3, #24]

  /* Check the parameters */
  assert_param(IS_FLASH_TYPEERASE(pEraseInit->TypeErase));

  if (pEraseInit->TypeErase == FLASH_TYPEERASE_MASSERASE)
 80031cc:	687b      	ldr	r3, [r7, #4]
 80031ce:	681b      	ldr	r3, [r3, #0]
 80031d0:	2b01      	cmp	r3, #1
 80031d2:	d116      	bne.n	8003202 <HAL_FLASHEx_Erase+0x5e>
  {
      /* Mass Erase requested for Bank1 */
      /* Wait for last operation to be completed */
      if (FLASH_WaitForLastOperation((uint32_t)FLASH_TIMEOUT_VALUE) == HAL_OK)
 80031d4:	4b2c      	ldr	r3, [pc, #176]	@ (8003288 <HAL_FLASHEx_Erase+0xe4>)
 80031d6:	0018      	movs	r0, r3
 80031d8:	f7ff ff74 	bl	80030c4 <FLASH_WaitForLastOperation>
 80031dc:	1e03      	subs	r3, r0, #0
 80031de:	d147      	bne.n	8003270 <HAL_FLASHEx_Erase+0xcc>
      {
        /*Mass erase to be done*/
        FLASH_MassErase();
 80031e0:	f000 f856 	bl	8003290 <FLASH_MassErase>
        
        /* Wait for last operation to be completed */
        status = FLASH_WaitForLastOperation((uint32_t)FLASH_TIMEOUT_VALUE);
 80031e4:	230f      	movs	r3, #15
 80031e6:	18fc      	adds	r4, r7, r3
 80031e8:	4b27      	ldr	r3, [pc, #156]	@ (8003288 <HAL_FLASHEx_Erase+0xe4>)
 80031ea:	0018      	movs	r0, r3
 80031ec:	f7ff ff6a 	bl	80030c4 <FLASH_WaitForLastOperation>
 80031f0:	0003      	movs	r3, r0
 80031f2:	7023      	strb	r3, [r4, #0]
        
        /* If the erase operation is completed, disable the MER Bit */
        CLEAR_BIT(FLASH->CR, FLASH_CR_MER);
 80031f4:	4b25      	ldr	r3, [pc, #148]	@ (800328c <HAL_FLASHEx_Erase+0xe8>)
 80031f6:	691a      	ldr	r2, [r3, #16]
 80031f8:	4b24      	ldr	r3, [pc, #144]	@ (800328c <HAL_FLASHEx_Erase+0xe8>)
 80031fa:	2104      	movs	r1, #4
 80031fc:	438a      	bics	r2, r1
 80031fe:	611a      	str	r2, [r3, #16]
 8003200:	e036      	b.n	8003270 <HAL_FLASHEx_Erase+0xcc>
    assert_param(IS_FLASH_PROGRAM_ADDRESS(pEraseInit->PageAddress));
    assert_param(IS_FLASH_NB_PAGES(pEraseInit->PageAddress, pEraseInit->NbPages));
    
      /* Page Erase requested on address located on bank1 */
      /* Wait for last operation to be completed */
      if (FLASH_WaitForLastOperation((uint32_t)FLASH_TIMEOUT_VALUE) == HAL_OK)
 8003202:	4b21      	ldr	r3, [pc, #132]	@ (8003288 <HAL_FLASHEx_Erase+0xe4>)
 8003204:	0018      	movs	r0, r3
 8003206:	f7ff ff5d 	bl	80030c4 <FLASH_WaitForLastOperation>
 800320a:	1e03      	subs	r3, r0, #0
 800320c:	d130      	bne.n	8003270 <HAL_FLASHEx_Erase+0xcc>
      {
        /*Initialization of PageError variable*/
        *PageError = 0xFFFFFFFFU;
 800320e:	683b      	ldr	r3, [r7, #0]
 8003210:	2201      	movs	r2, #1
 8003212:	4252      	negs	r2, r2
 8003214:	601a      	str	r2, [r3, #0]
        
        /* Erase page by page to be done*/
        for(address = pEraseInit->PageAddress;
 8003216:	687b      	ldr	r3, [r7, #4]
 8003218:	685b      	ldr	r3, [r3, #4]
 800321a:	60bb      	str	r3, [r7, #8]
 800321c:	e01f      	b.n	800325e <HAL_FLASHEx_Erase+0xba>
            address < ((pEraseInit->NbPages * FLASH_PAGE_SIZE) + pEraseInit->PageAddress);
            address += FLASH_PAGE_SIZE)
        {
          FLASH_PageErase(address);
 800321e:	68bb      	ldr	r3, [r7, #8]
 8003220:	0018      	movs	r0, r3
 8003222:	f000 f84d 	bl	80032c0 <FLASH_PageErase>
          
          /* Wait for last operation to be completed */
          status = FLASH_WaitForLastOperation((uint32_t)FLASH_TIMEOUT_VALUE);
 8003226:	250f      	movs	r5, #15
 8003228:	197c      	adds	r4, r7, r5
 800322a:	4b17      	ldr	r3, [pc, #92]	@ (8003288 <HAL_FLASHEx_Erase+0xe4>)
 800322c:	0018      	movs	r0, r3
 800322e:	f7ff ff49 	bl	80030c4 <FLASH_WaitForLastOperation>
 8003232:	0003      	movs	r3, r0
 8003234:	7023      	strb	r3, [r4, #0]
          
          /* If the erase operation is completed, disable the PER Bit */
          CLEAR_BIT(FLASH->CR, FLASH_CR_PER);
 8003236:	4b15      	ldr	r3, [pc, #84]	@ (800328c <HAL_FLASHEx_Erase+0xe8>)
 8003238:	691a      	ldr	r2, [r3, #16]
 800323a:	4b14      	ldr	r3, [pc, #80]	@ (800328c <HAL_FLASHEx_Erase+0xe8>)
 800323c:	2102      	movs	r1, #2
 800323e:	438a      	bics	r2, r1
 8003240:	611a      	str	r2, [r3, #16]
          
          if (status != HAL_OK)
 8003242:	197b      	adds	r3, r7, r5
 8003244:	781b      	ldrb	r3, [r3, #0]
 8003246:	2b00      	cmp	r3, #0
 8003248:	d003      	beq.n	8003252 <HAL_FLASHEx_Erase+0xae>
          {
            /* In case of error, stop erase procedure and return the faulty address */
            *PageError = address;
 800324a:	683b      	ldr	r3, [r7, #0]
 800324c:	68ba      	ldr	r2, [r7, #8]
 800324e:	601a      	str	r2, [r3, #0]
            break;
 8003250:	e00e      	b.n	8003270 <HAL_FLASHEx_Erase+0xcc>
            address += FLASH_PAGE_SIZE)
 8003252:	68bb      	ldr	r3, [r7, #8]
 8003254:	2280      	movs	r2, #128	@ 0x80
 8003256:	0112      	lsls	r2, r2, #4
 8003258:	4694      	mov	ip, r2
 800325a:	4463      	add	r3, ip
 800325c:	60bb      	str	r3, [r7, #8]
            address < ((pEraseInit->NbPages * FLASH_PAGE_SIZE) + pEraseInit->PageAddress);
 800325e:	687b      	ldr	r3, [r7, #4]
 8003260:	689b      	ldr	r3, [r3, #8]
 8003262:	02da      	lsls	r2, r3, #11
 8003264:	687b      	ldr	r3, [r7, #4]
 8003266:	685b      	ldr	r3, [r3, #4]
 8003268:	18d3      	adds	r3, r2, r3
 800326a:	68ba      	ldr	r2, [r7, #8]
 800326c:	429a      	cmp	r2, r3
 800326e:	d3d6      	bcc.n	800321e <HAL_FLASHEx_Erase+0x7a>
        }
      }
  }

  /* Process Unlocked */
  __HAL_UNLOCK(&pFlash);
 8003270:	4b04      	ldr	r3, [pc, #16]	@ (8003284 <HAL_FLASHEx_Erase+0xe0>)
 8003272:	2200      	movs	r2, #0
 8003274:	761a      	strb	r2, [r3, #24]

  return status;
 8003276:	230f      	movs	r3, #15
 8003278:	18fb      	adds	r3, r7, r3
 800327a:	781b      	ldrb	r3, [r3, #0]
}
 800327c:	0018      	movs	r0, r3
 800327e:	46bd      	mov	sp, r7
 8003280:	b004      	add	sp, #16
 8003282:	bdb0      	pop	{r4, r5, r7, pc}
 8003284:	200005d8 	.word	0x200005d8
 8003288:	0000c350 	.word	0x0000c350
 800328c:	40022000 	.word	0x40022000

08003290 <FLASH_MassErase>:
  * @brief  Full erase of FLASH memory Bank 
  *
  * @retval None
  */
static void FLASH_MassErase(void)
{
 8003290:	b580      	push	{r7, lr}
 8003292:	af00      	add	r7, sp, #0
  /* Clean the error context */
  pFlash.ErrorCode = HAL_FLASH_ERROR_NONE;
 8003294:	4b08      	ldr	r3, [pc, #32]	@ (80032b8 <FLASH_MassErase+0x28>)
 8003296:	2200      	movs	r2, #0
 8003298:	61da      	str	r2, [r3, #28]

    /* Only bank1 will be erased*/
    SET_BIT(FLASH->CR, FLASH_CR_MER);
 800329a:	4b08      	ldr	r3, [pc, #32]	@ (80032bc <FLASH_MassErase+0x2c>)
 800329c:	691a      	ldr	r2, [r3, #16]
 800329e:	4b07      	ldr	r3, [pc, #28]	@ (80032bc <FLASH_MassErase+0x2c>)
 80032a0:	2104      	movs	r1, #4
 80032a2:	430a      	orrs	r2, r1
 80032a4:	611a      	str	r2, [r3, #16]
    SET_BIT(FLASH->CR, FLASH_CR_STRT);
 80032a6:	4b05      	ldr	r3, [pc, #20]	@ (80032bc <FLASH_MassErase+0x2c>)
 80032a8:	691a      	ldr	r2, [r3, #16]
 80032aa:	4b04      	ldr	r3, [pc, #16]	@ (80032bc <FLASH_MassErase+0x2c>)
 80032ac:	2140      	movs	r1, #64	@ 0x40
 80032ae:	430a      	orrs	r2, r1
 80032b0:	611a      	str	r2, [r3, #16]
}
 80032b2:	46c0      	nop			@ (mov r8, r8)
 80032b4:	46bd      	mov	sp, r7
 80032b6:	bd80      	pop	{r7, pc}
 80032b8:	200005d8 	.word	0x200005d8
 80032bc:	40022000 	.word	0x40022000

080032c0 <FLASH_PageErase>:
  *         The value of this parameter depend on device used within the same series      
  * 
  * @retval None
  */
void FLASH_PageErase(uint32_t PageAddress)
{
 80032c0:	b580      	push	{r7, lr}
 80032c2:	b082      	sub	sp, #8
 80032c4:	af00      	add	r7, sp, #0
 80032c6:	6078      	str	r0, [r7, #4]
  /* Clean the error context */
  pFlash.ErrorCode = HAL_FLASH_ERROR_NONE;
 80032c8:	4b0a      	ldr	r3, [pc, #40]	@ (80032f4 <FLASH_PageErase+0x34>)
 80032ca:	2200      	movs	r2, #0
 80032cc:	61da      	str	r2, [r3, #28]

    /* Proceed to erase the page */
    SET_BIT(FLASH->CR, FLASH_CR_PER);
 80032ce:	4b0a      	ldr	r3, [pc, #40]	@ (80032f8 <FLASH_PageErase+0x38>)
 80032d0:	691a      	ldr	r2, [r3, #16]
 80032d2:	4b09      	ldr	r3, [pc, #36]	@ (80032f8 <FLASH_PageErase+0x38>)
 80032d4:	2102      	movs	r1, #2
 80032d6:	430a      	orrs	r2, r1
 80032d8:	611a      	str	r2, [r3, #16]
    WRITE_REG(FLASH->AR, PageAddress);
 80032da:	4b07      	ldr	r3, [pc, #28]	@ (80032f8 <FLASH_PageErase+0x38>)
 80032dc:	687a      	ldr	r2, [r7, #4]
 80032de:	615a      	str	r2, [r3, #20]
    SET_BIT(FLASH->CR, FLASH_CR_STRT);
 80032e0:	4b05      	ldr	r3, [pc, #20]	@ (80032f8 <FLASH_PageErase+0x38>)
 80032e2:	691a      	ldr	r2, [r3, #16]
 80032e4:	4b04      	ldr	r3, [pc, #16]	@ (80032f8 <FLASH_PageErase+0x38>)
 80032e6:	2140      	movs	r1, #64	@ 0x40
 80032e8:	430a      	orrs	r2, r1
 80032ea:	611a      	str	r2, [r3, #16]
}
 80032ec:	46c0      	nop			@ (mov r8, r8)
 80032ee:	46bd      	mov	sp, r7
 80032f0:	b002      	add	sp, #8
 80032f2:	bd80      	pop	{r7, pc}
 80032f4:	200005d8 	.word	0x200005d8
 80032f8:	40022000 	.word	0x40022000

080032fc <HAL_GPIO_Init>:
  * @param  GPIO_Init pointer to a GPIO_InitTypeDef structure that contains
  *         the configuration information for the specified GPIO peripheral.
  * @retval None
  */
void HAL_GPIO_Init(GPIO_TypeDef  *GPIOx, GPIO_InitTypeDef *GPIO_Init)
{
 80032fc:	b580      	push	{r7, lr}
 80032fe:	b086      	sub	sp, #24
 8003300:	af00      	add	r7, sp, #0
 8003302:	6078      	str	r0, [r7, #4]
 8003304:	6039      	str	r1, [r7, #0]
  uint32_t position = 0x00u;
 8003306:	2300      	movs	r3, #0
 8003308:	617b      	str	r3, [r7, #20]
  assert_param(IS_GPIO_ALL_INSTANCE(GPIOx));
  assert_param(IS_GPIO_PIN(GPIO_Init->Pin));
  assert_param(IS_GPIO_MODE(GPIO_Init->Mode));

  /* Configure the port pins */
  while (((GPIO_Init->Pin) >> position) != 0x00u)
 800330a:	e155      	b.n	80035b8 <HAL_GPIO_Init+0x2bc>
  {
    /* Get current io position */
    iocurrent = (GPIO_Init->Pin) & (1uL << position);
 800330c:	683b      	ldr	r3, [r7, #0]
 800330e:	681b      	ldr	r3, [r3, #0]
 8003310:	2101      	movs	r1, #1
 8003312:	697a      	ldr	r2, [r7, #20]
 8003314:	4091      	lsls	r1, r2
 8003316:	000a      	movs	r2, r1
 8003318:	4013      	ands	r3, r2
 800331a:	60fb      	str	r3, [r7, #12]

    if (iocurrent != 0x00u)
 800331c:	68fb      	ldr	r3, [r7, #12]
 800331e:	2b00      	cmp	r3, #0
 8003320:	d100      	bne.n	8003324 <HAL_GPIO_Init+0x28>
 8003322:	e146      	b.n	80035b2 <HAL_GPIO_Init+0x2b6>
    {
      /*--------------------- GPIO Mode Configuration ------------------------*/
      /* In case of Output or Alternate function mode selection */
      if(((GPIO_Init->Mode & GPIO_MODE) == MODE_OUTPUT) ||
 8003324:	683b      	ldr	r3, [r7, #0]
 8003326:	685b      	ldr	r3, [r3, #4]
 8003328:	2203      	movs	r2, #3
 800332a:	4013      	ands	r3, r2
 800332c:	2b01      	cmp	r3, #1
 800332e:	d005      	beq.n	800333c <HAL_GPIO_Init+0x40>
         ((GPIO_Init->Mode & GPIO_MODE) == MODE_AF))
 8003330:	683b      	ldr	r3, [r7, #0]
 8003332:	685b      	ldr	r3, [r3, #4]
 8003334:	2203      	movs	r2, #3
 8003336:	4013      	ands	r3, r2
      if(((GPIO_Init->Mode & GPIO_MODE) == MODE_OUTPUT) ||
 8003338:	2b02      	cmp	r3, #2
 800333a:	d130      	bne.n	800339e <HAL_GPIO_Init+0xa2>
      {
        /* Check the Speed parameter */
        assert_param(IS_GPIO_SPEED(GPIO_Init->Speed));
        /* Configure the IO Speed */
        temp = GPIOx->OSPEEDR;
 800333c:	687b      	ldr	r3, [r7, #4]
 800333e:	689b      	ldr	r3, [r3, #8]
 8003340:	613b      	str	r3, [r7, #16]
        temp &= ~(GPIO_OSPEEDER_OSPEEDR0 << (position * 2u));
 8003342:	697b      	ldr	r3, [r7, #20]
 8003344:	005b      	lsls	r3, r3, #1
 8003346:	2203      	movs	r2, #3
 8003348:	409a      	lsls	r2, r3
 800334a:	0013      	movs	r3, r2
 800334c:	43da      	mvns	r2, r3
 800334e:	693b      	ldr	r3, [r7, #16]
 8003350:	4013      	ands	r3, r2
 8003352:	613b      	str	r3, [r7, #16]
        temp |= (GPIO_Init->Speed << (position * 2u));
 8003354:	683b      	ldr	r3, [r7, #0]
 8003356:	68da      	ldr	r2, [r3, #12]
 8003358:	697b      	ldr	r3, [r7, #20]
 800335a:	005b      	lsls	r3, r3, #1
 800335c:	409a      	lsls	r2, r3
 800335e:	0013      	movs	r3, r2
 8003360:	693a      	ldr	r2, [r7, #16]
 8003362:	4313      	orrs	r3, r2
 8003364:	613b      	str	r3, [r7, #16]
        GPIOx->OSPEEDR = temp;
 8003366:	687b      	ldr	r3, [r7, #4]
 8003368:	693a      	ldr	r2, [r7, #16]
 800336a:	609a      	str	r2, [r3, #8]

        /* Configure the IO Output Type */
        temp = GPIOx->OTYPER;
 800336c:	687b      	ldr	r3, [r7, #4]
 800336e:	685b      	ldr	r3, [r3, #4]
 8003370:	613b      	str	r3, [r7, #16]
        temp &= ~(GPIO_OTYPER_OT_0 << position) ;
 8003372:	2201      	movs	r2, #1
 8003374:	697b      	ldr	r3, [r7, #20]
 8003376:	409a      	lsls	r2, r3
 8003378:	0013      	movs	r3, r2
 800337a:	43da      	mvns	r2, r3
 800337c:	693b      	ldr	r3, [r7, #16]
 800337e:	4013      	ands	r3, r2
 8003380:	613b      	str	r3, [r7, #16]
        temp |= (((GPIO_Init->Mode & OUTPUT_TYPE) >> OUTPUT_TYPE_Pos) << position);
 8003382:	683b      	ldr	r3, [r7, #0]
 8003384:	685b      	ldr	r3, [r3, #4]
 8003386:	091b      	lsrs	r3, r3, #4
 8003388:	2201      	movs	r2, #1
 800338a:	401a      	ands	r2, r3
 800338c:	697b      	ldr	r3, [r7, #20]
 800338e:	409a      	lsls	r2, r3
 8003390:	0013      	movs	r3, r2
 8003392:	693a      	ldr	r2, [r7, #16]
 8003394:	4313      	orrs	r3, r2
 8003396:	613b      	str	r3, [r7, #16]
        GPIOx->OTYPER = temp;
 8003398:	687b      	ldr	r3, [r7, #4]
 800339a:	693a      	ldr	r2, [r7, #16]
 800339c:	605a      	str	r2, [r3, #4]
      }
      
      if((GPIO_Init->Mode & GPIO_MODE) != MODE_ANALOG)
 800339e:	683b      	ldr	r3, [r7, #0]
 80033a0:	685b      	ldr	r3, [r3, #4]
 80033a2:	2203      	movs	r2, #3
 80033a4:	4013      	ands	r3, r2
 80033a6:	2b03      	cmp	r3, #3
 80033a8:	d017      	beq.n	80033da <HAL_GPIO_Init+0xde>
      {
        /* Check the Pull parameter */
        assert_param(IS_GPIO_PULL(GPIO_Init->Pull));

        /* Activate the Pull-up or Pull down resistor for the current IO */
        temp = GPIOx->PUPDR;
 80033aa:	687b      	ldr	r3, [r7, #4]
 80033ac:	68db      	ldr	r3, [r3, #12]
 80033ae:	613b      	str	r3, [r7, #16]
        temp &= ~(GPIO_PUPDR_PUPDR0 << (position * 2u));
 80033b0:	697b      	ldr	r3, [r7, #20]
 80033b2:	005b      	lsls	r3, r3, #1
 80033b4:	2203      	movs	r2, #3
 80033b6:	409a      	lsls	r2, r3
 80033b8:	0013      	movs	r3, r2
 80033ba:	43da      	mvns	r2, r3
 80033bc:	693b      	ldr	r3, [r7, #16]
 80033be:	4013      	ands	r3, r2
 80033c0:	613b      	str	r3, [r7, #16]
        temp |= ((GPIO_Init->Pull) << (position * 2u));
 80033c2:	683b      	ldr	r3, [r7, #0]
 80033c4:	689a      	ldr	r2, [r3, #8]
 80033c6:	697b      	ldr	r3, [r7, #20]
 80033c8:	005b      	lsls	r3, r3, #1
 80033ca:	409a      	lsls	r2, r3
 80033cc:	0013      	movs	r3, r2
 80033ce:	693a      	ldr	r2, [r7, #16]
 80033d0:	4313      	orrs	r3, r2
 80033d2:	613b      	str	r3, [r7, #16]
        GPIOx->PUPDR = temp;
 80033d4:	687b      	ldr	r3, [r7, #4]
 80033d6:	693a      	ldr	r2, [r7, #16]
 80033d8:	60da      	str	r2, [r3, #12]
      }

      /* In case of Alternate function mode selection */
      if((GPIO_Init->Mode & GPIO_MODE) == MODE_AF)
 80033da:	683b      	ldr	r3, [r7, #0]
 80033dc:	685b      	ldr	r3, [r3, #4]
 80033de:	2203      	movs	r2, #3
 80033e0:	4013      	ands	r3, r2
 80033e2:	2b02      	cmp	r3, #2
 80033e4:	d123      	bne.n	800342e <HAL_GPIO_Init+0x132>
        /* Check the Alternate function parameters */
        assert_param(IS_GPIO_AF_INSTANCE(GPIOx));
        assert_param(IS_GPIO_AF(GPIO_Init->Alternate));

        /* Configure Alternate function mapped with the current IO */
        temp = GPIOx->AFR[position >> 3u];
 80033e6:	697b      	ldr	r3, [r7, #20]
 80033e8:	08da      	lsrs	r2, r3, #3
 80033ea:	687b      	ldr	r3, [r7, #4]
 80033ec:	3208      	adds	r2, #8
 80033ee:	0092      	lsls	r2, r2, #2
 80033f0:	58d3      	ldr	r3, [r2, r3]
 80033f2:	613b      	str	r3, [r7, #16]
        temp &= ~(0xFu << ((position & 0x07u) * 4u));
 80033f4:	697b      	ldr	r3, [r7, #20]
 80033f6:	2207      	movs	r2, #7
 80033f8:	4013      	ands	r3, r2
 80033fa:	009b      	lsls	r3, r3, #2
 80033fc:	220f      	movs	r2, #15
 80033fe:	409a      	lsls	r2, r3
 8003400:	0013      	movs	r3, r2
 8003402:	43da      	mvns	r2, r3
 8003404:	693b      	ldr	r3, [r7, #16]
 8003406:	4013      	ands	r3, r2
 8003408:	613b      	str	r3, [r7, #16]
        temp |= ((GPIO_Init->Alternate) << ((position & 0x07u) * 4u));
 800340a:	683b      	ldr	r3, [r7, #0]
 800340c:	691a      	ldr	r2, [r3, #16]
 800340e:	697b      	ldr	r3, [r7, #20]
 8003410:	2107      	movs	r1, #7
 8003412:	400b      	ands	r3, r1
 8003414:	009b      	lsls	r3, r3, #2
 8003416:	409a      	lsls	r2, r3
 8003418:	0013      	movs	r3, r2
 800341a:	693a      	ldr	r2, [r7, #16]
 800341c:	4313      	orrs	r3, r2
 800341e:	613b      	str	r3, [r7, #16]
        GPIOx->AFR[position >> 3u] = temp;
 8003420:	697b      	ldr	r3, [r7, #20]
 8003422:	08da      	lsrs	r2, r3, #3
 8003424:	687b      	ldr	r3, [r7, #4]
 8003426:	3208      	adds	r2, #8
 8003428:	0092      	lsls	r2, r2, #2
 800342a:	6939      	ldr	r1, [r7, #16]
 800342c:	50d1      	str	r1, [r2, r3]
      }

      /* Configure IO Direction mode (Input, Output, Alternate or Analog) */
      temp = GPIOx->MODER;
 800342e:	687b      	ldr	r3, [r7, #4]
 8003430:	681b      	ldr	r3, [r3, #0]
 8003432:	613b      	str	r3, [r7, #16]
      temp &= ~(GPIO_MODER_MODER0 << (position * 2u));
 8003434:	697b      	ldr	r3, [r7, #20]
 8003436:	005b      	lsls	r3, r3, #1
 8003438:	2203      	movs	r2, #3
 800343a:	409a      	lsls	r2, r3
 800343c:	0013      	movs	r3, r2
 800343e:	43da      	mvns	r2, r3
 8003440:	693b      	ldr	r3, [r7, #16]
 8003442:	4013      	ands	r3, r2
 8003444:	613b      	str	r3, [r7, #16]
      temp |= ((GPIO_Init->Mode & GPIO_MODE) << (position * 2u));
 8003446:	683b      	ldr	r3, [r7, #0]
 8003448:	685b      	ldr	r3, [r3, #4]
 800344a:	2203      	movs	r2, #3
 800344c:	401a      	ands	r2, r3
 800344e:	697b      	ldr	r3, [r7, #20]
 8003450:	005b      	lsls	r3, r3, #1
 8003452:	409a      	lsls	r2, r3
 8003454:	0013      	movs	r3, r2
 8003456:	693a      	ldr	r2, [r7, #16]
 8003458:	4313      	orrs	r3, r2
 800345a:	613b      	str	r3, [r7, #16]
      GPIOx->MODER = temp;
 800345c:	687b      	ldr	r3, [r7, #4]
 800345e:	693a      	ldr	r2, [r7, #16]
 8003460:	601a      	str	r2, [r3, #0]

      /*--------------------- EXTI Mode Configuration ------------------------*/
      /* Configure the External Interrupt or event for the current IO */
      if((GPIO_Init->Mode & EXTI_MODE) != 0x00u)
 8003462:	683b      	ldr	r3, [r7, #0]
 8003464:	685a      	ldr	r2, [r3, #4]
 8003466:	23c0      	movs	r3, #192	@ 0xc0
 8003468:	029b      	lsls	r3, r3, #10
 800346a:	4013      	ands	r3, r2
 800346c:	d100      	bne.n	8003470 <HAL_GPIO_Init+0x174>
 800346e:	e0a0      	b.n	80035b2 <HAL_GPIO_Init+0x2b6>
      {
        /* Enable SYSCFG Clock */
        __HAL_RCC_SYSCFG_CLK_ENABLE();
 8003470:	4b57      	ldr	r3, [pc, #348]	@ (80035d0 <HAL_GPIO_Init+0x2d4>)
 8003472:	699a      	ldr	r2, [r3, #24]
 8003474:	4b56      	ldr	r3, [pc, #344]	@ (80035d0 <HAL_GPIO_Init+0x2d4>)
 8003476:	2101      	movs	r1, #1
 8003478:	430a      	orrs	r2, r1
 800347a:	619a      	str	r2, [r3, #24]
 800347c:	4b54      	ldr	r3, [pc, #336]	@ (80035d0 <HAL_GPIO_Init+0x2d4>)
 800347e:	699b      	ldr	r3, [r3, #24]
 8003480:	2201      	movs	r2, #1
 8003482:	4013      	ands	r3, r2
 8003484:	60bb      	str	r3, [r7, #8]
 8003486:	68bb      	ldr	r3, [r7, #8]

        temp = SYSCFG->EXTICR[position >> 2u];
 8003488:	4a52      	ldr	r2, [pc, #328]	@ (80035d4 <HAL_GPIO_Init+0x2d8>)
 800348a:	697b      	ldr	r3, [r7, #20]
 800348c:	089b      	lsrs	r3, r3, #2
 800348e:	3302      	adds	r3, #2
 8003490:	009b      	lsls	r3, r3, #2
 8003492:	589b      	ldr	r3, [r3, r2]
 8003494:	613b      	str	r3, [r7, #16]
        temp &= ~(0x0FuL << (4u * (position & 0x03u)));
 8003496:	697b      	ldr	r3, [r7, #20]
 8003498:	2203      	movs	r2, #3
 800349a:	4013      	ands	r3, r2
 800349c:	009b      	lsls	r3, r3, #2
 800349e:	220f      	movs	r2, #15
 80034a0:	409a      	lsls	r2, r3
 80034a2:	0013      	movs	r3, r2
 80034a4:	43da      	mvns	r2, r3
 80034a6:	693b      	ldr	r3, [r7, #16]
 80034a8:	4013      	ands	r3, r2
 80034aa:	613b      	str	r3, [r7, #16]
        temp |= (GPIO_GET_INDEX(GPIOx) << (4u * (position & 0x03u)));
 80034ac:	687a      	ldr	r2, [r7, #4]
 80034ae:	2390      	movs	r3, #144	@ 0x90
 80034b0:	05db      	lsls	r3, r3, #23
 80034b2:	429a      	cmp	r2, r3
 80034b4:	d019      	beq.n	80034ea <HAL_GPIO_Init+0x1ee>
 80034b6:	687b      	ldr	r3, [r7, #4]
 80034b8:	4a47      	ldr	r2, [pc, #284]	@ (80035d8 <HAL_GPIO_Init+0x2dc>)
 80034ba:	4293      	cmp	r3, r2
 80034bc:	d013      	beq.n	80034e6 <HAL_GPIO_Init+0x1ea>
 80034be:	687b      	ldr	r3, [r7, #4]
 80034c0:	4a46      	ldr	r2, [pc, #280]	@ (80035dc <HAL_GPIO_Init+0x2e0>)
 80034c2:	4293      	cmp	r3, r2
 80034c4:	d00d      	beq.n	80034e2 <HAL_GPIO_Init+0x1e6>
 80034c6:	687b      	ldr	r3, [r7, #4]
 80034c8:	4a45      	ldr	r2, [pc, #276]	@ (80035e0 <HAL_GPIO_Init+0x2e4>)
 80034ca:	4293      	cmp	r3, r2
 80034cc:	d007      	beq.n	80034de <HAL_GPIO_Init+0x1e2>
 80034ce:	687b      	ldr	r3, [r7, #4]
 80034d0:	4a44      	ldr	r2, [pc, #272]	@ (80035e4 <HAL_GPIO_Init+0x2e8>)
 80034d2:	4293      	cmp	r3, r2
 80034d4:	d101      	bne.n	80034da <HAL_GPIO_Init+0x1de>
 80034d6:	2304      	movs	r3, #4
 80034d8:	e008      	b.n	80034ec <HAL_GPIO_Init+0x1f0>
 80034da:	2305      	movs	r3, #5
 80034dc:	e006      	b.n	80034ec <HAL_GPIO_Init+0x1f0>
 80034de:	2303      	movs	r3, #3
 80034e0:	e004      	b.n	80034ec <HAL_GPIO_Init+0x1f0>
 80034e2:	2302      	movs	r3, #2
 80034e4:	e002      	b.n	80034ec <HAL_GPIO_Init+0x1f0>
 80034e6:	2301      	movs	r3, #1
 80034e8:	e000      	b.n	80034ec <HAL_GPIO_Init+0x1f0>
 80034ea:	2300      	movs	r3, #0
 80034ec:	697a      	ldr	r2, [r7, #20]
 80034ee:	2103      	movs	r1, #3
 80034f0:	400a      	ands	r2, r1
 80034f2:	0092      	lsls	r2, r2, #2
 80034f4:	4093      	lsls	r3, r2
 80034f6:	693a      	ldr	r2, [r7, #16]
 80034f8:	4313      	orrs	r3, r2
 80034fa:	613b      	str	r3, [r7, #16]
        SYSCFG->EXTICR[position >> 2u] = temp;
 80034fc:	4935      	ldr	r1, [pc, #212]	@ (80035d4 <HAL_GPIO_Init+0x2d8>)
 80034fe:	697b      	ldr	r3, [r7, #20]
 8003500:	089b      	lsrs	r3, r3, #2
 8003502:	3302      	adds	r3, #2
 8003504:	009b      	lsls	r3, r3, #2
 8003506:	693a      	ldr	r2, [r7, #16]
 8003508:	505a      	str	r2, [r3, r1]

        /* Clear Rising Falling edge configuration */
        temp = EXTI->RTSR;
 800350a:	4b37      	ldr	r3, [pc, #220]	@ (80035e8 <HAL_GPIO_Init+0x2ec>)
 800350c:	689b      	ldr	r3, [r3, #8]
 800350e:	613b      	str	r3, [r7, #16]
        temp &= ~(iocurrent);
 8003510:	68fb      	ldr	r3, [r7, #12]
 8003512:	43da      	mvns	r2, r3
 8003514:	693b      	ldr	r3, [r7, #16]
 8003516:	4013      	ands	r3, r2
 8003518:	613b      	str	r3, [r7, #16]
        if((GPIO_Init->Mode & TRIGGER_RISING) != 0x00u)
 800351a:	683b      	ldr	r3, [r7, #0]
 800351c:	685a      	ldr	r2, [r3, #4]
 800351e:	2380      	movs	r3, #128	@ 0x80
 8003520:	035b      	lsls	r3, r3, #13
 8003522:	4013      	ands	r3, r2
 8003524:	d003      	beq.n	800352e <HAL_GPIO_Init+0x232>
        {
          temp |= iocurrent;
 8003526:	693a      	ldr	r2, [r7, #16]
 8003528:	68fb      	ldr	r3, [r7, #12]
 800352a:	4313      	orrs	r3, r2
 800352c:	613b      	str	r3, [r7, #16]
        }
        EXTI->RTSR = temp;
 800352e:	4b2e      	ldr	r3, [pc, #184]	@ (80035e8 <HAL_GPIO_Init+0x2ec>)
 8003530:	693a      	ldr	r2, [r7, #16]
 8003532:	609a      	str	r2, [r3, #8]

        temp = EXTI->FTSR;
 8003534:	4b2c      	ldr	r3, [pc, #176]	@ (80035e8 <HAL_GPIO_Init+0x2ec>)
 8003536:	68db      	ldr	r3, [r3, #12]
 8003538:	613b      	str	r3, [r7, #16]
        temp &= ~(iocurrent);
 800353a:	68fb      	ldr	r3, [r7, #12]
 800353c:	43da      	mvns	r2, r3
 800353e:	693b      	ldr	r3, [r7, #16]
 8003540:	4013      	ands	r3, r2
 8003542:	613b      	str	r3, [r7, #16]
        if((GPIO_Init->Mode & TRIGGER_FALLING) != 0x00u)
 8003544:	683b      	ldr	r3, [r7, #0]
 8003546:	685a      	ldr	r2, [r3, #4]
 8003548:	2380      	movs	r3, #128	@ 0x80
 800354a:	039b      	lsls	r3, r3, #14
 800354c:	4013      	ands	r3, r2
 800354e:	d003      	beq.n	8003558 <HAL_GPIO_Init+0x25c>
        {
          temp |= iocurrent;
 8003550:	693a      	ldr	r2, [r7, #16]
 8003552:	68fb      	ldr	r3, [r7, #12]
 8003554:	4313      	orrs	r3, r2
 8003556:	613b      	str	r3, [r7, #16]
        }
        EXTI->FTSR = temp;
 8003558:	4b23      	ldr	r3, [pc, #140]	@ (80035e8 <HAL_GPIO_Init+0x2ec>)
 800355a:	693a      	ldr	r2, [r7, #16]
 800355c:	60da      	str	r2, [r3, #12]

        /* Clear EXTI line configuration */
        temp = EXTI->EMR;
 800355e:	4b22      	ldr	r3, [pc, #136]	@ (80035e8 <HAL_GPIO_Init+0x2ec>)
 8003560:	685b      	ldr	r3, [r3, #4]
 8003562:	613b      	str	r3, [r7, #16]
        temp &= ~(iocurrent);
 8003564:	68fb      	ldr	r3, [r7, #12]
 8003566:	43da      	mvns	r2, r3
 8003568:	693b      	ldr	r3, [r7, #16]
 800356a:	4013      	ands	r3, r2
 800356c:	613b      	str	r3, [r7, #16]
        if((GPIO_Init->Mode & EXTI_EVT) != 0x00u)
 800356e:	683b      	ldr	r3, [r7, #0]
 8003570:	685a      	ldr	r2, [r3, #4]
 8003572:	2380      	movs	r3, #128	@ 0x80
 8003574:	029b      	lsls	r3, r3, #10
 8003576:	4013      	ands	r3, r2
 8003578:	d003      	beq.n	8003582 <HAL_GPIO_Init+0x286>
        {
          temp |= iocurrent;
 800357a:	693a      	ldr	r2, [r7, #16]
 800357c:	68fb      	ldr	r3, [r7, #12]
 800357e:	4313      	orrs	r3, r2
 8003580:	613b      	str	r3, [r7, #16]
        }
        EXTI->EMR = temp;
 8003582:	4b19      	ldr	r3, [pc, #100]	@ (80035e8 <HAL_GPIO_Init+0x2ec>)
 8003584:	693a      	ldr	r2, [r7, #16]
 8003586:	605a      	str	r2, [r3, #4]

        temp = EXTI->IMR;
 8003588:	4b17      	ldr	r3, [pc, #92]	@ (80035e8 <HAL_GPIO_Init+0x2ec>)
 800358a:	681b      	ldr	r3, [r3, #0]
 800358c:	613b      	str	r3, [r7, #16]
        temp &= ~(iocurrent);
 800358e:	68fb      	ldr	r3, [r7, #12]
 8003590:	43da      	mvns	r2, r3
 8003592:	693b      	ldr	r3, [r7, #16]
 8003594:	4013      	ands	r3, r2
 8003596:	613b      	str	r3, [r7, #16]
        if((GPIO_Init->Mode & EXTI_IT) != 0x00u)
 8003598:	683b      	ldr	r3, [r7, #0]
 800359a:	685a      	ldr	r2, [r3, #4]
 800359c:	2380      	movs	r3, #128	@ 0x80
 800359e:	025b      	lsls	r3, r3, #9
 80035a0:	4013      	ands	r3, r2
 80035a2:	d003      	beq.n	80035ac <HAL_GPIO_Init+0x2b0>
        {
          temp |= iocurrent;
 80035a4:	693a      	ldr	r2, [r7, #16]
 80035a6:	68fb      	ldr	r3, [r7, #12]
 80035a8:	4313      	orrs	r3, r2
 80035aa:	613b      	str	r3, [r7, #16]
        }
        EXTI->IMR = temp;
 80035ac:	4b0e      	ldr	r3, [pc, #56]	@ (80035e8 <HAL_GPIO_Init+0x2ec>)
 80035ae:	693a      	ldr	r2, [r7, #16]
 80035b0:	601a      	str	r2, [r3, #0]
      }
    }

    position++;
 80035b2:	697b      	ldr	r3, [r7, #20]
 80035b4:	3301      	adds	r3, #1
 80035b6:	617b      	str	r3, [r7, #20]
  while (((GPIO_Init->Pin) >> position) != 0x00u)
 80035b8:	683b      	ldr	r3, [r7, #0]
 80035ba:	681a      	ldr	r2, [r3, #0]
 80035bc:	697b      	ldr	r3, [r7, #20]
 80035be:	40da      	lsrs	r2, r3
 80035c0:	1e13      	subs	r3, r2, #0
 80035c2:	d000      	beq.n	80035c6 <HAL_GPIO_Init+0x2ca>
 80035c4:	e6a2      	b.n	800330c <HAL_GPIO_Init+0x10>
  } 
}
 80035c6:	46c0      	nop			@ (mov r8, r8)
 80035c8:	46c0      	nop			@ (mov r8, r8)
 80035ca:	46bd      	mov	sp, r7
 80035cc:	b006      	add	sp, #24
 80035ce:	bd80      	pop	{r7, pc}
 80035d0:	40021000 	.word	0x40021000
 80035d4:	40010000 	.word	0x40010000
 80035d8:	48000400 	.word	0x48000400
 80035dc:	48000800 	.word	0x48000800
 80035e0:	48000c00 	.word	0x48000c00
 80035e4:	48001000 	.word	0x48001000
 80035e8:	40010400 	.word	0x40010400

080035ec <HAL_GPIO_DeInit>:
  * @param  GPIO_Pin specifies the port bit to be written.
  *         This parameter can be one of GPIO_PIN_x where x can be (0..15).
  * @retval None
  */
void HAL_GPIO_DeInit(GPIO_TypeDef  *GPIOx, uint32_t GPIO_Pin)
{
 80035ec:	b580      	push	{r7, lr}
 80035ee:	b086      	sub	sp, #24
 80035f0:	af00      	add	r7, sp, #0
 80035f2:	6078      	str	r0, [r7, #4]
 80035f4:	6039      	str	r1, [r7, #0]
  uint32_t position = 0x00u;
 80035f6:	2300      	movs	r3, #0
 80035f8:	617b      	str	r3, [r7, #20]
  /* Check the parameters */
  assert_param(IS_GPIO_ALL_INSTANCE(GPIOx));
  assert_param(IS_GPIO_PIN(GPIO_Pin));

  /* Configure the port pins */
  while ((GPIO_Pin >> position) != 0x00u)
 80035fa:	e0b7      	b.n	800376c <HAL_GPIO_DeInit+0x180>
  {
    /* Get current io position */
    iocurrent = (GPIO_Pin) & (1uL << position);
 80035fc:	2201      	movs	r2, #1
 80035fe:	697b      	ldr	r3, [r7, #20]
 8003600:	409a      	lsls	r2, r3
 8003602:	683b      	ldr	r3, [r7, #0]
 8003604:	4013      	ands	r3, r2
 8003606:	613b      	str	r3, [r7, #16]

    if (iocurrent != 0x00u)
 8003608:	693b      	ldr	r3, [r7, #16]
 800360a:	2b00      	cmp	r3, #0
 800360c:	d100      	bne.n	8003610 <HAL_GPIO_DeInit+0x24>
 800360e:	e0aa      	b.n	8003766 <HAL_GPIO_DeInit+0x17a>
    {
      /*------------------------- EXTI Mode Configuration --------------------*/
      /* Clear the External Interrupt or Event for the current IO */

      tmp = SYSCFG->EXTICR[position >> 2u];
 8003610:	4a5c      	ldr	r2, [pc, #368]	@ (8003784 <HAL_GPIO_DeInit+0x198>)
 8003612:	697b      	ldr	r3, [r7, #20]
 8003614:	089b      	lsrs	r3, r3, #2
 8003616:	3302      	adds	r3, #2
 8003618:	009b      	lsls	r3, r3, #2
 800361a:	589b      	ldr	r3, [r3, r2]
 800361c:	60fb      	str	r3, [r7, #12]
      tmp &= (0x0FuL << (4u * (position & 0x03u)));
 800361e:	697b      	ldr	r3, [r7, #20]
 8003620:	2203      	movs	r2, #3
 8003622:	4013      	ands	r3, r2
 8003624:	009b      	lsls	r3, r3, #2
 8003626:	220f      	movs	r2, #15
 8003628:	409a      	lsls	r2, r3
 800362a:	68fb      	ldr	r3, [r7, #12]
 800362c:	4013      	ands	r3, r2
 800362e:	60fb      	str	r3, [r7, #12]
      if (tmp == (GPIO_GET_INDEX(GPIOx) << (4u * (position & 0x03u))))
 8003630:	687a      	ldr	r2, [r7, #4]
 8003632:	2390      	movs	r3, #144	@ 0x90
 8003634:	05db      	lsls	r3, r3, #23
 8003636:	429a      	cmp	r2, r3
 8003638:	d019      	beq.n	800366e <HAL_GPIO_DeInit+0x82>
 800363a:	687b      	ldr	r3, [r7, #4]
 800363c:	4a52      	ldr	r2, [pc, #328]	@ (8003788 <HAL_GPIO_DeInit+0x19c>)
 800363e:	4293      	cmp	r3, r2
 8003640:	d013      	beq.n	800366a <HAL_GPIO_DeInit+0x7e>
 8003642:	687b      	ldr	r3, [r7, #4]
 8003644:	4a51      	ldr	r2, [pc, #324]	@ (800378c <HAL_GPIO_DeInit+0x1a0>)
 8003646:	4293      	cmp	r3, r2
 8003648:	d00d      	beq.n	8003666 <HAL_GPIO_DeInit+0x7a>
 800364a:	687b      	ldr	r3, [r7, #4]
 800364c:	4a50      	ldr	r2, [pc, #320]	@ (8003790 <HAL_GPIO_DeInit+0x1a4>)
 800364e:	4293      	cmp	r3, r2
 8003650:	d007      	beq.n	8003662 <HAL_GPIO_DeInit+0x76>
 8003652:	687b      	ldr	r3, [r7, #4]
 8003654:	4a4f      	ldr	r2, [pc, #316]	@ (8003794 <HAL_GPIO_DeInit+0x1a8>)
 8003656:	4293      	cmp	r3, r2
 8003658:	d101      	bne.n	800365e <HAL_GPIO_DeInit+0x72>
 800365a:	2304      	movs	r3, #4
 800365c:	e008      	b.n	8003670 <HAL_GPIO_DeInit+0x84>
 800365e:	2305      	movs	r3, #5
 8003660:	e006      	b.n	8003670 <HAL_GPIO_DeInit+0x84>
 8003662:	2303      	movs	r3, #3
 8003664:	e004      	b.n	8003670 <HAL_GPIO_DeInit+0x84>
 8003666:	2302      	movs	r3, #2
 8003668:	e002      	b.n	8003670 <HAL_GPIO_DeInit+0x84>
 800366a:	2301      	movs	r3, #1
 800366c:	e000      	b.n	8003670 <HAL_GPIO_DeInit+0x84>
 800366e:	2300      	movs	r3, #0
 8003670:	697a      	ldr	r2, [r7, #20]
 8003672:	2103      	movs	r1, #3
 8003674:	400a      	ands	r2, r1
 8003676:	0092      	lsls	r2, r2, #2
 8003678:	4093      	lsls	r3, r2
 800367a:	68fa      	ldr	r2, [r7, #12]
 800367c:	429a      	cmp	r2, r3
 800367e:	d132      	bne.n	80036e6 <HAL_GPIO_DeInit+0xfa>
      {
        /* Clear EXTI line configuration */
        EXTI->IMR &= ~((uint32_t)iocurrent);
 8003680:	4b45      	ldr	r3, [pc, #276]	@ (8003798 <HAL_GPIO_DeInit+0x1ac>)
 8003682:	681a      	ldr	r2, [r3, #0]
 8003684:	693b      	ldr	r3, [r7, #16]
 8003686:	43d9      	mvns	r1, r3
 8003688:	4b43      	ldr	r3, [pc, #268]	@ (8003798 <HAL_GPIO_DeInit+0x1ac>)
 800368a:	400a      	ands	r2, r1
 800368c:	601a      	str	r2, [r3, #0]
        EXTI->EMR &= ~((uint32_t)iocurrent);
 800368e:	4b42      	ldr	r3, [pc, #264]	@ (8003798 <HAL_GPIO_DeInit+0x1ac>)
 8003690:	685a      	ldr	r2, [r3, #4]
 8003692:	693b      	ldr	r3, [r7, #16]
 8003694:	43d9      	mvns	r1, r3
 8003696:	4b40      	ldr	r3, [pc, #256]	@ (8003798 <HAL_GPIO_DeInit+0x1ac>)
 8003698:	400a      	ands	r2, r1
 800369a:	605a      	str	r2, [r3, #4]
        
        /* Clear Rising Falling edge configuration */
        EXTI->FTSR &= ~((uint32_t)iocurrent);
 800369c:	4b3e      	ldr	r3, [pc, #248]	@ (8003798 <HAL_GPIO_DeInit+0x1ac>)
 800369e:	68da      	ldr	r2, [r3, #12]
 80036a0:	693b      	ldr	r3, [r7, #16]
 80036a2:	43d9      	mvns	r1, r3
 80036a4:	4b3c      	ldr	r3, [pc, #240]	@ (8003798 <HAL_GPIO_DeInit+0x1ac>)
 80036a6:	400a      	ands	r2, r1
 80036a8:	60da      	str	r2, [r3, #12]
        EXTI->RTSR &= ~((uint32_t)iocurrent);
 80036aa:	4b3b      	ldr	r3, [pc, #236]	@ (8003798 <HAL_GPIO_DeInit+0x1ac>)
 80036ac:	689a      	ldr	r2, [r3, #8]
 80036ae:	693b      	ldr	r3, [r7, #16]
 80036b0:	43d9      	mvns	r1, r3
 80036b2:	4b39      	ldr	r3, [pc, #228]	@ (8003798 <HAL_GPIO_DeInit+0x1ac>)
 80036b4:	400a      	ands	r2, r1
 80036b6:	609a      	str	r2, [r3, #8]

        /* Configure the External Interrupt or event for the current IO */
        tmp = 0x0FuL << (4u * (position & 0x03u));
 80036b8:	697b      	ldr	r3, [r7, #20]
 80036ba:	2203      	movs	r2, #3
 80036bc:	4013      	ands	r3, r2
 80036be:	009b      	lsls	r3, r3, #2
 80036c0:	220f      	movs	r2, #15
 80036c2:	409a      	lsls	r2, r3
 80036c4:	0013      	movs	r3, r2
 80036c6:	60fb      	str	r3, [r7, #12]
        SYSCFG->EXTICR[position >> 2u] &= ~tmp;
 80036c8:	4a2e      	ldr	r2, [pc, #184]	@ (8003784 <HAL_GPIO_DeInit+0x198>)
 80036ca:	697b      	ldr	r3, [r7, #20]
 80036cc:	089b      	lsrs	r3, r3, #2
 80036ce:	3302      	adds	r3, #2
 80036d0:	009b      	lsls	r3, r3, #2
 80036d2:	589a      	ldr	r2, [r3, r2]
 80036d4:	68fb      	ldr	r3, [r7, #12]
 80036d6:	43d9      	mvns	r1, r3
 80036d8:	482a      	ldr	r0, [pc, #168]	@ (8003784 <HAL_GPIO_DeInit+0x198>)
 80036da:	697b      	ldr	r3, [r7, #20]
 80036dc:	089b      	lsrs	r3, r3, #2
 80036de:	400a      	ands	r2, r1
 80036e0:	3302      	adds	r3, #2
 80036e2:	009b      	lsls	r3, r3, #2
 80036e4:	501a      	str	r2, [r3, r0]
      }

      /*------------------------- GPIO Mode Configuration --------------------*/
      /* Configure IO Direction in Input Floating Mode */
      GPIOx->MODER &= ~(GPIO_MODER_MODER0 << (position * 2u));
 80036e6:	687b      	ldr	r3, [r7, #4]
 80036e8:	681b      	ldr	r3, [r3, #0]
 80036ea:	697a      	ldr	r2, [r7, #20]
 80036ec:	0052      	lsls	r2, r2, #1
 80036ee:	2103      	movs	r1, #3
 80036f0:	4091      	lsls	r1, r2
 80036f2:	000a      	movs	r2, r1
 80036f4:	43d2      	mvns	r2, r2
 80036f6:	401a      	ands	r2, r3
 80036f8:	687b      	ldr	r3, [r7, #4]
 80036fa:	601a      	str	r2, [r3, #0]

      /* Configure the default Alternate Function in current IO */
      GPIOx->AFR[position >> 3u] &= ~(0xFu << ((uint32_t)(position & 0x07u) * 4u)) ;
 80036fc:	697b      	ldr	r3, [r7, #20]
 80036fe:	08da      	lsrs	r2, r3, #3
 8003700:	687b      	ldr	r3, [r7, #4]
 8003702:	3208      	adds	r2, #8
 8003704:	0092      	lsls	r2, r2, #2
 8003706:	58d3      	ldr	r3, [r2, r3]
 8003708:	697a      	ldr	r2, [r7, #20]
 800370a:	2107      	movs	r1, #7
 800370c:	400a      	ands	r2, r1
 800370e:	0092      	lsls	r2, r2, #2
 8003710:	210f      	movs	r1, #15
 8003712:	4091      	lsls	r1, r2
 8003714:	000a      	movs	r2, r1
 8003716:	43d1      	mvns	r1, r2
 8003718:	697a      	ldr	r2, [r7, #20]
 800371a:	08d2      	lsrs	r2, r2, #3
 800371c:	4019      	ands	r1, r3
 800371e:	687b      	ldr	r3, [r7, #4]
 8003720:	3208      	adds	r2, #8
 8003722:	0092      	lsls	r2, r2, #2
 8003724:	50d1      	str	r1, [r2, r3]

      /* Deactivate the Pull-up and Pull-down resistor for the current IO */
      GPIOx->PUPDR &= ~(GPIO_PUPDR_PUPDR0 << (position * 2u));
 8003726:	687b      	ldr	r3, [r7, #4]
 8003728:	68db      	ldr	r3, [r3, #12]
 800372a:	697a      	ldr	r2, [r7, #20]
 800372c:	0052      	lsls	r2, r2, #1
 800372e:	2103      	movs	r1, #3
 8003730:	4091      	lsls	r1, r2
 8003732:	000a      	movs	r2, r1
 8003734:	43d2      	mvns	r2, r2
 8003736:	401a      	ands	r2, r3
 8003738:	687b      	ldr	r3, [r7, #4]
 800373a:	60da      	str	r2, [r3, #12]

      /* Configure the default value IO Output Type */
      GPIOx->OTYPER  &= ~(GPIO_OTYPER_OT_0 << position) ;
 800373c:	687b      	ldr	r3, [r7, #4]
 800373e:	685b      	ldr	r3, [r3, #4]
 8003740:	2101      	movs	r1, #1
 8003742:	697a      	ldr	r2, [r7, #20]
 8003744:	4091      	lsls	r1, r2
 8003746:	000a      	movs	r2, r1
 8003748:	43d2      	mvns	r2, r2
 800374a:	401a      	ands	r2, r3
 800374c:	687b      	ldr	r3, [r7, #4]
 800374e:	605a      	str	r2, [r3, #4]

      /* Configure the default value for IO Speed */
      GPIOx->OSPEEDR &= ~(GPIO_OSPEEDER_OSPEEDR0 << (position * 2u));
 8003750:	687b      	ldr	r3, [r7, #4]
 8003752:	689b      	ldr	r3, [r3, #8]
 8003754:	697a      	ldr	r2, [r7, #20]
 8003756:	0052      	lsls	r2, r2, #1
 8003758:	2103      	movs	r1, #3
 800375a:	4091      	lsls	r1, r2
 800375c:	000a      	movs	r2, r1
 800375e:	43d2      	mvns	r2, r2
 8003760:	401a      	ands	r2, r3
 8003762:	687b      	ldr	r3, [r7, #4]
 8003764:	609a      	str	r2, [r3, #8]

    }

    position++;
 8003766:	697b      	ldr	r3, [r7, #20]
 8003768:	3301      	adds	r3, #1
 800376a:	617b      	str	r3, [r7, #20]
  while ((GPIO_Pin >> position) != 0x00u)
 800376c:	683a      	ldr	r2, [r7, #0]
 800376e:	697b      	ldr	r3, [r7, #20]
 8003770:	40da      	lsrs	r2, r3
 8003772:	1e13      	subs	r3, r2, #0
 8003774:	d000      	beq.n	8003778 <HAL_GPIO_DeInit+0x18c>
 8003776:	e741      	b.n	80035fc <HAL_GPIO_DeInit+0x10>
  }
}
 8003778:	46c0      	nop			@ (mov r8, r8)
 800377a:	46c0      	nop			@ (mov r8, r8)
 800377c:	46bd      	mov	sp, r7
 800377e:	b006      	add	sp, #24
 8003780:	bd80      	pop	{r7, pc}
 8003782:	46c0      	nop			@ (mov r8, r8)
 8003784:	40010000 	.word	0x40010000
 8003788:	48000400 	.word	0x48000400
 800378c:	48000800 	.word	0x48000800
 8003790:	48000c00 	.word	0x48000c00
 8003794:	48001000 	.word	0x48001000
 8003798:	40010400 	.word	0x40010400

0800379c <HAL_GPIO_WritePin>:
  *            @arg GPIO_PIN_RESET: to clear the port pin
  *            @arg GPIO_PIN_SET: to set the port pin
  * @retval None
  */
void HAL_GPIO_WritePin(GPIO_TypeDef* GPIOx, uint16_t GPIO_Pin, GPIO_PinState PinState)
{
 800379c:	b580      	push	{r7, lr}
 800379e:	b082      	sub	sp, #8
 80037a0:	af00      	add	r7, sp, #0
 80037a2:	6078      	str	r0, [r7, #4]
 80037a4:	0008      	movs	r0, r1
 80037a6:	0011      	movs	r1, r2
 80037a8:	1cbb      	adds	r3, r7, #2
 80037aa:	1c02      	adds	r2, r0, #0
 80037ac:	801a      	strh	r2, [r3, #0]
 80037ae:	1c7b      	adds	r3, r7, #1
 80037b0:	1c0a      	adds	r2, r1, #0
 80037b2:	701a      	strb	r2, [r3, #0]
  /* Check the parameters */
  assert_param(IS_GPIO_PIN(GPIO_Pin));
  assert_param(IS_GPIO_PIN_ACTION(PinState));

  if (PinState != GPIO_PIN_RESET)
 80037b4:	1c7b      	adds	r3, r7, #1
 80037b6:	781b      	ldrb	r3, [r3, #0]
 80037b8:	2b00      	cmp	r3, #0
 80037ba:	d004      	beq.n	80037c6 <HAL_GPIO_WritePin+0x2a>
  {
    GPIOx->BSRR = (uint32_t)GPIO_Pin;
 80037bc:	1cbb      	adds	r3, r7, #2
 80037be:	881a      	ldrh	r2, [r3, #0]
 80037c0:	687b      	ldr	r3, [r7, #4]
 80037c2:	619a      	str	r2, [r3, #24]
  }
  else
  {
    GPIOx->BRR = (uint32_t)GPIO_Pin;
  }
}
 80037c4:	e003      	b.n	80037ce <HAL_GPIO_WritePin+0x32>
    GPIOx->BRR = (uint32_t)GPIO_Pin;
 80037c6:	1cbb      	adds	r3, r7, #2
 80037c8:	881a      	ldrh	r2, [r3, #0]
 80037ca:	687b      	ldr	r3, [r7, #4]
 80037cc:	629a      	str	r2, [r3, #40]	@ 0x28
}
 80037ce:	46c0      	nop			@ (mov r8, r8)
 80037d0:	46bd      	mov	sp, r7
 80037d2:	b002      	add	sp, #8
 80037d4:	bd80      	pop	{r7, pc}
	...

080037d8 <HAL_RCC_OscConfig>:
  *         supported by this macro. User should request a transition to HSE Off
  *         first and then HSE On or HSE Bypass.
  * @retval HAL status
  */
HAL_StatusTypeDef HAL_RCC_OscConfig(RCC_OscInitTypeDef  *RCC_OscInitStruct)
{
 80037d8:	b580      	push	{r7, lr}
 80037da:	b088      	sub	sp, #32
 80037dc:	af00      	add	r7, sp, #0
 80037de:	6078      	str	r0, [r7, #4]
  uint32_t tickstart;
  uint32_t pll_config;
  uint32_t pll_config2;

  /* Check Null pointer */
  if(RCC_OscInitStruct == NULL)
 80037e0:	687b      	ldr	r3, [r7, #4]
 80037e2:	2b00      	cmp	r3, #0
 80037e4:	d102      	bne.n	80037ec <HAL_RCC_OscConfig+0x14>
  {
    return HAL_ERROR;
 80037e6:	2301      	movs	r3, #1
 80037e8:	f000 fb76 	bl	8003ed8 <HAL_RCC_OscConfig+0x700>

  /* Check the parameters */
  assert_param(IS_RCC_OSCILLATORTYPE(RCC_OscInitStruct->OscillatorType));

  /*------------------------------- HSE Configuration ------------------------*/ 
  if(((RCC_OscInitStruct->OscillatorType) & RCC_OSCILLATORTYPE_HSE) == RCC_OSCILLATORTYPE_HSE)
 80037ec:	687b      	ldr	r3, [r7, #4]
 80037ee:	681b      	ldr	r3, [r3, #0]
 80037f0:	2201      	movs	r2, #1
 80037f2:	4013      	ands	r3, r2
 80037f4:	d100      	bne.n	80037f8 <HAL_RCC_OscConfig+0x20>
 80037f6:	e08e      	b.n	8003916 <HAL_RCC_OscConfig+0x13e>
  {
    /* Check the parameters */
    assert_param(IS_RCC_HSE(RCC_OscInitStruct->HSEState));

    /* When the HSE is used as system clock or clock source for PLL in these cases it is not allowed to be disabled */
    if((__HAL_RCC_GET_SYSCLK_SOURCE() == RCC_SYSCLKSOURCE_STATUS_HSE) 
 80037f8:	4bc5      	ldr	r3, [pc, #788]	@ (8003b10 <HAL_RCC_OscConfig+0x338>)
 80037fa:	685b      	ldr	r3, [r3, #4]
 80037fc:	220c      	movs	r2, #12
 80037fe:	4013      	ands	r3, r2
 8003800:	2b04      	cmp	r3, #4
 8003802:	d00e      	beq.n	8003822 <HAL_RCC_OscConfig+0x4a>
       || ((__HAL_RCC_GET_SYSCLK_SOURCE() == RCC_SYSCLKSOURCE_STATUS_PLLCLK) && (__HAL_RCC_GET_PLL_OSCSOURCE() == RCC_PLLSOURCE_HSE)))
 8003804:	4bc2      	ldr	r3, [pc, #776]	@ (8003b10 <HAL_RCC_OscConfig+0x338>)
 8003806:	685b      	ldr	r3, [r3, #4]
 8003808:	220c      	movs	r2, #12
 800380a:	4013      	ands	r3, r2
 800380c:	2b08      	cmp	r3, #8
 800380e:	d117      	bne.n	8003840 <HAL_RCC_OscConfig+0x68>
 8003810:	4bbf      	ldr	r3, [pc, #764]	@ (8003b10 <HAL_RCC_OscConfig+0x338>)
 8003812:	685a      	ldr	r2, [r3, #4]
 8003814:	23c0      	movs	r3, #192	@ 0xc0
 8003816:	025b      	lsls	r3, r3, #9
 8003818:	401a      	ands	r2, r3
 800381a:	2380      	movs	r3, #128	@ 0x80
 800381c:	025b      	lsls	r3, r3, #9
 800381e:	429a      	cmp	r2, r3
 8003820:	d10e      	bne.n	8003840 <HAL_RCC_OscConfig+0x68>
    {
      if((__HAL_RCC_GET_FLAG(RCC_FLAG_HSERDY) != RESET) && (RCC_OscInitStruct->HSEState == RCC_HSE_OFF))
 8003822:	4bbb      	ldr	r3, [pc, #748]	@ (8003b10 <HAL_RCC_OscConfig+0x338>)
 8003824:	681a      	ldr	r2, [r3, #0]
 8003826:	2380      	movs	r3, #128	@ 0x80
 8003828:	029b      	lsls	r3, r3, #10
 800382a:	4013      	ands	r3, r2
 800382c:	d100      	bne.n	8003830 <HAL_RCC_OscConfig+0x58>
 800382e:	e071      	b.n	8003914 <HAL_RCC_OscConfig+0x13c>
 8003830:	687b      	ldr	r3, [r7, #4]
 8003832:	685b      	ldr	r3, [r3, #4]
 8003834:	2b00      	cmp	r3, #0
 8003836:	d000      	beq.n	800383a <HAL_RCC_OscConfig+0x62>
 8003838:	e06c      	b.n	8003914 <HAL_RCC_OscConfig+0x13c>
      {
        return HAL_ERROR;
 800383a:	2301      	movs	r3, #1
 800383c:	f000 fb4c 	bl	8003ed8 <HAL_RCC_OscConfig+0x700>
      }
    }
    else
    {
      /* Set the new HSE configuration ---------------------------------------*/
      __HAL_RCC_HSE_CONFIG(RCC_OscInitStruct->HSEState);
 8003840:	687b      	ldr	r3, [r7, #4]
 8003842:	685b      	ldr	r3, [r3, #4]
 8003844:	2b01      	cmp	r3, #1
 8003846:	d107      	bne.n	8003858 <HAL_RCC_OscConfig+0x80>
 8003848:	4bb1      	ldr	r3, [pc, #708]	@ (8003b10 <HAL_RCC_OscConfig+0x338>)
 800384a:	681a      	ldr	r2, [r3, #0]
 800384c:	4bb0      	ldr	r3, [pc, #704]	@ (8003b10 <HAL_RCC_OscConfig+0x338>)
 800384e:	2180      	movs	r1, #128	@ 0x80
 8003850:	0249      	lsls	r1, r1, #9
 8003852:	430a      	orrs	r2, r1
 8003854:	601a      	str	r2, [r3, #0]
 8003856:	e02f      	b.n	80038b8 <HAL_RCC_OscConfig+0xe0>
 8003858:	687b      	ldr	r3, [r7, #4]
 800385a:	685b      	ldr	r3, [r3, #4]
 800385c:	2b00      	cmp	r3, #0
 800385e:	d10c      	bne.n	800387a <HAL_RCC_OscConfig+0xa2>
 8003860:	4bab      	ldr	r3, [pc, #684]	@ (8003b10 <HAL_RCC_OscConfig+0x338>)
 8003862:	681a      	ldr	r2, [r3, #0]
 8003864:	4baa      	ldr	r3, [pc, #680]	@ (8003b10 <HAL_RCC_OscConfig+0x338>)
 8003866:	49ab      	ldr	r1, [pc, #684]	@ (8003b14 <HAL_RCC_OscConfig+0x33c>)
 8003868:	400a      	ands	r2, r1
 800386a:	601a      	str	r2, [r3, #0]
 800386c:	4ba8      	ldr	r3, [pc, #672]	@ (8003b10 <HAL_RCC_OscConfig+0x338>)
 800386e:	681a      	ldr	r2, [r3, #0]
 8003870:	4ba7      	ldr	r3, [pc, #668]	@ (8003b10 <HAL_RCC_OscConfig+0x338>)
 8003872:	49a9      	ldr	r1, [pc, #676]	@ (8003b18 <HAL_RCC_OscConfig+0x340>)
 8003874:	400a      	ands	r2, r1
 8003876:	601a      	str	r2, [r3, #0]
 8003878:	e01e      	b.n	80038b8 <HAL_RCC_OscConfig+0xe0>
 800387a:	687b      	ldr	r3, [r7, #4]
 800387c:	685b      	ldr	r3, [r3, #4]
 800387e:	2b05      	cmp	r3, #5
 8003880:	d10e      	bne.n	80038a0 <HAL_RCC_OscConfig+0xc8>
 8003882:	4ba3      	ldr	r3, [pc, #652]	@ (8003b10 <HAL_RCC_OscConfig+0x338>)
 8003884:	681a      	ldr	r2, [r3, #0]
 8003886:	4ba2      	ldr	r3, [pc, #648]	@ (8003b10 <HAL_RCC_OscConfig+0x338>)
 8003888:	2180      	movs	r1, #128	@ 0x80
 800388a:	02c9      	lsls	r1, r1, #11
 800388c:	430a      	orrs	r2, r1
 800388e:	601a      	str	r2, [r3, #0]
 8003890:	4b9f      	ldr	r3, [pc, #636]	@ (8003b10 <HAL_RCC_OscConfig+0x338>)
 8003892:	681a      	ldr	r2, [r3, #0]
 8003894:	4b9e      	ldr	r3, [pc, #632]	@ (8003b10 <HAL_RCC_OscConfig+0x338>)
 8003896:	2180      	movs	r1, #128	@ 0x80
 8003898:	0249      	lsls	r1, r1, #9
 800389a:	430a      	orrs	r2, r1
 800389c:	601a      	str	r2, [r3, #0]
 800389e:	e00b      	b.n	80038b8 <HAL_RCC_OscConfig+0xe0>
 80038a0:	4b9b      	ldr	r3, [pc, #620]	@ (8003b10 <HAL_RCC_OscConfig+0x338>)
 80038a2:	681a      	ldr	r2, [r3, #0]
 80038a4:	4b9a      	ldr	r3, [pc, #616]	@ (8003b10 <HAL_RCC_OscConfig+0x338>)
 80038a6:	499b      	ldr	r1, [pc, #620]	@ (8003b14 <HAL_RCC_OscConfig+0x33c>)
 80038a8:	400a      	ands	r2, r1
 80038aa:	601a      	str	r2, [r3, #0]
 80038ac:	4b98      	ldr	r3, [pc, #608]	@ (8003b10 <HAL_RCC_OscConfig+0x338>)
 80038ae:	681a      	ldr	r2, [r3, #0]
 80038b0:	4b97      	ldr	r3, [pc, #604]	@ (8003b10 <HAL_RCC_OscConfig+0x338>)
 80038b2:	4999      	ldr	r1, [pc, #612]	@ (8003b18 <HAL_RCC_OscConfig+0x340>)
 80038b4:	400a      	ands	r2, r1
 80038b6:	601a      	str	r2, [r3, #0]
      

       /* Check the HSE State */
      if(RCC_OscInitStruct->HSEState != RCC_HSE_OFF)
 80038b8:	687b      	ldr	r3, [r7, #4]
 80038ba:	685b      	ldr	r3, [r3, #4]
 80038bc:	2b00      	cmp	r3, #0
 80038be:	d014      	beq.n	80038ea <HAL_RCC_OscConfig+0x112>
      {
        /* Get Start Tick */
        tickstart = HAL_GetTick();
 80038c0:	f7fe fa2e 	bl	8001d20 <HAL_GetTick>
 80038c4:	0003      	movs	r3, r0
 80038c6:	61bb      	str	r3, [r7, #24]
        
        /* Wait till HSE is ready */
        while(__HAL_RCC_GET_FLAG(RCC_FLAG_HSERDY) == RESET)
 80038c8:	e008      	b.n	80038dc <HAL_RCC_OscConfig+0x104>
        {
          if((HAL_GetTick() - tickstart ) > HSE_TIMEOUT_VALUE)
 80038ca:	f7fe fa29 	bl	8001d20 <HAL_GetTick>
 80038ce:	0002      	movs	r2, r0
 80038d0:	69bb      	ldr	r3, [r7, #24]
 80038d2:	1ad3      	subs	r3, r2, r3
 80038d4:	2b64      	cmp	r3, #100	@ 0x64
 80038d6:	d901      	bls.n	80038dc <HAL_RCC_OscConfig+0x104>
          {
            return HAL_TIMEOUT;
 80038d8:	2303      	movs	r3, #3
 80038da:	e2fd      	b.n	8003ed8 <HAL_RCC_OscConfig+0x700>
        while(__HAL_RCC_GET_FLAG(RCC_FLAG_HSERDY) == RESET)
 80038dc:	4b8c      	ldr	r3, [pc, #560]	@ (8003b10 <HAL_RCC_OscConfig+0x338>)
 80038de:	681a      	ldr	r2, [r3, #0]
 80038e0:	2380      	movs	r3, #128	@ 0x80
 80038e2:	029b      	lsls	r3, r3, #10
 80038e4:	4013      	ands	r3, r2
 80038e6:	d0f0      	beq.n	80038ca <HAL_RCC_OscConfig+0xf2>
 80038e8:	e015      	b.n	8003916 <HAL_RCC_OscConfig+0x13e>
        }
      }
      else
      {
        /* Get Start Tick */
        tickstart = HAL_GetTick();
 80038ea:	f7fe fa19 	bl	8001d20 <HAL_GetTick>
 80038ee:	0003      	movs	r3, r0
 80038f0:	61bb      	str	r3, [r7, #24]
        
        /* Wait till HSE is disabled */
        while(__HAL_RCC_GET_FLAG(RCC_FLAG_HSERDY) != RESET)
 80038f2:	e008      	b.n	8003906 <HAL_RCC_OscConfig+0x12e>
        {
           if((HAL_GetTick() - tickstart ) > HSE_TIMEOUT_VALUE)
 80038f4:	f7fe fa14 	bl	8001d20 <HAL_GetTick>
 80038f8:	0002      	movs	r2, r0
 80038fa:	69bb      	ldr	r3, [r7, #24]
 80038fc:	1ad3      	subs	r3, r2, r3
 80038fe:	2b64      	cmp	r3, #100	@ 0x64
 8003900:	d901      	bls.n	8003906 <HAL_RCC_OscConfig+0x12e>
          {
            return HAL_TIMEOUT;
 8003902:	2303      	movs	r3, #3
 8003904:	e2e8      	b.n	8003ed8 <HAL_RCC_OscConfig+0x700>
        while(__HAL_RCC_GET_FLAG(RCC_FLAG_HSERDY) != RESET)
 8003906:	4b82      	ldr	r3, [pc, #520]	@ (8003b10 <HAL_RCC_OscConfig+0x338>)
 8003908:	681a      	ldr	r2, [r3, #0]
 800390a:	2380      	movs	r3, #128	@ 0x80
 800390c:	029b      	lsls	r3, r3, #10
 800390e:	4013      	ands	r3, r2
 8003910:	d1f0      	bne.n	80038f4 <HAL_RCC_OscConfig+0x11c>
 8003912:	e000      	b.n	8003916 <HAL_RCC_OscConfig+0x13e>
      if((__HAL_RCC_GET_FLAG(RCC_FLAG_HSERDY) != RESET) && (RCC_OscInitStruct->HSEState == RCC_HSE_OFF))
 8003914:	46c0      	nop			@ (mov r8, r8)
        }
      }
    }
  }
  /*----------------------------- HSI Configuration --------------------------*/ 
  if(((RCC_OscInitStruct->OscillatorType) & RCC_OSCILLATORTYPE_HSI) == RCC_OSCILLATORTYPE_HSI)
 8003916:	687b      	ldr	r3, [r7, #4]
 8003918:	681b      	ldr	r3, [r3, #0]
 800391a:	2202      	movs	r2, #2
 800391c:	4013      	ands	r3, r2
 800391e:	d100      	bne.n	8003922 <HAL_RCC_OscConfig+0x14a>
 8003920:	e06c      	b.n	80039fc <HAL_RCC_OscConfig+0x224>
    /* Check the parameters */
    assert_param(IS_RCC_HSI(RCC_OscInitStruct->HSIState));
    assert_param(IS_RCC_CALIBRATION_VALUE(RCC_OscInitStruct->HSICalibrationValue));
    
    /* Check if HSI is used as system clock or as PLL source when PLL is selected as system clock */ 
    if((__HAL_RCC_GET_SYSCLK_SOURCE() == RCC_SYSCLKSOURCE_STATUS_HSI) 
 8003922:	4b7b      	ldr	r3, [pc, #492]	@ (8003b10 <HAL_RCC_OscConfig+0x338>)
 8003924:	685b      	ldr	r3, [r3, #4]
 8003926:	220c      	movs	r2, #12
 8003928:	4013      	ands	r3, r2
 800392a:	d00e      	beq.n	800394a <HAL_RCC_OscConfig+0x172>
       || ((__HAL_RCC_GET_SYSCLK_SOURCE() == RCC_SYSCLKSOURCE_STATUS_PLLCLK) && (__HAL_RCC_GET_PLL_OSCSOURCE() == RCC_PLLSOURCE_HSI)))
 800392c:	4b78      	ldr	r3, [pc, #480]	@ (8003b10 <HAL_RCC_OscConfig+0x338>)
 800392e:	685b      	ldr	r3, [r3, #4]
 8003930:	220c      	movs	r2, #12
 8003932:	4013      	ands	r3, r2
 8003934:	2b08      	cmp	r3, #8
 8003936:	d11f      	bne.n	8003978 <HAL_RCC_OscConfig+0x1a0>
 8003938:	4b75      	ldr	r3, [pc, #468]	@ (8003b10 <HAL_RCC_OscConfig+0x338>)
 800393a:	685a      	ldr	r2, [r3, #4]
 800393c:	23c0      	movs	r3, #192	@ 0xc0
 800393e:	025b      	lsls	r3, r3, #9
 8003940:	401a      	ands	r2, r3
 8003942:	2380      	movs	r3, #128	@ 0x80
 8003944:	021b      	lsls	r3, r3, #8
 8003946:	429a      	cmp	r2, r3
 8003948:	d116      	bne.n	8003978 <HAL_RCC_OscConfig+0x1a0>
    {
      /* When HSI is used as system clock it will not disabled */
      if((__HAL_RCC_GET_FLAG(RCC_FLAG_HSIRDY) != RESET) && (RCC_OscInitStruct->HSIState != RCC_HSI_ON))
 800394a:	4b71      	ldr	r3, [pc, #452]	@ (8003b10 <HAL_RCC_OscConfig+0x338>)
 800394c:	681b      	ldr	r3, [r3, #0]
 800394e:	2202      	movs	r2, #2
 8003950:	4013      	ands	r3, r2
 8003952:	d005      	beq.n	8003960 <HAL_RCC_OscConfig+0x188>
 8003954:	687b      	ldr	r3, [r7, #4]
 8003956:	68db      	ldr	r3, [r3, #12]
 8003958:	2b01      	cmp	r3, #1
 800395a:	d001      	beq.n	8003960 <HAL_RCC_OscConfig+0x188>
      {
        return HAL_ERROR;
 800395c:	2301      	movs	r3, #1
 800395e:	e2bb      	b.n	8003ed8 <HAL_RCC_OscConfig+0x700>
      }
      /* Otherwise, just the calibration is allowed */
      else
      {
        /* Adjusts the Internal High Speed oscillator (HSI) calibration value.*/
        __HAL_RCC_HSI_CALIBRATIONVALUE_ADJUST(RCC_OscInitStruct->HSICalibrationValue);
 8003960:	4b6b      	ldr	r3, [pc, #428]	@ (8003b10 <HAL_RCC_OscConfig+0x338>)
 8003962:	681b      	ldr	r3, [r3, #0]
 8003964:	22f8      	movs	r2, #248	@ 0xf8
 8003966:	4393      	bics	r3, r2
 8003968:	0019      	movs	r1, r3
 800396a:	687b      	ldr	r3, [r7, #4]
 800396c:	691b      	ldr	r3, [r3, #16]
 800396e:	00da      	lsls	r2, r3, #3
 8003970:	4b67      	ldr	r3, [pc, #412]	@ (8003b10 <HAL_RCC_OscConfig+0x338>)
 8003972:	430a      	orrs	r2, r1
 8003974:	601a      	str	r2, [r3, #0]
      if((__HAL_RCC_GET_FLAG(RCC_FLAG_HSIRDY) != RESET) && (RCC_OscInitStruct->HSIState != RCC_HSI_ON))
 8003976:	e041      	b.n	80039fc <HAL_RCC_OscConfig+0x224>
      }
    }
    else
    {
      /* Check the HSI State */
      if(RCC_OscInitStruct->HSIState != RCC_HSI_OFF)
 8003978:	687b      	ldr	r3, [r7, #4]
 800397a:	68db      	ldr	r3, [r3, #12]
 800397c:	2b00      	cmp	r3, #0
 800397e:	d024      	beq.n	80039ca <HAL_RCC_OscConfig+0x1f2>
      {
       /* Enable the Internal High Speed oscillator (HSI). */
        __HAL_RCC_HSI_ENABLE();
 8003980:	4b63      	ldr	r3, [pc, #396]	@ (8003b10 <HAL_RCC_OscConfig+0x338>)
 8003982:	681a      	ldr	r2, [r3, #0]
 8003984:	4b62      	ldr	r3, [pc, #392]	@ (8003b10 <HAL_RCC_OscConfig+0x338>)
 8003986:	2101      	movs	r1, #1
 8003988:	430a      	orrs	r2, r1
 800398a:	601a      	str	r2, [r3, #0]
        
        /* Get Start Tick */
        tickstart = HAL_GetTick();
 800398c:	f7fe f9c8 	bl	8001d20 <HAL_GetTick>
 8003990:	0003      	movs	r3, r0
 8003992:	61bb      	str	r3, [r7, #24]
        
        /* Wait till HSI is ready */
        while(__HAL_RCC_GET_FLAG(RCC_FLAG_HSIRDY) == RESET)
 8003994:	e008      	b.n	80039a8 <HAL_RCC_OscConfig+0x1d0>
        {
          if((HAL_GetTick() - tickstart ) > HSI_TIMEOUT_VALUE)
 8003996:	f7fe f9c3 	bl	8001d20 <HAL_GetTick>
 800399a:	0002      	movs	r2, r0
 800399c:	69bb      	ldr	r3, [r7, #24]
 800399e:	1ad3      	subs	r3, r2, r3
 80039a0:	2b02      	cmp	r3, #2
 80039a2:	d901      	bls.n	80039a8 <HAL_RCC_OscConfig+0x1d0>
          {
            return HAL_TIMEOUT;
 80039a4:	2303      	movs	r3, #3
 80039a6:	e297      	b.n	8003ed8 <HAL_RCC_OscConfig+0x700>
        while(__HAL_RCC_GET_FLAG(RCC_FLAG_HSIRDY) == RESET)
 80039a8:	4b59      	ldr	r3, [pc, #356]	@ (8003b10 <HAL_RCC_OscConfig+0x338>)
 80039aa:	681b      	ldr	r3, [r3, #0]
 80039ac:	2202      	movs	r2, #2
 80039ae:	4013      	ands	r3, r2
 80039b0:	d0f1      	beq.n	8003996 <HAL_RCC_OscConfig+0x1be>
          }
        }
                
        /* Adjusts the Internal High Speed oscillator (HSI) calibration value.*/
        __HAL_RCC_HSI_CALIBRATIONVALUE_ADJUST(RCC_OscInitStruct->HSICalibrationValue);
 80039b2:	4b57      	ldr	r3, [pc, #348]	@ (8003b10 <HAL_RCC_OscConfig+0x338>)
 80039b4:	681b      	ldr	r3, [r3, #0]
 80039b6:	22f8      	movs	r2, #248	@ 0xf8
 80039b8:	4393      	bics	r3, r2
 80039ba:	0019      	movs	r1, r3
 80039bc:	687b      	ldr	r3, [r7, #4]
 80039be:	691b      	ldr	r3, [r3, #16]
 80039c0:	00da      	lsls	r2, r3, #3
 80039c2:	4b53      	ldr	r3, [pc, #332]	@ (8003b10 <HAL_RCC_OscConfig+0x338>)
 80039c4:	430a      	orrs	r2, r1
 80039c6:	601a      	str	r2, [r3, #0]
 80039c8:	e018      	b.n	80039fc <HAL_RCC_OscConfig+0x224>
      }
      else
      {
        /* Disable the Internal High Speed oscillator (HSI). */
        __HAL_RCC_HSI_DISABLE();
 80039ca:	4b51      	ldr	r3, [pc, #324]	@ (8003b10 <HAL_RCC_OscConfig+0x338>)
 80039cc:	681a      	ldr	r2, [r3, #0]
 80039ce:	4b50      	ldr	r3, [pc, #320]	@ (8003b10 <HAL_RCC_OscConfig+0x338>)
 80039d0:	2101      	movs	r1, #1
 80039d2:	438a      	bics	r2, r1
 80039d4:	601a      	str	r2, [r3, #0]
        
        /* Get Start Tick */
        tickstart = HAL_GetTick();
 80039d6:	f7fe f9a3 	bl	8001d20 <HAL_GetTick>
 80039da:	0003      	movs	r3, r0
 80039dc:	61bb      	str	r3, [r7, #24]
        
        /* Wait till HSI is disabled */
        while(__HAL_RCC_GET_FLAG(RCC_FLAG_HSIRDY) != RESET)
 80039de:	e008      	b.n	80039f2 <HAL_RCC_OscConfig+0x21a>
        {
          if((HAL_GetTick() - tickstart ) > HSI_TIMEOUT_VALUE)
 80039e0:	f7fe f99e 	bl	8001d20 <HAL_GetTick>
 80039e4:	0002      	movs	r2, r0
 80039e6:	69bb      	ldr	r3, [r7, #24]
 80039e8:	1ad3      	subs	r3, r2, r3
 80039ea:	2b02      	cmp	r3, #2
 80039ec:	d901      	bls.n	80039f2 <HAL_RCC_OscConfig+0x21a>
          {
            return HAL_TIMEOUT;
 80039ee:	2303      	movs	r3, #3
 80039f0:	e272      	b.n	8003ed8 <HAL_RCC_OscConfig+0x700>
        while(__HAL_RCC_GET_FLAG(RCC_FLAG_HSIRDY) != RESET)
 80039f2:	4b47      	ldr	r3, [pc, #284]	@ (8003b10 <HAL_RCC_OscConfig+0x338>)
 80039f4:	681b      	ldr	r3, [r3, #0]
 80039f6:	2202      	movs	r2, #2
 80039f8:	4013      	ands	r3, r2
 80039fa:	d1f1      	bne.n	80039e0 <HAL_RCC_OscConfig+0x208>
        }
      }
    }
  }
  /*------------------------------ LSI Configuration -------------------------*/ 
  if(((RCC_OscInitStruct->OscillatorType) & RCC_OSCILLATORTYPE_LSI) == RCC_OSCILLATORTYPE_LSI)
 80039fc:	687b      	ldr	r3, [r7, #4]
 80039fe:	681b      	ldr	r3, [r3, #0]
 8003a00:	2208      	movs	r2, #8
 8003a02:	4013      	ands	r3, r2
 8003a04:	d036      	beq.n	8003a74 <HAL_RCC_OscConfig+0x29c>
  {
    /* Check the parameters */
    assert_param(IS_RCC_LSI(RCC_OscInitStruct->LSIState));
    
    /* Check the LSI State */
    if(RCC_OscInitStruct->LSIState != RCC_LSI_OFF)
 8003a06:	687b      	ldr	r3, [r7, #4]
 8003a08:	69db      	ldr	r3, [r3, #28]
 8003a0a:	2b00      	cmp	r3, #0
 8003a0c:	d019      	beq.n	8003a42 <HAL_RCC_OscConfig+0x26a>
    {
      /* Enable the Internal Low Speed oscillator (LSI). */
      __HAL_RCC_LSI_ENABLE();
 8003a0e:	4b40      	ldr	r3, [pc, #256]	@ (8003b10 <HAL_RCC_OscConfig+0x338>)
 8003a10:	6a5a      	ldr	r2, [r3, #36]	@ 0x24
 8003a12:	4b3f      	ldr	r3, [pc, #252]	@ (8003b10 <HAL_RCC_OscConfig+0x338>)
 8003a14:	2101      	movs	r1, #1
 8003a16:	430a      	orrs	r2, r1
 8003a18:	625a      	str	r2, [r3, #36]	@ 0x24
      
      /* Get Start Tick */
      tickstart = HAL_GetTick();
 8003a1a:	f7fe f981 	bl	8001d20 <HAL_GetTick>
 8003a1e:	0003      	movs	r3, r0
 8003a20:	61bb      	str	r3, [r7, #24]
      
      /* Wait till LSI is ready */  
      while(__HAL_RCC_GET_FLAG(RCC_FLAG_LSIRDY) == RESET)
 8003a22:	e008      	b.n	8003a36 <HAL_RCC_OscConfig+0x25e>
      {
        if((HAL_GetTick() - tickstart ) > LSI_TIMEOUT_VALUE)
 8003a24:	f7fe f97c 	bl	8001d20 <HAL_GetTick>
 8003a28:	0002      	movs	r2, r0
 8003a2a:	69bb      	ldr	r3, [r7, #24]
 8003a2c:	1ad3      	subs	r3, r2, r3
 8003a2e:	2b02      	cmp	r3, #2
 8003a30:	d901      	bls.n	8003a36 <HAL_RCC_OscConfig+0x25e>
        {
          return HAL_TIMEOUT;
 8003a32:	2303      	movs	r3, #3
 8003a34:	e250      	b.n	8003ed8 <HAL_RCC_OscConfig+0x700>
      while(__HAL_RCC_GET_FLAG(RCC_FLAG_LSIRDY) == RESET)
 8003a36:	4b36      	ldr	r3, [pc, #216]	@ (8003b10 <HAL_RCC_OscConfig+0x338>)
 8003a38:	6a5b      	ldr	r3, [r3, #36]	@ 0x24
 8003a3a:	2202      	movs	r2, #2
 8003a3c:	4013      	ands	r3, r2
 8003a3e:	d0f1      	beq.n	8003a24 <HAL_RCC_OscConfig+0x24c>
 8003a40:	e018      	b.n	8003a74 <HAL_RCC_OscConfig+0x29c>
      }
    }
    else
    {
      /* Disable the Internal Low Speed oscillator (LSI). */
      __HAL_RCC_LSI_DISABLE();
 8003a42:	4b33      	ldr	r3, [pc, #204]	@ (8003b10 <HAL_RCC_OscConfig+0x338>)
 8003a44:	6a5a      	ldr	r2, [r3, #36]	@ 0x24
 8003a46:	4b32      	ldr	r3, [pc, #200]	@ (8003b10 <HAL_RCC_OscConfig+0x338>)
 8003a48:	2101      	movs	r1, #1
 8003a4a:	438a      	bics	r2, r1
 8003a4c:	625a      	str	r2, [r3, #36]	@ 0x24
      
      /* Get Start Tick */
      tickstart = HAL_GetTick();
 8003a4e:	f7fe f967 	bl	8001d20 <HAL_GetTick>
 8003a52:	0003      	movs	r3, r0
 8003a54:	61bb      	str	r3, [r7, #24]
      
      /* Wait till LSI is disabled */  
      while(__HAL_RCC_GET_FLAG(RCC_FLAG_LSIRDY) != RESET)
 8003a56:	e008      	b.n	8003a6a <HAL_RCC_OscConfig+0x292>
      {
        if((HAL_GetTick() - tickstart ) > LSI_TIMEOUT_VALUE)
 8003a58:	f7fe f962 	bl	8001d20 <HAL_GetTick>
 8003a5c:	0002      	movs	r2, r0
 8003a5e:	69bb      	ldr	r3, [r7, #24]
 8003a60:	1ad3      	subs	r3, r2, r3
 8003a62:	2b02      	cmp	r3, #2
 8003a64:	d901      	bls.n	8003a6a <HAL_RCC_OscConfig+0x292>
        {
          return HAL_TIMEOUT;
 8003a66:	2303      	movs	r3, #3
 8003a68:	e236      	b.n	8003ed8 <HAL_RCC_OscConfig+0x700>
      while(__HAL_RCC_GET_FLAG(RCC_FLAG_LSIRDY) != RESET)
 8003a6a:	4b29      	ldr	r3, [pc, #164]	@ (8003b10 <HAL_RCC_OscConfig+0x338>)
 8003a6c:	6a5b      	ldr	r3, [r3, #36]	@ 0x24
 8003a6e:	2202      	movs	r2, #2
 8003a70:	4013      	ands	r3, r2
 8003a72:	d1f1      	bne.n	8003a58 <HAL_RCC_OscConfig+0x280>
        }
      }
    }
  }
  /*------------------------------ LSE Configuration -------------------------*/ 
  if(((RCC_OscInitStruct->OscillatorType) & RCC_OSCILLATORTYPE_LSE) == RCC_OSCILLATORTYPE_LSE)
 8003a74:	687b      	ldr	r3, [r7, #4]
 8003a76:	681b      	ldr	r3, [r3, #0]
 8003a78:	2204      	movs	r2, #4
 8003a7a:	4013      	ands	r3, r2
 8003a7c:	d100      	bne.n	8003a80 <HAL_RCC_OscConfig+0x2a8>
 8003a7e:	e0b5      	b.n	8003bec <HAL_RCC_OscConfig+0x414>
  {
    FlagStatus       pwrclkchanged = RESET;
 8003a80:	201f      	movs	r0, #31
 8003a82:	183b      	adds	r3, r7, r0
 8003a84:	2200      	movs	r2, #0
 8003a86:	701a      	strb	r2, [r3, #0]
    /* Check the parameters */
    assert_param(IS_RCC_LSE(RCC_OscInitStruct->LSEState));

    /* Update LSE configuration in Backup Domain control register    */
    /* Requires to enable write access to Backup Domain of necessary */
    if(__HAL_RCC_PWR_IS_CLK_DISABLED())
 8003a88:	4b21      	ldr	r3, [pc, #132]	@ (8003b10 <HAL_RCC_OscConfig+0x338>)
 8003a8a:	69da      	ldr	r2, [r3, #28]
 8003a8c:	2380      	movs	r3, #128	@ 0x80
 8003a8e:	055b      	lsls	r3, r3, #21
 8003a90:	4013      	ands	r3, r2
 8003a92:	d110      	bne.n	8003ab6 <HAL_RCC_OscConfig+0x2de>
    {
      __HAL_RCC_PWR_CLK_ENABLE();
 8003a94:	4b1e      	ldr	r3, [pc, #120]	@ (8003b10 <HAL_RCC_OscConfig+0x338>)
 8003a96:	69da      	ldr	r2, [r3, #28]
 8003a98:	4b1d      	ldr	r3, [pc, #116]	@ (8003b10 <HAL_RCC_OscConfig+0x338>)
 8003a9a:	2180      	movs	r1, #128	@ 0x80
 8003a9c:	0549      	lsls	r1, r1, #21
 8003a9e:	430a      	orrs	r2, r1
 8003aa0:	61da      	str	r2, [r3, #28]
 8003aa2:	4b1b      	ldr	r3, [pc, #108]	@ (8003b10 <HAL_RCC_OscConfig+0x338>)
 8003aa4:	69da      	ldr	r2, [r3, #28]
 8003aa6:	2380      	movs	r3, #128	@ 0x80
 8003aa8:	055b      	lsls	r3, r3, #21
 8003aaa:	4013      	ands	r3, r2
 8003aac:	60fb      	str	r3, [r7, #12]
 8003aae:	68fb      	ldr	r3, [r7, #12]
      pwrclkchanged = SET;
 8003ab0:	183b      	adds	r3, r7, r0
 8003ab2:	2201      	movs	r2, #1
 8003ab4:	701a      	strb	r2, [r3, #0]
    }
    
    if(HAL_IS_BIT_CLR(PWR->CR, PWR_CR_DBP))
 8003ab6:	4b19      	ldr	r3, [pc, #100]	@ (8003b1c <HAL_RCC_OscConfig+0x344>)
 8003ab8:	681a      	ldr	r2, [r3, #0]
 8003aba:	2380      	movs	r3, #128	@ 0x80
 8003abc:	005b      	lsls	r3, r3, #1
 8003abe:	4013      	ands	r3, r2
 8003ac0:	d11a      	bne.n	8003af8 <HAL_RCC_OscConfig+0x320>
    {
      /* Enable write access to Backup domain */
      SET_BIT(PWR->CR, PWR_CR_DBP);
 8003ac2:	4b16      	ldr	r3, [pc, #88]	@ (8003b1c <HAL_RCC_OscConfig+0x344>)
 8003ac4:	681a      	ldr	r2, [r3, #0]
 8003ac6:	4b15      	ldr	r3, [pc, #84]	@ (8003b1c <HAL_RCC_OscConfig+0x344>)
 8003ac8:	2180      	movs	r1, #128	@ 0x80
 8003aca:	0049      	lsls	r1, r1, #1
 8003acc:	430a      	orrs	r2, r1
 8003ace:	601a      	str	r2, [r3, #0]
      
      /* Wait for Backup domain Write protection disable */
      tickstart = HAL_GetTick();
 8003ad0:	f7fe f926 	bl	8001d20 <HAL_GetTick>
 8003ad4:	0003      	movs	r3, r0
 8003ad6:	61bb      	str	r3, [r7, #24]

      while(HAL_IS_BIT_CLR(PWR->CR, PWR_CR_DBP))
 8003ad8:	e008      	b.n	8003aec <HAL_RCC_OscConfig+0x314>
      {
        if((HAL_GetTick() - tickstart) > RCC_DBP_TIMEOUT_VALUE)
 8003ada:	f7fe f921 	bl	8001d20 <HAL_GetTick>
 8003ade:	0002      	movs	r2, r0
 8003ae0:	69bb      	ldr	r3, [r7, #24]
 8003ae2:	1ad3      	subs	r3, r2, r3
 8003ae4:	2b64      	cmp	r3, #100	@ 0x64
 8003ae6:	d901      	bls.n	8003aec <HAL_RCC_OscConfig+0x314>
        {
          return HAL_TIMEOUT;
 8003ae8:	2303      	movs	r3, #3
 8003aea:	e1f5      	b.n	8003ed8 <HAL_RCC_OscConfig+0x700>
      while(HAL_IS_BIT_CLR(PWR->CR, PWR_CR_DBP))
 8003aec:	4b0b      	ldr	r3, [pc, #44]	@ (8003b1c <HAL_RCC_OscConfig+0x344>)
 8003aee:	681a      	ldr	r2, [r3, #0]
 8003af0:	2380      	movs	r3, #128	@ 0x80
 8003af2:	005b      	lsls	r3, r3, #1
 8003af4:	4013      	ands	r3, r2
 8003af6:	d0f0      	beq.n	8003ada <HAL_RCC_OscConfig+0x302>
        }
      }
    }

    /* Set the new LSE configuration -----------------------------------------*/
    __HAL_RCC_LSE_CONFIG(RCC_OscInitStruct->LSEState);
 8003af8:	687b      	ldr	r3, [r7, #4]
 8003afa:	689b      	ldr	r3, [r3, #8]
 8003afc:	2b01      	cmp	r3, #1
 8003afe:	d10f      	bne.n	8003b20 <HAL_RCC_OscConfig+0x348>
 8003b00:	4b03      	ldr	r3, [pc, #12]	@ (8003b10 <HAL_RCC_OscConfig+0x338>)
 8003b02:	6a1a      	ldr	r2, [r3, #32]
 8003b04:	4b02      	ldr	r3, [pc, #8]	@ (8003b10 <HAL_RCC_OscConfig+0x338>)
 8003b06:	2101      	movs	r1, #1
 8003b08:	430a      	orrs	r2, r1
 8003b0a:	621a      	str	r2, [r3, #32]
 8003b0c:	e036      	b.n	8003b7c <HAL_RCC_OscConfig+0x3a4>
 8003b0e:	46c0      	nop			@ (mov r8, r8)
 8003b10:	40021000 	.word	0x40021000
 8003b14:	fffeffff 	.word	0xfffeffff
 8003b18:	fffbffff 	.word	0xfffbffff
 8003b1c:	40007000 	.word	0x40007000
 8003b20:	687b      	ldr	r3, [r7, #4]
 8003b22:	689b      	ldr	r3, [r3, #8]
 8003b24:	2b00      	cmp	r3, #0
 8003b26:	d10c      	bne.n	8003b42 <HAL_RCC_OscConfig+0x36a>
 8003b28:	4bca      	ldr	r3, [pc, #808]	@ (8003e54 <HAL_RCC_OscConfig+0x67c>)
 8003b2a:	6a1a      	ldr	r2, [r3, #32]
 8003b2c:	4bc9      	ldr	r3, [pc, #804]	@ (8003e54 <HAL_RCC_OscConfig+0x67c>)
 8003b2e:	2101      	movs	r1, #1
 8003b30:	438a      	bics	r2, r1
 8003b32:	621a      	str	r2, [r3, #32]
 8003b34:	4bc7      	ldr	r3, [pc, #796]	@ (8003e54 <HAL_RCC_OscConfig+0x67c>)
 8003b36:	6a1a      	ldr	r2, [r3, #32]
 8003b38:	4bc6      	ldr	r3, [pc, #792]	@ (8003e54 <HAL_RCC_OscConfig+0x67c>)
 8003b3a:	2104      	movs	r1, #4
 8003b3c:	438a      	bics	r2, r1
 8003b3e:	621a      	str	r2, [r3, #32]
 8003b40:	e01c      	b.n	8003b7c <HAL_RCC_OscConfig+0x3a4>
 8003b42:	687b      	ldr	r3, [r7, #4]
 8003b44:	689b      	ldr	r3, [r3, #8]
 8003b46:	2b05      	cmp	r3, #5
 8003b48:	d10c      	bne.n	8003b64 <HAL_RCC_OscConfig+0x38c>
 8003b4a:	4bc2      	ldr	r3, [pc, #776]	@ (8003e54 <HAL_RCC_OscConfig+0x67c>)
 8003b4c:	6a1a      	ldr	r2, [r3, #32]
 8003b4e:	4bc1      	ldr	r3, [pc, #772]	@ (8003e54 <HAL_RCC_OscConfig+0x67c>)
 8003b50:	2104      	movs	r1, #4
 8003b52:	430a      	orrs	r2, r1
 8003b54:	621a      	str	r2, [r3, #32]
 8003b56:	4bbf      	ldr	r3, [pc, #764]	@ (8003e54 <HAL_RCC_OscConfig+0x67c>)
 8003b58:	6a1a      	ldr	r2, [r3, #32]
 8003b5a:	4bbe      	ldr	r3, [pc, #760]	@ (8003e54 <HAL_RCC_OscConfig+0x67c>)
 8003b5c:	2101      	movs	r1, #1
 8003b5e:	430a      	orrs	r2, r1
 8003b60:	621a      	str	r2, [r3, #32]
 8003b62:	e00b      	b.n	8003b7c <HAL_RCC_OscConfig+0x3a4>
 8003b64:	4bbb      	ldr	r3, [pc, #748]	@ (8003e54 <HAL_RCC_OscConfig+0x67c>)
 8003b66:	6a1a      	ldr	r2, [r3, #32]
 8003b68:	4bba      	ldr	r3, [pc, #744]	@ (8003e54 <HAL_RCC_OscConfig+0x67c>)
 8003b6a:	2101      	movs	r1, #1
 8003b6c:	438a      	bics	r2, r1
 8003b6e:	621a      	str	r2, [r3, #32]
 8003b70:	4bb8      	ldr	r3, [pc, #736]	@ (8003e54 <HAL_RCC_OscConfig+0x67c>)
 8003b72:	6a1a      	ldr	r2, [r3, #32]
 8003b74:	4bb7      	ldr	r3, [pc, #732]	@ (8003e54 <HAL_RCC_OscConfig+0x67c>)
 8003b76:	2104      	movs	r1, #4
 8003b78:	438a      	bics	r2, r1
 8003b7a:	621a      	str	r2, [r3, #32]
    /* Check the LSE State */
    if(RCC_OscInitStruct->LSEState != RCC_LSE_OFF)
 8003b7c:	687b      	ldr	r3, [r7, #4]
 8003b7e:	689b      	ldr	r3, [r3, #8]
 8003b80:	2b00      	cmp	r3, #0
 8003b82:	d014      	beq.n	8003bae <HAL_RCC_OscConfig+0x3d6>
    {
      /* Get Start Tick */
      tickstart = HAL_GetTick();
 8003b84:	f7fe f8cc 	bl	8001d20 <HAL_GetTick>
 8003b88:	0003      	movs	r3, r0
 8003b8a:	61bb      	str	r3, [r7, #24]
      
      /* Wait till LSE is ready */  
      while(__HAL_RCC_GET_FLAG(RCC_FLAG_LSERDY) == RESET)
 8003b8c:	e009      	b.n	8003ba2 <HAL_RCC_OscConfig+0x3ca>
      {
        if((HAL_GetTick() - tickstart ) > RCC_LSE_TIMEOUT_VALUE)
 8003b8e:	f7fe f8c7 	bl	8001d20 <HAL_GetTick>
 8003b92:	0002      	movs	r2, r0
 8003b94:	69bb      	ldr	r3, [r7, #24]
 8003b96:	1ad3      	subs	r3, r2, r3
 8003b98:	4aaf      	ldr	r2, [pc, #700]	@ (8003e58 <HAL_RCC_OscConfig+0x680>)
 8003b9a:	4293      	cmp	r3, r2
 8003b9c:	d901      	bls.n	8003ba2 <HAL_RCC_OscConfig+0x3ca>
        {
          return HAL_TIMEOUT;
 8003b9e:	2303      	movs	r3, #3
 8003ba0:	e19a      	b.n	8003ed8 <HAL_RCC_OscConfig+0x700>
      while(__HAL_RCC_GET_FLAG(RCC_FLAG_LSERDY) == RESET)
 8003ba2:	4bac      	ldr	r3, [pc, #688]	@ (8003e54 <HAL_RCC_OscConfig+0x67c>)
 8003ba4:	6a1b      	ldr	r3, [r3, #32]
 8003ba6:	2202      	movs	r2, #2
 8003ba8:	4013      	ands	r3, r2
 8003baa:	d0f0      	beq.n	8003b8e <HAL_RCC_OscConfig+0x3b6>
 8003bac:	e013      	b.n	8003bd6 <HAL_RCC_OscConfig+0x3fe>
      }
    }
    else
    {
      /* Get Start Tick */
      tickstart = HAL_GetTick();
 8003bae:	f7fe f8b7 	bl	8001d20 <HAL_GetTick>
 8003bb2:	0003      	movs	r3, r0
 8003bb4:	61bb      	str	r3, [r7, #24]
      
      /* Wait till LSE is disabled */  
      while(__HAL_RCC_GET_FLAG(RCC_FLAG_LSERDY) != RESET)
 8003bb6:	e009      	b.n	8003bcc <HAL_RCC_OscConfig+0x3f4>
      {
        if((HAL_GetTick() - tickstart ) > RCC_LSE_TIMEOUT_VALUE)
 8003bb8:	f7fe f8b2 	bl	8001d20 <HAL_GetTick>
 8003bbc:	0002      	movs	r2, r0
 8003bbe:	69bb      	ldr	r3, [r7, #24]
 8003bc0:	1ad3      	subs	r3, r2, r3
 8003bc2:	4aa5      	ldr	r2, [pc, #660]	@ (8003e58 <HAL_RCC_OscConfig+0x680>)
 8003bc4:	4293      	cmp	r3, r2
 8003bc6:	d901      	bls.n	8003bcc <HAL_RCC_OscConfig+0x3f4>
        {
          return HAL_TIMEOUT;
 8003bc8:	2303      	movs	r3, #3
 8003bca:	e185      	b.n	8003ed8 <HAL_RCC_OscConfig+0x700>
      while(__HAL_RCC_GET_FLAG(RCC_FLAG_LSERDY) != RESET)
 8003bcc:	4ba1      	ldr	r3, [pc, #644]	@ (8003e54 <HAL_RCC_OscConfig+0x67c>)
 8003bce:	6a1b      	ldr	r3, [r3, #32]
 8003bd0:	2202      	movs	r2, #2
 8003bd2:	4013      	ands	r3, r2
 8003bd4:	d1f0      	bne.n	8003bb8 <HAL_RCC_OscConfig+0x3e0>
        }
      }
    }

    /* Require to disable power clock if necessary */
    if(pwrclkchanged == SET)
 8003bd6:	231f      	movs	r3, #31
 8003bd8:	18fb      	adds	r3, r7, r3
 8003bda:	781b      	ldrb	r3, [r3, #0]
 8003bdc:	2b01      	cmp	r3, #1
 8003bde:	d105      	bne.n	8003bec <HAL_RCC_OscConfig+0x414>
    {
      __HAL_RCC_PWR_CLK_DISABLE();
 8003be0:	4b9c      	ldr	r3, [pc, #624]	@ (8003e54 <HAL_RCC_OscConfig+0x67c>)
 8003be2:	69da      	ldr	r2, [r3, #28]
 8003be4:	4b9b      	ldr	r3, [pc, #620]	@ (8003e54 <HAL_RCC_OscConfig+0x67c>)
 8003be6:	499d      	ldr	r1, [pc, #628]	@ (8003e5c <HAL_RCC_OscConfig+0x684>)
 8003be8:	400a      	ands	r2, r1
 8003bea:	61da      	str	r2, [r3, #28]
    }
  }

  /*----------------------------- HSI14 Configuration --------------------------*/
  if(((RCC_OscInitStruct->OscillatorType) & RCC_OSCILLATORTYPE_HSI14) == RCC_OSCILLATORTYPE_HSI14)
 8003bec:	687b      	ldr	r3, [r7, #4]
 8003bee:	681b      	ldr	r3, [r3, #0]
 8003bf0:	2210      	movs	r2, #16
 8003bf2:	4013      	ands	r3, r2
 8003bf4:	d063      	beq.n	8003cbe <HAL_RCC_OscConfig+0x4e6>
    /* Check the parameters */
    assert_param(IS_RCC_HSI14(RCC_OscInitStruct->HSI14State));
    assert_param(IS_RCC_CALIBRATION_VALUE(RCC_OscInitStruct->HSI14CalibrationValue));

    /* Check the HSI14 State */
    if(RCC_OscInitStruct->HSI14State == RCC_HSI14_ON)
 8003bf6:	687b      	ldr	r3, [r7, #4]
 8003bf8:	695b      	ldr	r3, [r3, #20]
 8003bfa:	2b01      	cmp	r3, #1
 8003bfc:	d12a      	bne.n	8003c54 <HAL_RCC_OscConfig+0x47c>
    {
      /* Disable ADC control of the Internal High Speed oscillator HSI14 */
      __HAL_RCC_HSI14ADC_DISABLE();
 8003bfe:	4b95      	ldr	r3, [pc, #596]	@ (8003e54 <HAL_RCC_OscConfig+0x67c>)
 8003c00:	6b5a      	ldr	r2, [r3, #52]	@ 0x34
 8003c02:	4b94      	ldr	r3, [pc, #592]	@ (8003e54 <HAL_RCC_OscConfig+0x67c>)
 8003c04:	2104      	movs	r1, #4
 8003c06:	430a      	orrs	r2, r1
 8003c08:	635a      	str	r2, [r3, #52]	@ 0x34

      /* Enable the Internal High Speed oscillator (HSI). */
      __HAL_RCC_HSI14_ENABLE();
 8003c0a:	4b92      	ldr	r3, [pc, #584]	@ (8003e54 <HAL_RCC_OscConfig+0x67c>)
 8003c0c:	6b5a      	ldr	r2, [r3, #52]	@ 0x34
 8003c0e:	4b91      	ldr	r3, [pc, #580]	@ (8003e54 <HAL_RCC_OscConfig+0x67c>)
 8003c10:	2101      	movs	r1, #1
 8003c12:	430a      	orrs	r2, r1
 8003c14:	635a      	str	r2, [r3, #52]	@ 0x34

      /* Get Start Tick */
      tickstart = HAL_GetTick();
 8003c16:	f7fe f883 	bl	8001d20 <HAL_GetTick>
 8003c1a:	0003      	movs	r3, r0
 8003c1c:	61bb      	str	r3, [r7, #24]
      
      /* Wait till HSI is ready */  
      while(__HAL_RCC_GET_FLAG(RCC_FLAG_HSI14RDY) == RESET)
 8003c1e:	e008      	b.n	8003c32 <HAL_RCC_OscConfig+0x45a>
      {
        if((HAL_GetTick() - tickstart) > HSI14_TIMEOUT_VALUE)
 8003c20:	f7fe f87e 	bl	8001d20 <HAL_GetTick>
 8003c24:	0002      	movs	r2, r0
 8003c26:	69bb      	ldr	r3, [r7, #24]
 8003c28:	1ad3      	subs	r3, r2, r3
 8003c2a:	2b02      	cmp	r3, #2
 8003c2c:	d901      	bls.n	8003c32 <HAL_RCC_OscConfig+0x45a>
        {
          return HAL_TIMEOUT;
 8003c2e:	2303      	movs	r3, #3
 8003c30:	e152      	b.n	8003ed8 <HAL_RCC_OscConfig+0x700>
      while(__HAL_RCC_GET_FLAG(RCC_FLAG_HSI14RDY) == RESET)
 8003c32:	4b88      	ldr	r3, [pc, #544]	@ (8003e54 <HAL_RCC_OscConfig+0x67c>)
 8003c34:	6b5b      	ldr	r3, [r3, #52]	@ 0x34
 8003c36:	2202      	movs	r2, #2
 8003c38:	4013      	ands	r3, r2
 8003c3a:	d0f1      	beq.n	8003c20 <HAL_RCC_OscConfig+0x448>
        }      
      } 

      /* Adjusts the Internal High Speed oscillator 14Mhz (HSI14) calibration value. */
      __HAL_RCC_HSI14_CALIBRATIONVALUE_ADJUST(RCC_OscInitStruct->HSI14CalibrationValue);
 8003c3c:	4b85      	ldr	r3, [pc, #532]	@ (8003e54 <HAL_RCC_OscConfig+0x67c>)
 8003c3e:	6b5b      	ldr	r3, [r3, #52]	@ 0x34
 8003c40:	22f8      	movs	r2, #248	@ 0xf8
 8003c42:	4393      	bics	r3, r2
 8003c44:	0019      	movs	r1, r3
 8003c46:	687b      	ldr	r3, [r7, #4]
 8003c48:	699b      	ldr	r3, [r3, #24]
 8003c4a:	00da      	lsls	r2, r3, #3
 8003c4c:	4b81      	ldr	r3, [pc, #516]	@ (8003e54 <HAL_RCC_OscConfig+0x67c>)
 8003c4e:	430a      	orrs	r2, r1
 8003c50:	635a      	str	r2, [r3, #52]	@ 0x34
 8003c52:	e034      	b.n	8003cbe <HAL_RCC_OscConfig+0x4e6>
    }
    else if(RCC_OscInitStruct->HSI14State == RCC_HSI14_ADC_CONTROL)
 8003c54:	687b      	ldr	r3, [r7, #4]
 8003c56:	695b      	ldr	r3, [r3, #20]
 8003c58:	3305      	adds	r3, #5
 8003c5a:	d111      	bne.n	8003c80 <HAL_RCC_OscConfig+0x4a8>
    {
      /* Enable ADC control of the Internal High Speed oscillator HSI14 */
      __HAL_RCC_HSI14ADC_ENABLE();
 8003c5c:	4b7d      	ldr	r3, [pc, #500]	@ (8003e54 <HAL_RCC_OscConfig+0x67c>)
 8003c5e:	6b5a      	ldr	r2, [r3, #52]	@ 0x34
 8003c60:	4b7c      	ldr	r3, [pc, #496]	@ (8003e54 <HAL_RCC_OscConfig+0x67c>)
 8003c62:	2104      	movs	r1, #4
 8003c64:	438a      	bics	r2, r1
 8003c66:	635a      	str	r2, [r3, #52]	@ 0x34

      /* Adjusts the Internal High Speed oscillator 14Mhz (HSI14) calibration value. */
      __HAL_RCC_HSI14_CALIBRATIONVALUE_ADJUST(RCC_OscInitStruct->HSI14CalibrationValue);
 8003c68:	4b7a      	ldr	r3, [pc, #488]	@ (8003e54 <HAL_RCC_OscConfig+0x67c>)
 8003c6a:	6b5b      	ldr	r3, [r3, #52]	@ 0x34
 8003c6c:	22f8      	movs	r2, #248	@ 0xf8
 8003c6e:	4393      	bics	r3, r2
 8003c70:	0019      	movs	r1, r3
 8003c72:	687b      	ldr	r3, [r7, #4]
 8003c74:	699b      	ldr	r3, [r3, #24]
 8003c76:	00da      	lsls	r2, r3, #3
 8003c78:	4b76      	ldr	r3, [pc, #472]	@ (8003e54 <HAL_RCC_OscConfig+0x67c>)
 8003c7a:	430a      	orrs	r2, r1
 8003c7c:	635a      	str	r2, [r3, #52]	@ 0x34
 8003c7e:	e01e      	b.n	8003cbe <HAL_RCC_OscConfig+0x4e6>
    }
    else
    {
      /* Disable ADC control of the Internal High Speed oscillator HSI14 */
      __HAL_RCC_HSI14ADC_DISABLE();
 8003c80:	4b74      	ldr	r3, [pc, #464]	@ (8003e54 <HAL_RCC_OscConfig+0x67c>)
 8003c82:	6b5a      	ldr	r2, [r3, #52]	@ 0x34
 8003c84:	4b73      	ldr	r3, [pc, #460]	@ (8003e54 <HAL_RCC_OscConfig+0x67c>)
 8003c86:	2104      	movs	r1, #4
 8003c88:	430a      	orrs	r2, r1
 8003c8a:	635a      	str	r2, [r3, #52]	@ 0x34

      /* Disable the Internal High Speed oscillator (HSI). */
      __HAL_RCC_HSI14_DISABLE();
 8003c8c:	4b71      	ldr	r3, [pc, #452]	@ (8003e54 <HAL_RCC_OscConfig+0x67c>)
 8003c8e:	6b5a      	ldr	r2, [r3, #52]	@ 0x34
 8003c90:	4b70      	ldr	r3, [pc, #448]	@ (8003e54 <HAL_RCC_OscConfig+0x67c>)
 8003c92:	2101      	movs	r1, #1
 8003c94:	438a      	bics	r2, r1
 8003c96:	635a      	str	r2, [r3, #52]	@ 0x34

      /* Get Start Tick */
      tickstart = HAL_GetTick();
 8003c98:	f7fe f842 	bl	8001d20 <HAL_GetTick>
 8003c9c:	0003      	movs	r3, r0
 8003c9e:	61bb      	str	r3, [r7, #24]
      
      /* Wait till HSI is ready */  
      while(__HAL_RCC_GET_FLAG(RCC_FLAG_HSI14RDY) != RESET)
 8003ca0:	e008      	b.n	8003cb4 <HAL_RCC_OscConfig+0x4dc>
      {
        if((HAL_GetTick() - tickstart) > HSI14_TIMEOUT_VALUE)
 8003ca2:	f7fe f83d 	bl	8001d20 <HAL_GetTick>
 8003ca6:	0002      	movs	r2, r0
 8003ca8:	69bb      	ldr	r3, [r7, #24]
 8003caa:	1ad3      	subs	r3, r2, r3
 8003cac:	2b02      	cmp	r3, #2
 8003cae:	d901      	bls.n	8003cb4 <HAL_RCC_OscConfig+0x4dc>
        {
          return HAL_TIMEOUT;
 8003cb0:	2303      	movs	r3, #3
 8003cb2:	e111      	b.n	8003ed8 <HAL_RCC_OscConfig+0x700>
      while(__HAL_RCC_GET_FLAG(RCC_FLAG_HSI14RDY) != RESET)
 8003cb4:	4b67      	ldr	r3, [pc, #412]	@ (8003e54 <HAL_RCC_OscConfig+0x67c>)
 8003cb6:	6b5b      	ldr	r3, [r3, #52]	@ 0x34
 8003cb8:	2202      	movs	r2, #2
 8003cba:	4013      	ands	r3, r2
 8003cbc:	d1f1      	bne.n	8003ca2 <HAL_RCC_OscConfig+0x4ca>
    }
  }

#if defined(RCC_HSI48_SUPPORT)
  /*----------------------------- HSI48 Configuration --------------------------*/
  if(((RCC_OscInitStruct->OscillatorType) & RCC_OSCILLATORTYPE_HSI48) == RCC_OSCILLATORTYPE_HSI48)
 8003cbe:	687b      	ldr	r3, [r7, #4]
 8003cc0:	681b      	ldr	r3, [r3, #0]
 8003cc2:	2220      	movs	r2, #32
 8003cc4:	4013      	ands	r3, r2
 8003cc6:	d05c      	beq.n	8003d82 <HAL_RCC_OscConfig+0x5aa>
  {
    /* Check the parameters */
    assert_param(IS_RCC_HSI48(RCC_OscInitStruct->HSI48State));

    /* When the HSI48 is used as system clock it is not allowed to be disabled */
    if((__HAL_RCC_GET_SYSCLK_SOURCE() == RCC_SYSCLKSOURCE_STATUS_HSI48) ||
 8003cc8:	4b62      	ldr	r3, [pc, #392]	@ (8003e54 <HAL_RCC_OscConfig+0x67c>)
 8003cca:	685b      	ldr	r3, [r3, #4]
 8003ccc:	220c      	movs	r2, #12
 8003cce:	4013      	ands	r3, r2
 8003cd0:	2b0c      	cmp	r3, #12
 8003cd2:	d00e      	beq.n	8003cf2 <HAL_RCC_OscConfig+0x51a>
       ((__HAL_RCC_GET_SYSCLK_SOURCE() == RCC_SYSCLKSOURCE_STATUS_PLLCLK) && (__HAL_RCC_GET_PLL_OSCSOURCE() == RCC_PLLSOURCE_HSI48)))
 8003cd4:	4b5f      	ldr	r3, [pc, #380]	@ (8003e54 <HAL_RCC_OscConfig+0x67c>)
 8003cd6:	685b      	ldr	r3, [r3, #4]
 8003cd8:	220c      	movs	r2, #12
 8003cda:	4013      	ands	r3, r2
    if((__HAL_RCC_GET_SYSCLK_SOURCE() == RCC_SYSCLKSOURCE_STATUS_HSI48) ||
 8003cdc:	2b08      	cmp	r3, #8
 8003cde:	d114      	bne.n	8003d0a <HAL_RCC_OscConfig+0x532>
       ((__HAL_RCC_GET_SYSCLK_SOURCE() == RCC_SYSCLKSOURCE_STATUS_PLLCLK) && (__HAL_RCC_GET_PLL_OSCSOURCE() == RCC_PLLSOURCE_HSI48)))
 8003ce0:	4b5c      	ldr	r3, [pc, #368]	@ (8003e54 <HAL_RCC_OscConfig+0x67c>)
 8003ce2:	685a      	ldr	r2, [r3, #4]
 8003ce4:	23c0      	movs	r3, #192	@ 0xc0
 8003ce6:	025b      	lsls	r3, r3, #9
 8003ce8:	401a      	ands	r2, r3
 8003cea:	23c0      	movs	r3, #192	@ 0xc0
 8003cec:	025b      	lsls	r3, r3, #9
 8003cee:	429a      	cmp	r2, r3
 8003cf0:	d10b      	bne.n	8003d0a <HAL_RCC_OscConfig+0x532>
    {
      if((__HAL_RCC_GET_FLAG(RCC_FLAG_HSI48RDY) != RESET) && (RCC_OscInitStruct->HSI48State != RCC_HSI48_ON))
 8003cf2:	4b58      	ldr	r3, [pc, #352]	@ (8003e54 <HAL_RCC_OscConfig+0x67c>)
 8003cf4:	6b5a      	ldr	r2, [r3, #52]	@ 0x34
 8003cf6:	2380      	movs	r3, #128	@ 0x80
 8003cf8:	029b      	lsls	r3, r3, #10
 8003cfa:	4013      	ands	r3, r2
 8003cfc:	d040      	beq.n	8003d80 <HAL_RCC_OscConfig+0x5a8>
 8003cfe:	687b      	ldr	r3, [r7, #4]
 8003d00:	6a1b      	ldr	r3, [r3, #32]
 8003d02:	2b01      	cmp	r3, #1
 8003d04:	d03c      	beq.n	8003d80 <HAL_RCC_OscConfig+0x5a8>
      {
        return HAL_ERROR;
 8003d06:	2301      	movs	r3, #1
 8003d08:	e0e6      	b.n	8003ed8 <HAL_RCC_OscConfig+0x700>
      }
    }
    else
    {
      /* Check the HSI48 State */
      if(RCC_OscInitStruct->HSI48State != RCC_HSI48_OFF)
 8003d0a:	687b      	ldr	r3, [r7, #4]
 8003d0c:	6a1b      	ldr	r3, [r3, #32]
 8003d0e:	2b00      	cmp	r3, #0
 8003d10:	d01b      	beq.n	8003d4a <HAL_RCC_OscConfig+0x572>
      {
        /* Enable the Internal High Speed oscillator (HSI48). */
        __HAL_RCC_HSI48_ENABLE();
 8003d12:	4b50      	ldr	r3, [pc, #320]	@ (8003e54 <HAL_RCC_OscConfig+0x67c>)
 8003d14:	6b5a      	ldr	r2, [r3, #52]	@ 0x34
 8003d16:	4b4f      	ldr	r3, [pc, #316]	@ (8003e54 <HAL_RCC_OscConfig+0x67c>)
 8003d18:	2180      	movs	r1, #128	@ 0x80
 8003d1a:	0249      	lsls	r1, r1, #9
 8003d1c:	430a      	orrs	r2, r1
 8003d1e:	635a      	str	r2, [r3, #52]	@ 0x34

        /* Get Start Tick */
        tickstart = HAL_GetTick();
 8003d20:	f7fd fffe 	bl	8001d20 <HAL_GetTick>
 8003d24:	0003      	movs	r3, r0
 8003d26:	61bb      	str	r3, [r7, #24]
      
        /* Wait till HSI48 is ready */  
        while(__HAL_RCC_GET_FLAG(RCC_FLAG_HSI48RDY) == RESET)
 8003d28:	e008      	b.n	8003d3c <HAL_RCC_OscConfig+0x564>
        {
          if((HAL_GetTick() - tickstart) > HSI48_TIMEOUT_VALUE)
 8003d2a:	f7fd fff9 	bl	8001d20 <HAL_GetTick>
 8003d2e:	0002      	movs	r2, r0
 8003d30:	69bb      	ldr	r3, [r7, #24]
 8003d32:	1ad3      	subs	r3, r2, r3
 8003d34:	2b02      	cmp	r3, #2
 8003d36:	d901      	bls.n	8003d3c <HAL_RCC_OscConfig+0x564>
          {
            return HAL_TIMEOUT;
 8003d38:	2303      	movs	r3, #3
 8003d3a:	e0cd      	b.n	8003ed8 <HAL_RCC_OscConfig+0x700>
        while(__HAL_RCC_GET_FLAG(RCC_FLAG_HSI48RDY) == RESET)
 8003d3c:	4b45      	ldr	r3, [pc, #276]	@ (8003e54 <HAL_RCC_OscConfig+0x67c>)
 8003d3e:	6b5a      	ldr	r2, [r3, #52]	@ 0x34
 8003d40:	2380      	movs	r3, #128	@ 0x80
 8003d42:	029b      	lsls	r3, r3, #10
 8003d44:	4013      	ands	r3, r2
 8003d46:	d0f0      	beq.n	8003d2a <HAL_RCC_OscConfig+0x552>
 8003d48:	e01b      	b.n	8003d82 <HAL_RCC_OscConfig+0x5aa>
        } 
      }
      else
      {
        /* Disable the Internal High Speed oscillator (HSI48). */
        __HAL_RCC_HSI48_DISABLE();
 8003d4a:	4b42      	ldr	r3, [pc, #264]	@ (8003e54 <HAL_RCC_OscConfig+0x67c>)
 8003d4c:	6b5a      	ldr	r2, [r3, #52]	@ 0x34
 8003d4e:	4b41      	ldr	r3, [pc, #260]	@ (8003e54 <HAL_RCC_OscConfig+0x67c>)
 8003d50:	4943      	ldr	r1, [pc, #268]	@ (8003e60 <HAL_RCC_OscConfig+0x688>)
 8003d52:	400a      	ands	r2, r1
 8003d54:	635a      	str	r2, [r3, #52]	@ 0x34

        /* Get Start Tick */
        tickstart = HAL_GetTick();
 8003d56:	f7fd ffe3 	bl	8001d20 <HAL_GetTick>
 8003d5a:	0003      	movs	r3, r0
 8003d5c:	61bb      	str	r3, [r7, #24]
      
        /* Wait till HSI48 is ready */  
        while(__HAL_RCC_GET_FLAG(RCC_FLAG_HSI48RDY) != RESET)
 8003d5e:	e008      	b.n	8003d72 <HAL_RCC_OscConfig+0x59a>
        {
          if((HAL_GetTick() - tickstart) > HSI48_TIMEOUT_VALUE)
 8003d60:	f7fd ffde 	bl	8001d20 <HAL_GetTick>
 8003d64:	0002      	movs	r2, r0
 8003d66:	69bb      	ldr	r3, [r7, #24]
 8003d68:	1ad3      	subs	r3, r2, r3
 8003d6a:	2b02      	cmp	r3, #2
 8003d6c:	d901      	bls.n	8003d72 <HAL_RCC_OscConfig+0x59a>
          {
            return HAL_TIMEOUT;
 8003d6e:	2303      	movs	r3, #3
 8003d70:	e0b2      	b.n	8003ed8 <HAL_RCC_OscConfig+0x700>
        while(__HAL_RCC_GET_FLAG(RCC_FLAG_HSI48RDY) != RESET)
 8003d72:	4b38      	ldr	r3, [pc, #224]	@ (8003e54 <HAL_RCC_OscConfig+0x67c>)
 8003d74:	6b5a      	ldr	r2, [r3, #52]	@ 0x34
 8003d76:	2380      	movs	r3, #128	@ 0x80
 8003d78:	029b      	lsls	r3, r3, #10
 8003d7a:	4013      	ands	r3, r2
 8003d7c:	d1f0      	bne.n	8003d60 <HAL_RCC_OscConfig+0x588>
 8003d7e:	e000      	b.n	8003d82 <HAL_RCC_OscConfig+0x5aa>
      if((__HAL_RCC_GET_FLAG(RCC_FLAG_HSI48RDY) != RESET) && (RCC_OscInitStruct->HSI48State != RCC_HSI48_ON))
 8003d80:	46c0      	nop			@ (mov r8, r8)
#endif /* RCC_HSI48_SUPPORT */
       
  /*-------------------------------- PLL Configuration -----------------------*/
  /* Check the parameters */
  assert_param(IS_RCC_PLL(RCC_OscInitStruct->PLL.PLLState));
  if ((RCC_OscInitStruct->PLL.PLLState) != RCC_PLL_NONE)
 8003d82:	687b      	ldr	r3, [r7, #4]
 8003d84:	6a5b      	ldr	r3, [r3, #36]	@ 0x24
 8003d86:	2b00      	cmp	r3, #0
 8003d88:	d100      	bne.n	8003d8c <HAL_RCC_OscConfig+0x5b4>
 8003d8a:	e0a4      	b.n	8003ed6 <HAL_RCC_OscConfig+0x6fe>
  {
    /* Check if the PLL is used as system clock or not */
    if(__HAL_RCC_GET_SYSCLK_SOURCE() != RCC_SYSCLKSOURCE_STATUS_PLLCLK)
 8003d8c:	4b31      	ldr	r3, [pc, #196]	@ (8003e54 <HAL_RCC_OscConfig+0x67c>)
 8003d8e:	685b      	ldr	r3, [r3, #4]
 8003d90:	220c      	movs	r2, #12
 8003d92:	4013      	ands	r3, r2
 8003d94:	2b08      	cmp	r3, #8
 8003d96:	d100      	bne.n	8003d9a <HAL_RCC_OscConfig+0x5c2>
 8003d98:	e078      	b.n	8003e8c <HAL_RCC_OscConfig+0x6b4>
    { 
      if((RCC_OscInitStruct->PLL.PLLState) == RCC_PLL_ON)
 8003d9a:	687b      	ldr	r3, [r7, #4]
 8003d9c:	6a5b      	ldr	r3, [r3, #36]	@ 0x24
 8003d9e:	2b02      	cmp	r3, #2
 8003da0:	d14c      	bne.n	8003e3c <HAL_RCC_OscConfig+0x664>
        assert_param(IS_RCC_PLLSOURCE(RCC_OscInitStruct->PLL.PLLSource));
        assert_param(IS_RCC_PLL_MUL(RCC_OscInitStruct->PLL.PLLMUL));
        assert_param(IS_RCC_PREDIV(RCC_OscInitStruct->PLL.PREDIV));
  
        /* Disable the main PLL. */
        __HAL_RCC_PLL_DISABLE();
 8003da2:	4b2c      	ldr	r3, [pc, #176]	@ (8003e54 <HAL_RCC_OscConfig+0x67c>)
 8003da4:	681a      	ldr	r2, [r3, #0]
 8003da6:	4b2b      	ldr	r3, [pc, #172]	@ (8003e54 <HAL_RCC_OscConfig+0x67c>)
 8003da8:	492e      	ldr	r1, [pc, #184]	@ (8003e64 <HAL_RCC_OscConfig+0x68c>)
 8003daa:	400a      	ands	r2, r1
 8003dac:	601a      	str	r2, [r3, #0]
        
        /* Get Start Tick */
        tickstart = HAL_GetTick();
 8003dae:	f7fd ffb7 	bl	8001d20 <HAL_GetTick>
 8003db2:	0003      	movs	r3, r0
 8003db4:	61bb      	str	r3, [r7, #24]
        
        /* Wait till PLL is disabled */
        while(__HAL_RCC_GET_FLAG(RCC_FLAG_PLLRDY)  != RESET)
 8003db6:	e008      	b.n	8003dca <HAL_RCC_OscConfig+0x5f2>
        {
          if((HAL_GetTick() - tickstart ) > PLL_TIMEOUT_VALUE)
 8003db8:	f7fd ffb2 	bl	8001d20 <HAL_GetTick>
 8003dbc:	0002      	movs	r2, r0
 8003dbe:	69bb      	ldr	r3, [r7, #24]
 8003dc0:	1ad3      	subs	r3, r2, r3
 8003dc2:	2b02      	cmp	r3, #2
 8003dc4:	d901      	bls.n	8003dca <HAL_RCC_OscConfig+0x5f2>
          {
            return HAL_TIMEOUT;
 8003dc6:	2303      	movs	r3, #3
 8003dc8:	e086      	b.n	8003ed8 <HAL_RCC_OscConfig+0x700>
        while(__HAL_RCC_GET_FLAG(RCC_FLAG_PLLRDY)  != RESET)
 8003dca:	4b22      	ldr	r3, [pc, #136]	@ (8003e54 <HAL_RCC_OscConfig+0x67c>)
 8003dcc:	681a      	ldr	r2, [r3, #0]
 8003dce:	2380      	movs	r3, #128	@ 0x80
 8003dd0:	049b      	lsls	r3, r3, #18
 8003dd2:	4013      	ands	r3, r2
 8003dd4:	d1f0      	bne.n	8003db8 <HAL_RCC_OscConfig+0x5e0>
          }
        }

        /* Configure the main PLL clock source, predivider and multiplication factor. */
        __HAL_RCC_PLL_CONFIG(RCC_OscInitStruct->PLL.PLLSource,
 8003dd6:	4b1f      	ldr	r3, [pc, #124]	@ (8003e54 <HAL_RCC_OscConfig+0x67c>)
 8003dd8:	6adb      	ldr	r3, [r3, #44]	@ 0x2c
 8003dda:	220f      	movs	r2, #15
 8003ddc:	4393      	bics	r3, r2
 8003dde:	0019      	movs	r1, r3
 8003de0:	687b      	ldr	r3, [r7, #4]
 8003de2:	6b1a      	ldr	r2, [r3, #48]	@ 0x30
 8003de4:	4b1b      	ldr	r3, [pc, #108]	@ (8003e54 <HAL_RCC_OscConfig+0x67c>)
 8003de6:	430a      	orrs	r2, r1
 8003de8:	62da      	str	r2, [r3, #44]	@ 0x2c
 8003dea:	4b1a      	ldr	r3, [pc, #104]	@ (8003e54 <HAL_RCC_OscConfig+0x67c>)
 8003dec:	685b      	ldr	r3, [r3, #4]
 8003dee:	4a1e      	ldr	r2, [pc, #120]	@ (8003e68 <HAL_RCC_OscConfig+0x690>)
 8003df0:	4013      	ands	r3, r2
 8003df2:	0019      	movs	r1, r3
 8003df4:	687b      	ldr	r3, [r7, #4]
 8003df6:	6ada      	ldr	r2, [r3, #44]	@ 0x2c
 8003df8:	687b      	ldr	r3, [r7, #4]
 8003dfa:	6a9b      	ldr	r3, [r3, #40]	@ 0x28
 8003dfc:	431a      	orrs	r2, r3
 8003dfe:	4b15      	ldr	r3, [pc, #84]	@ (8003e54 <HAL_RCC_OscConfig+0x67c>)
 8003e00:	430a      	orrs	r2, r1
 8003e02:	605a      	str	r2, [r3, #4]
                             RCC_OscInitStruct->PLL.PREDIV,
                             RCC_OscInitStruct->PLL.PLLMUL);
        /* Enable the main PLL. */
        __HAL_RCC_PLL_ENABLE();
 8003e04:	4b13      	ldr	r3, [pc, #76]	@ (8003e54 <HAL_RCC_OscConfig+0x67c>)
 8003e06:	681a      	ldr	r2, [r3, #0]
 8003e08:	4b12      	ldr	r3, [pc, #72]	@ (8003e54 <HAL_RCC_OscConfig+0x67c>)
 8003e0a:	2180      	movs	r1, #128	@ 0x80
 8003e0c:	0449      	lsls	r1, r1, #17
 8003e0e:	430a      	orrs	r2, r1
 8003e10:	601a      	str	r2, [r3, #0]
        
        /* Get Start Tick */
        tickstart = HAL_GetTick();
 8003e12:	f7fd ff85 	bl	8001d20 <HAL_GetTick>
 8003e16:	0003      	movs	r3, r0
 8003e18:	61bb      	str	r3, [r7, #24]
        
        /* Wait till PLL is ready */
        while(__HAL_RCC_GET_FLAG(RCC_FLAG_PLLRDY)  == RESET)
 8003e1a:	e008      	b.n	8003e2e <HAL_RCC_OscConfig+0x656>
        {
          if((HAL_GetTick() - tickstart ) > PLL_TIMEOUT_VALUE)
 8003e1c:	f7fd ff80 	bl	8001d20 <HAL_GetTick>
 8003e20:	0002      	movs	r2, r0
 8003e22:	69bb      	ldr	r3, [r7, #24]
 8003e24:	1ad3      	subs	r3, r2, r3
 8003e26:	2b02      	cmp	r3, #2
 8003e28:	d901      	bls.n	8003e2e <HAL_RCC_OscConfig+0x656>
          {
            return HAL_TIMEOUT;
 8003e2a:	2303      	movs	r3, #3
 8003e2c:	e054      	b.n	8003ed8 <HAL_RCC_OscConfig+0x700>
        while(__HAL_RCC_GET_FLAG(RCC_FLAG_PLLRDY)  == RESET)
 8003e2e:	4b09      	ldr	r3, [pc, #36]	@ (8003e54 <HAL_RCC_OscConfig+0x67c>)
 8003e30:	681a      	ldr	r2, [r3, #0]
 8003e32:	2380      	movs	r3, #128	@ 0x80
 8003e34:	049b      	lsls	r3, r3, #18
 8003e36:	4013      	ands	r3, r2
 8003e38:	d0f0      	beq.n	8003e1c <HAL_RCC_OscConfig+0x644>
 8003e3a:	e04c      	b.n	8003ed6 <HAL_RCC_OscConfig+0x6fe>
        }
      }
      else
      {
        /* Disable the main PLL. */
        __HAL_RCC_PLL_DISABLE();
 8003e3c:	4b05      	ldr	r3, [pc, #20]	@ (8003e54 <HAL_RCC_OscConfig+0x67c>)
 8003e3e:	681a      	ldr	r2, [r3, #0]
 8003e40:	4b04      	ldr	r3, [pc, #16]	@ (8003e54 <HAL_RCC_OscConfig+0x67c>)
 8003e42:	4908      	ldr	r1, [pc, #32]	@ (8003e64 <HAL_RCC_OscConfig+0x68c>)
 8003e44:	400a      	ands	r2, r1
 8003e46:	601a      	str	r2, [r3, #0]
 
        /* Get Start Tick */
        tickstart = HAL_GetTick();
 8003e48:	f7fd ff6a 	bl	8001d20 <HAL_GetTick>
 8003e4c:	0003      	movs	r3, r0
 8003e4e:	61bb      	str	r3, [r7, #24]
        
        /* Wait till PLL is disabled */  
        while(__HAL_RCC_GET_FLAG(RCC_FLAG_PLLRDY)  != RESET)
 8003e50:	e015      	b.n	8003e7e <HAL_RCC_OscConfig+0x6a6>
 8003e52:	46c0      	nop			@ (mov r8, r8)
 8003e54:	40021000 	.word	0x40021000
 8003e58:	00001388 	.word	0x00001388
 8003e5c:	efffffff 	.word	0xefffffff
 8003e60:	fffeffff 	.word	0xfffeffff
 8003e64:	feffffff 	.word	0xfeffffff
 8003e68:	ffc27fff 	.word	0xffc27fff
        {
          if((HAL_GetTick() - tickstart ) > PLL_TIMEOUT_VALUE)
 8003e6c:	f7fd ff58 	bl	8001d20 <HAL_GetTick>
 8003e70:	0002      	movs	r2, r0
 8003e72:	69bb      	ldr	r3, [r7, #24]
 8003e74:	1ad3      	subs	r3, r2, r3
 8003e76:	2b02      	cmp	r3, #2
 8003e78:	d901      	bls.n	8003e7e <HAL_RCC_OscConfig+0x6a6>
          {
            return HAL_TIMEOUT;
 8003e7a:	2303      	movs	r3, #3
 8003e7c:	e02c      	b.n	8003ed8 <HAL_RCC_OscConfig+0x700>
        while(__HAL_RCC_GET_FLAG(RCC_FLAG_PLLRDY)  != RESET)
 8003e7e:	4b18      	ldr	r3, [pc, #96]	@ (8003ee0 <HAL_RCC_OscConfig+0x708>)
 8003e80:	681a      	ldr	r2, [r3, #0]
 8003e82:	2380      	movs	r3, #128	@ 0x80
 8003e84:	049b      	lsls	r3, r3, #18
 8003e86:	4013      	ands	r3, r2
 8003e88:	d1f0      	bne.n	8003e6c <HAL_RCC_OscConfig+0x694>
 8003e8a:	e024      	b.n	8003ed6 <HAL_RCC_OscConfig+0x6fe>
      }
    }
    else
    {
      /* Check if there is a request to disable the PLL used as System clock source */
      if((RCC_OscInitStruct->PLL.PLLState) == RCC_PLL_OFF)
 8003e8c:	687b      	ldr	r3, [r7, #4]
 8003e8e:	6a5b      	ldr	r3, [r3, #36]	@ 0x24
 8003e90:	2b01      	cmp	r3, #1
 8003e92:	d101      	bne.n	8003e98 <HAL_RCC_OscConfig+0x6c0>
      {
        return HAL_ERROR;
 8003e94:	2301      	movs	r3, #1
 8003e96:	e01f      	b.n	8003ed8 <HAL_RCC_OscConfig+0x700>
      }
      else
      {
        /* Do not return HAL_ERROR if request repeats the current configuration */
        pll_config  = RCC->CFGR;
 8003e98:	4b11      	ldr	r3, [pc, #68]	@ (8003ee0 <HAL_RCC_OscConfig+0x708>)
 8003e9a:	685b      	ldr	r3, [r3, #4]
 8003e9c:	617b      	str	r3, [r7, #20]
        pll_config2 = RCC->CFGR2;
 8003e9e:	4b10      	ldr	r3, [pc, #64]	@ (8003ee0 <HAL_RCC_OscConfig+0x708>)
 8003ea0:	6adb      	ldr	r3, [r3, #44]	@ 0x2c
 8003ea2:	613b      	str	r3, [r7, #16]
        if((READ_BIT(pll_config,  RCC_CFGR_PLLSRC)  != RCC_OscInitStruct->PLL.PLLSource) ||
 8003ea4:	697a      	ldr	r2, [r7, #20]
 8003ea6:	23c0      	movs	r3, #192	@ 0xc0
 8003ea8:	025b      	lsls	r3, r3, #9
 8003eaa:	401a      	ands	r2, r3
 8003eac:	687b      	ldr	r3, [r7, #4]
 8003eae:	6a9b      	ldr	r3, [r3, #40]	@ 0x28
 8003eb0:	429a      	cmp	r2, r3
 8003eb2:	d10e      	bne.n	8003ed2 <HAL_RCC_OscConfig+0x6fa>
           (READ_BIT(pll_config2, RCC_CFGR2_PREDIV) != RCC_OscInitStruct->PLL.PREDIV)    ||
 8003eb4:	693b      	ldr	r3, [r7, #16]
 8003eb6:	220f      	movs	r2, #15
 8003eb8:	401a      	ands	r2, r3
 8003eba:	687b      	ldr	r3, [r7, #4]
 8003ebc:	6b1b      	ldr	r3, [r3, #48]	@ 0x30
        if((READ_BIT(pll_config,  RCC_CFGR_PLLSRC)  != RCC_OscInitStruct->PLL.PLLSource) ||
 8003ebe:	429a      	cmp	r2, r3
 8003ec0:	d107      	bne.n	8003ed2 <HAL_RCC_OscConfig+0x6fa>
           (READ_BIT(pll_config,  RCC_CFGR_PLLMUL)  != RCC_OscInitStruct->PLL.PLLMUL))
 8003ec2:	697a      	ldr	r2, [r7, #20]
 8003ec4:	23f0      	movs	r3, #240	@ 0xf0
 8003ec6:	039b      	lsls	r3, r3, #14
 8003ec8:	401a      	ands	r2, r3
 8003eca:	687b      	ldr	r3, [r7, #4]
 8003ecc:	6adb      	ldr	r3, [r3, #44]	@ 0x2c
           (READ_BIT(pll_config2, RCC_CFGR2_PREDIV) != RCC_OscInitStruct->PLL.PREDIV)    ||
 8003ece:	429a      	cmp	r2, r3
 8003ed0:	d001      	beq.n	8003ed6 <HAL_RCC_OscConfig+0x6fe>
        {
          return HAL_ERROR;
 8003ed2:	2301      	movs	r3, #1
 8003ed4:	e000      	b.n	8003ed8 <HAL_RCC_OscConfig+0x700>
        }
      }
    }
  }

  return HAL_OK;
 8003ed6:	2300      	movs	r3, #0
}
 8003ed8:	0018      	movs	r0, r3
 8003eda:	46bd      	mov	sp, r7
 8003edc:	b008      	add	sp, #32
 8003ede:	bd80      	pop	{r7, pc}
 8003ee0:	40021000 	.word	0x40021000

08003ee4 <HAL_RCC_ClockConfig>:
  *         You can use @ref HAL_RCC_GetClockConfig() function to know which clock is
  *         currently used as system clock source.
  * @retval HAL status
  */
HAL_StatusTypeDef HAL_RCC_ClockConfig(RCC_ClkInitTypeDef  *RCC_ClkInitStruct, uint32_t FLatency)
{
 8003ee4:	b580      	push	{r7, lr}
 8003ee6:	b084      	sub	sp, #16
 8003ee8:	af00      	add	r7, sp, #0
 8003eea:	6078      	str	r0, [r7, #4]
 8003eec:	6039      	str	r1, [r7, #0]
  uint32_t tickstart;

  /* Check Null pointer */
  if(RCC_ClkInitStruct == NULL)
 8003eee:	687b      	ldr	r3, [r7, #4]
 8003ef0:	2b00      	cmp	r3, #0
 8003ef2:	d101      	bne.n	8003ef8 <HAL_RCC_ClockConfig+0x14>
  {
    return HAL_ERROR;
 8003ef4:	2301      	movs	r3, #1
 8003ef6:	e0bf      	b.n	8004078 <HAL_RCC_ClockConfig+0x194>
  /* To correctly read data from FLASH memory, the number of wait states (LATENCY) 
  must be correctly programmed according to the frequency of the CPU clock 
    (HCLK) of the device. */

  /* Increasing the number of wait states because of higher CPU frequency */
  if(FLatency > __HAL_FLASH_GET_LATENCY())
 8003ef8:	4b61      	ldr	r3, [pc, #388]	@ (8004080 <HAL_RCC_ClockConfig+0x19c>)
 8003efa:	681b      	ldr	r3, [r3, #0]
 8003efc:	2201      	movs	r2, #1
 8003efe:	4013      	ands	r3, r2
 8003f00:	683a      	ldr	r2, [r7, #0]
 8003f02:	429a      	cmp	r2, r3
 8003f04:	d911      	bls.n	8003f2a <HAL_RCC_ClockConfig+0x46>
  {    
    /* Program the new number of wait states to the LATENCY bits in the FLASH_ACR register */
    __HAL_FLASH_SET_LATENCY(FLatency);
 8003f06:	4b5e      	ldr	r3, [pc, #376]	@ (8004080 <HAL_RCC_ClockConfig+0x19c>)
 8003f08:	681b      	ldr	r3, [r3, #0]
 8003f0a:	2201      	movs	r2, #1
 8003f0c:	4393      	bics	r3, r2
 8003f0e:	0019      	movs	r1, r3
 8003f10:	4b5b      	ldr	r3, [pc, #364]	@ (8004080 <HAL_RCC_ClockConfig+0x19c>)
 8003f12:	683a      	ldr	r2, [r7, #0]
 8003f14:	430a      	orrs	r2, r1
 8003f16:	601a      	str	r2, [r3, #0]
    
    /* Check that the new number of wait states is taken into account to access the Flash
    memory by reading the FLASH_ACR register */
    if(__HAL_FLASH_GET_LATENCY() != FLatency)
 8003f18:	4b59      	ldr	r3, [pc, #356]	@ (8004080 <HAL_RCC_ClockConfig+0x19c>)
 8003f1a:	681b      	ldr	r3, [r3, #0]
 8003f1c:	2201      	movs	r2, #1
 8003f1e:	4013      	ands	r3, r2
 8003f20:	683a      	ldr	r2, [r7, #0]
 8003f22:	429a      	cmp	r2, r3
 8003f24:	d001      	beq.n	8003f2a <HAL_RCC_ClockConfig+0x46>
    {
      return HAL_ERROR;
 8003f26:	2301      	movs	r3, #1
 8003f28:	e0a6      	b.n	8004078 <HAL_RCC_ClockConfig+0x194>
    }
  }

  /*-------------------------- HCLK Configuration --------------------------*/
  if(((RCC_ClkInitStruct->ClockType) & RCC_CLOCKTYPE_HCLK) == RCC_CLOCKTYPE_HCLK)
 8003f2a:	687b      	ldr	r3, [r7, #4]
 8003f2c:	681b      	ldr	r3, [r3, #0]
 8003f2e:	2202      	movs	r2, #2
 8003f30:	4013      	ands	r3, r2
 8003f32:	d015      	beq.n	8003f60 <HAL_RCC_ClockConfig+0x7c>
  {
    /* Set the highest APB divider in order to ensure that we do not go through
       a non-spec phase whatever we decrease or increase HCLK. */
    if(((RCC_ClkInitStruct->ClockType) & RCC_CLOCKTYPE_PCLK1) == RCC_CLOCKTYPE_PCLK1)
 8003f34:	687b      	ldr	r3, [r7, #4]
 8003f36:	681b      	ldr	r3, [r3, #0]
 8003f38:	2204      	movs	r2, #4
 8003f3a:	4013      	ands	r3, r2
 8003f3c:	d006      	beq.n	8003f4c <HAL_RCC_ClockConfig+0x68>
    {
      MODIFY_REG(RCC->CFGR, RCC_CFGR_PPRE, RCC_HCLK_DIV16);
 8003f3e:	4b51      	ldr	r3, [pc, #324]	@ (8004084 <HAL_RCC_ClockConfig+0x1a0>)
 8003f40:	685a      	ldr	r2, [r3, #4]
 8003f42:	4b50      	ldr	r3, [pc, #320]	@ (8004084 <HAL_RCC_ClockConfig+0x1a0>)
 8003f44:	21e0      	movs	r1, #224	@ 0xe0
 8003f46:	00c9      	lsls	r1, r1, #3
 8003f48:	430a      	orrs	r2, r1
 8003f4a:	605a      	str	r2, [r3, #4]
    }

    /* Set the new HCLK clock divider */
    assert_param(IS_RCC_HCLK(RCC_ClkInitStruct->AHBCLKDivider));
    MODIFY_REG(RCC->CFGR, RCC_CFGR_HPRE, RCC_ClkInitStruct->AHBCLKDivider);
 8003f4c:	4b4d      	ldr	r3, [pc, #308]	@ (8004084 <HAL_RCC_ClockConfig+0x1a0>)
 8003f4e:	685b      	ldr	r3, [r3, #4]
 8003f50:	22f0      	movs	r2, #240	@ 0xf0
 8003f52:	4393      	bics	r3, r2
 8003f54:	0019      	movs	r1, r3
 8003f56:	687b      	ldr	r3, [r7, #4]
 8003f58:	689a      	ldr	r2, [r3, #8]
 8003f5a:	4b4a      	ldr	r3, [pc, #296]	@ (8004084 <HAL_RCC_ClockConfig+0x1a0>)
 8003f5c:	430a      	orrs	r2, r1
 8003f5e:	605a      	str	r2, [r3, #4]
  }

  /*------------------------- SYSCLK Configuration ---------------------------*/ 
  if(((RCC_ClkInitStruct->ClockType) & RCC_CLOCKTYPE_SYSCLK) == RCC_CLOCKTYPE_SYSCLK)
 8003f60:	687b      	ldr	r3, [r7, #4]
 8003f62:	681b      	ldr	r3, [r3, #0]
 8003f64:	2201      	movs	r2, #1
 8003f66:	4013      	ands	r3, r2
 8003f68:	d04c      	beq.n	8004004 <HAL_RCC_ClockConfig+0x120>
  {
    assert_param(IS_RCC_SYSCLKSOURCE(RCC_ClkInitStruct->SYSCLKSource));
    
    /* HSE is selected as System Clock Source */
    if(RCC_ClkInitStruct->SYSCLKSource == RCC_SYSCLKSOURCE_HSE)
 8003f6a:	687b      	ldr	r3, [r7, #4]
 8003f6c:	685b      	ldr	r3, [r3, #4]
 8003f6e:	2b01      	cmp	r3, #1
 8003f70:	d107      	bne.n	8003f82 <HAL_RCC_ClockConfig+0x9e>
    {
      /* Check the HSE ready flag */  
      if(__HAL_RCC_GET_FLAG(RCC_FLAG_HSERDY) == RESET)
 8003f72:	4b44      	ldr	r3, [pc, #272]	@ (8004084 <HAL_RCC_ClockConfig+0x1a0>)
 8003f74:	681a      	ldr	r2, [r3, #0]
 8003f76:	2380      	movs	r3, #128	@ 0x80
 8003f78:	029b      	lsls	r3, r3, #10
 8003f7a:	4013      	ands	r3, r2
 8003f7c:	d120      	bne.n	8003fc0 <HAL_RCC_ClockConfig+0xdc>
      {
        return HAL_ERROR;
 8003f7e:	2301      	movs	r3, #1
 8003f80:	e07a      	b.n	8004078 <HAL_RCC_ClockConfig+0x194>
      }
    }
    /* PLL is selected as System Clock Source */
    else if(RCC_ClkInitStruct->SYSCLKSource == RCC_SYSCLKSOURCE_PLLCLK)
 8003f82:	687b      	ldr	r3, [r7, #4]
 8003f84:	685b      	ldr	r3, [r3, #4]
 8003f86:	2b02      	cmp	r3, #2
 8003f88:	d107      	bne.n	8003f9a <HAL_RCC_ClockConfig+0xb6>
    {
      /* Check the PLL ready flag */  
      if(__HAL_RCC_GET_FLAG(RCC_FLAG_PLLRDY) == RESET)
 8003f8a:	4b3e      	ldr	r3, [pc, #248]	@ (8004084 <HAL_RCC_ClockConfig+0x1a0>)
 8003f8c:	681a      	ldr	r2, [r3, #0]
 8003f8e:	2380      	movs	r3, #128	@ 0x80
 8003f90:	049b      	lsls	r3, r3, #18
 8003f92:	4013      	ands	r3, r2
 8003f94:	d114      	bne.n	8003fc0 <HAL_RCC_ClockConfig+0xdc>
      {
        return HAL_ERROR;
 8003f96:	2301      	movs	r3, #1
 8003f98:	e06e      	b.n	8004078 <HAL_RCC_ClockConfig+0x194>
      }
    }
#if defined(RCC_CFGR_SWS_HSI48)
    /* HSI48 is selected as System Clock Source */
    else if(RCC_ClkInitStruct->SYSCLKSource == RCC_SYSCLKSOURCE_HSI48)
 8003f9a:	687b      	ldr	r3, [r7, #4]
 8003f9c:	685b      	ldr	r3, [r3, #4]
 8003f9e:	2b03      	cmp	r3, #3
 8003fa0:	d107      	bne.n	8003fb2 <HAL_RCC_ClockConfig+0xce>
    {
      /* Check the HSI48 ready flag */
      if(__HAL_RCC_GET_FLAG(RCC_FLAG_HSI48RDY) == RESET)
 8003fa2:	4b38      	ldr	r3, [pc, #224]	@ (8004084 <HAL_RCC_ClockConfig+0x1a0>)
 8003fa4:	6b5a      	ldr	r2, [r3, #52]	@ 0x34
 8003fa6:	2380      	movs	r3, #128	@ 0x80
 8003fa8:	029b      	lsls	r3, r3, #10
 8003faa:	4013      	ands	r3, r2
 8003fac:	d108      	bne.n	8003fc0 <HAL_RCC_ClockConfig+0xdc>
      {
        return HAL_ERROR;
 8003fae:	2301      	movs	r3, #1
 8003fb0:	e062      	b.n	8004078 <HAL_RCC_ClockConfig+0x194>
#endif /* RCC_CFGR_SWS_HSI48 */
    /* HSI is selected as System Clock Source */
    else
    {
      /* Check the HSI ready flag */  
      if(__HAL_RCC_GET_FLAG(RCC_FLAG_HSIRDY) == RESET)
 8003fb2:	4b34      	ldr	r3, [pc, #208]	@ (8004084 <HAL_RCC_ClockConfig+0x1a0>)
 8003fb4:	681b      	ldr	r3, [r3, #0]
 8003fb6:	2202      	movs	r2, #2
 8003fb8:	4013      	ands	r3, r2
 8003fba:	d101      	bne.n	8003fc0 <HAL_RCC_ClockConfig+0xdc>
      {
        return HAL_ERROR;
 8003fbc:	2301      	movs	r3, #1
 8003fbe:	e05b      	b.n	8004078 <HAL_RCC_ClockConfig+0x194>
      }
    }
    __HAL_RCC_SYSCLK_CONFIG(RCC_ClkInitStruct->SYSCLKSource);
 8003fc0:	4b30      	ldr	r3, [pc, #192]	@ (8004084 <HAL_RCC_ClockConfig+0x1a0>)
 8003fc2:	685b      	ldr	r3, [r3, #4]
 8003fc4:	2203      	movs	r2, #3
 8003fc6:	4393      	bics	r3, r2
 8003fc8:	0019      	movs	r1, r3
 8003fca:	687b      	ldr	r3, [r7, #4]
 8003fcc:	685a      	ldr	r2, [r3, #4]
 8003fce:	4b2d      	ldr	r3, [pc, #180]	@ (8004084 <HAL_RCC_ClockConfig+0x1a0>)
 8003fd0:	430a      	orrs	r2, r1
 8003fd2:	605a      	str	r2, [r3, #4]

    /* Get Start Tick */
    tickstart = HAL_GetTick();
 8003fd4:	f7fd fea4 	bl	8001d20 <HAL_GetTick>
 8003fd8:	0003      	movs	r3, r0
 8003fda:	60fb      	str	r3, [r7, #12]
    
    while (__HAL_RCC_GET_SYSCLK_SOURCE() != (RCC_ClkInitStruct->SYSCLKSource << RCC_CFGR_SWS_Pos))
 8003fdc:	e009      	b.n	8003ff2 <HAL_RCC_ClockConfig+0x10e>
    {
      if((HAL_GetTick() - tickstart ) > CLOCKSWITCH_TIMEOUT_VALUE)
 8003fde:	f7fd fe9f 	bl	8001d20 <HAL_GetTick>
 8003fe2:	0002      	movs	r2, r0
 8003fe4:	68fb      	ldr	r3, [r7, #12]
 8003fe6:	1ad3      	subs	r3, r2, r3
 8003fe8:	4a27      	ldr	r2, [pc, #156]	@ (8004088 <HAL_RCC_ClockConfig+0x1a4>)
 8003fea:	4293      	cmp	r3, r2
 8003fec:	d901      	bls.n	8003ff2 <HAL_RCC_ClockConfig+0x10e>
      {
        return HAL_TIMEOUT;
 8003fee:	2303      	movs	r3, #3
 8003ff0:	e042      	b.n	8004078 <HAL_RCC_ClockConfig+0x194>
    while (__HAL_RCC_GET_SYSCLK_SOURCE() != (RCC_ClkInitStruct->SYSCLKSource << RCC_CFGR_SWS_Pos))
 8003ff2:	4b24      	ldr	r3, [pc, #144]	@ (8004084 <HAL_RCC_ClockConfig+0x1a0>)
 8003ff4:	685b      	ldr	r3, [r3, #4]
 8003ff6:	220c      	movs	r2, #12
 8003ff8:	401a      	ands	r2, r3
 8003ffa:	687b      	ldr	r3, [r7, #4]
 8003ffc:	685b      	ldr	r3, [r3, #4]
 8003ffe:	009b      	lsls	r3, r3, #2
 8004000:	429a      	cmp	r2, r3
 8004002:	d1ec      	bne.n	8003fde <HAL_RCC_ClockConfig+0xfa>
      }
    }
  }

  /* Decreasing the number of wait states because of lower CPU frequency */
  if(FLatency < __HAL_FLASH_GET_LATENCY())
 8004004:	4b1e      	ldr	r3, [pc, #120]	@ (8004080 <HAL_RCC_ClockConfig+0x19c>)
 8004006:	681b      	ldr	r3, [r3, #0]
 8004008:	2201      	movs	r2, #1
 800400a:	4013      	ands	r3, r2
 800400c:	683a      	ldr	r2, [r7, #0]
 800400e:	429a      	cmp	r2, r3
 8004010:	d211      	bcs.n	8004036 <HAL_RCC_ClockConfig+0x152>
  {    
    /* Program the new number of wait states to the LATENCY bits in the FLASH_ACR register */
    __HAL_FLASH_SET_LATENCY(FLatency);
 8004012:	4b1b      	ldr	r3, [pc, #108]	@ (8004080 <HAL_RCC_ClockConfig+0x19c>)
 8004014:	681b      	ldr	r3, [r3, #0]
 8004016:	2201      	movs	r2, #1
 8004018:	4393      	bics	r3, r2
 800401a:	0019      	movs	r1, r3
 800401c:	4b18      	ldr	r3, [pc, #96]	@ (8004080 <HAL_RCC_ClockConfig+0x19c>)
 800401e:	683a      	ldr	r2, [r7, #0]
 8004020:	430a      	orrs	r2, r1
 8004022:	601a      	str	r2, [r3, #0]
    
    /* Check that the new number of wait states is taken into account to access the Flash
    memory by reading the FLASH_ACR register */
    if(__HAL_FLASH_GET_LATENCY() != FLatency)
 8004024:	4b16      	ldr	r3, [pc, #88]	@ (8004080 <HAL_RCC_ClockConfig+0x19c>)
 8004026:	681b      	ldr	r3, [r3, #0]
 8004028:	2201      	movs	r2, #1
 800402a:	4013      	ands	r3, r2
 800402c:	683a      	ldr	r2, [r7, #0]
 800402e:	429a      	cmp	r2, r3
 8004030:	d001      	beq.n	8004036 <HAL_RCC_ClockConfig+0x152>
    {
      return HAL_ERROR;
 8004032:	2301      	movs	r3, #1
 8004034:	e020      	b.n	8004078 <HAL_RCC_ClockConfig+0x194>
    }
  }    

  /*-------------------------- PCLK1 Configuration ---------------------------*/ 
  if(((RCC_ClkInitStruct->ClockType) & RCC_CLOCKTYPE_PCLK1) == RCC_CLOCKTYPE_PCLK1)
 8004036:	687b      	ldr	r3, [r7, #4]
 8004038:	681b      	ldr	r3, [r3, #0]
 800403a:	2204      	movs	r2, #4
 800403c:	4013      	ands	r3, r2
 800403e:	d009      	beq.n	8004054 <HAL_RCC_ClockConfig+0x170>
  {
    assert_param(IS_RCC_PCLK(RCC_ClkInitStruct->APB1CLKDivider));
    MODIFY_REG(RCC->CFGR, RCC_CFGR_PPRE, RCC_ClkInitStruct->APB1CLKDivider);
 8004040:	4b10      	ldr	r3, [pc, #64]	@ (8004084 <HAL_RCC_ClockConfig+0x1a0>)
 8004042:	685b      	ldr	r3, [r3, #4]
 8004044:	4a11      	ldr	r2, [pc, #68]	@ (800408c <HAL_RCC_ClockConfig+0x1a8>)
 8004046:	4013      	ands	r3, r2
 8004048:	0019      	movs	r1, r3
 800404a:	687b      	ldr	r3, [r7, #4]
 800404c:	68da      	ldr	r2, [r3, #12]
 800404e:	4b0d      	ldr	r3, [pc, #52]	@ (8004084 <HAL_RCC_ClockConfig+0x1a0>)
 8004050:	430a      	orrs	r2, r1
 8004052:	605a      	str	r2, [r3, #4]
  }
  
  /* Update the SystemCoreClock global variable */
  SystemCoreClock = HAL_RCC_GetSysClockFreq() >> AHBPrescTable[(RCC->CFGR & RCC_CFGR_HPRE)>> RCC_CFGR_HPRE_BITNUMBER];
 8004054:	f000 f820 	bl	8004098 <HAL_RCC_GetSysClockFreq>
 8004058:	0001      	movs	r1, r0
 800405a:	4b0a      	ldr	r3, [pc, #40]	@ (8004084 <HAL_RCC_ClockConfig+0x1a0>)
 800405c:	685b      	ldr	r3, [r3, #4]
 800405e:	091b      	lsrs	r3, r3, #4
 8004060:	220f      	movs	r2, #15
 8004062:	4013      	ands	r3, r2
 8004064:	4a0a      	ldr	r2, [pc, #40]	@ (8004090 <HAL_RCC_ClockConfig+0x1ac>)
 8004066:	5cd3      	ldrb	r3, [r2, r3]
 8004068:	000a      	movs	r2, r1
 800406a:	40da      	lsrs	r2, r3
 800406c:	4b09      	ldr	r3, [pc, #36]	@ (8004094 <HAL_RCC_ClockConfig+0x1b0>)
 800406e:	601a      	str	r2, [r3, #0]

  /* Configure the source of time base considering new system clocks settings*/
  HAL_InitTick (TICK_INT_PRIORITY);
 8004070:	2003      	movs	r0, #3
 8004072:	f7fd fe0f 	bl	8001c94 <HAL_InitTick>
  
  return HAL_OK;
 8004076:	2300      	movs	r3, #0
}
 8004078:	0018      	movs	r0, r3
 800407a:	46bd      	mov	sp, r7
 800407c:	b004      	add	sp, #16
 800407e:	bd80      	pop	{r7, pc}
 8004080:	40022000 	.word	0x40022000
 8004084:	40021000 	.word	0x40021000
 8004088:	00001388 	.word	0x00001388
 800408c:	fffff8ff 	.word	0xfffff8ff
 8004090:	08004854 	.word	0x08004854
 8004094:	20000004 	.word	0x20000004

08004098 <HAL_RCC_GetSysClockFreq>:
  *         right SYSCLK value. Otherwise, any configuration based on this function will be incorrect.
  *         
  * @retval SYSCLK frequency
  */
uint32_t HAL_RCC_GetSysClockFreq(void)
{
 8004098:	b580      	push	{r7, lr}
 800409a:	b086      	sub	sp, #24
 800409c:	af00      	add	r7, sp, #0
  static const uint8_t aPLLMULFactorTable[16U] = { 2U,  3U,  4U,  5U,  6U,  7U,  8U,  9U,
                                                   10U, 11U, 12U, 13U, 14U, 15U, 16U, 16U};
  static const uint8_t aPredivFactorTable[16U] = { 1U, 2U,  3U,  4U,  5U,  6U,  7U,  8U,
                                                   9U,10U, 11U, 12U, 13U, 14U, 15U, 16U};

  uint32_t tmpreg = 0U, prediv = 0U, pllclk = 0U, pllmul = 0U;
 800409e:	2300      	movs	r3, #0
 80040a0:	60fb      	str	r3, [r7, #12]
 80040a2:	2300      	movs	r3, #0
 80040a4:	60bb      	str	r3, [r7, #8]
 80040a6:	2300      	movs	r3, #0
 80040a8:	617b      	str	r3, [r7, #20]
 80040aa:	2300      	movs	r3, #0
 80040ac:	607b      	str	r3, [r7, #4]
  uint32_t sysclockfreq = 0U;
 80040ae:	2300      	movs	r3, #0
 80040b0:	613b      	str	r3, [r7, #16]
  
  tmpreg = RCC->CFGR;
 80040b2:	4b2d      	ldr	r3, [pc, #180]	@ (8004168 <HAL_RCC_GetSysClockFreq+0xd0>)
 80040b4:	685b      	ldr	r3, [r3, #4]
 80040b6:	60fb      	str	r3, [r7, #12]
  
  /* Get SYSCLK source -------------------------------------------------------*/
  switch (tmpreg & RCC_CFGR_SWS)
 80040b8:	68fb      	ldr	r3, [r7, #12]
 80040ba:	220c      	movs	r2, #12
 80040bc:	4013      	ands	r3, r2
 80040be:	2b0c      	cmp	r3, #12
 80040c0:	d046      	beq.n	8004150 <HAL_RCC_GetSysClockFreq+0xb8>
 80040c2:	d848      	bhi.n	8004156 <HAL_RCC_GetSysClockFreq+0xbe>
 80040c4:	2b04      	cmp	r3, #4
 80040c6:	d002      	beq.n	80040ce <HAL_RCC_GetSysClockFreq+0x36>
 80040c8:	2b08      	cmp	r3, #8
 80040ca:	d003      	beq.n	80040d4 <HAL_RCC_GetSysClockFreq+0x3c>
 80040cc:	e043      	b.n	8004156 <HAL_RCC_GetSysClockFreq+0xbe>
  {
    case RCC_SYSCLKSOURCE_STATUS_HSE:  /* HSE used as system clock */
    {
      sysclockfreq = HSE_VALUE;
 80040ce:	4b27      	ldr	r3, [pc, #156]	@ (800416c <HAL_RCC_GetSysClockFreq+0xd4>)
 80040d0:	613b      	str	r3, [r7, #16]
      break;
 80040d2:	e043      	b.n	800415c <HAL_RCC_GetSysClockFreq+0xc4>
    }
    case RCC_SYSCLKSOURCE_STATUS_PLLCLK:  /* PLL used as system clock */
    {
      pllmul = aPLLMULFactorTable[(uint32_t)(tmpreg & RCC_CFGR_PLLMUL) >> RCC_CFGR_PLLMUL_BITNUMBER];
 80040d4:	68fb      	ldr	r3, [r7, #12]
 80040d6:	0c9b      	lsrs	r3, r3, #18
 80040d8:	220f      	movs	r2, #15
 80040da:	4013      	ands	r3, r2
 80040dc:	4a24      	ldr	r2, [pc, #144]	@ (8004170 <HAL_RCC_GetSysClockFreq+0xd8>)
 80040de:	5cd3      	ldrb	r3, [r2, r3]
 80040e0:	607b      	str	r3, [r7, #4]
      prediv = aPredivFactorTable[(uint32_t)(RCC->CFGR2 & RCC_CFGR2_PREDIV) >> RCC_CFGR2_PREDIV_BITNUMBER];
 80040e2:	4b21      	ldr	r3, [pc, #132]	@ (8004168 <HAL_RCC_GetSysClockFreq+0xd0>)
 80040e4:	6adb      	ldr	r3, [r3, #44]	@ 0x2c
 80040e6:	220f      	movs	r2, #15
 80040e8:	4013      	ands	r3, r2
 80040ea:	4a22      	ldr	r2, [pc, #136]	@ (8004174 <HAL_RCC_GetSysClockFreq+0xdc>)
 80040ec:	5cd3      	ldrb	r3, [r2, r3]
 80040ee:	60bb      	str	r3, [r7, #8]
      if ((tmpreg & RCC_CFGR_PLLSRC) == RCC_PLLSOURCE_HSE)
 80040f0:	68fa      	ldr	r2, [r7, #12]
 80040f2:	23c0      	movs	r3, #192	@ 0xc0
 80040f4:	025b      	lsls	r3, r3, #9
 80040f6:	401a      	ands	r2, r3
 80040f8:	2380      	movs	r3, #128	@ 0x80
 80040fa:	025b      	lsls	r3, r3, #9
 80040fc:	429a      	cmp	r2, r3
 80040fe:	d109      	bne.n	8004114 <HAL_RCC_GetSysClockFreq+0x7c>
      {
        /* HSE used as PLL clock source : PLLCLK = HSE/PREDIV * PLLMUL */
        pllclk = (uint32_t)((uint64_t) HSE_VALUE / (uint64_t) (prediv)) * ((uint64_t) pllmul);
 8004100:	68b9      	ldr	r1, [r7, #8]
 8004102:	481a      	ldr	r0, [pc, #104]	@ (800416c <HAL_RCC_GetSysClockFreq+0xd4>)
 8004104:	f7fc f80a 	bl	800011c <__udivsi3>
 8004108:	0003      	movs	r3, r0
 800410a:	001a      	movs	r2, r3
 800410c:	687b      	ldr	r3, [r7, #4]
 800410e:	4353      	muls	r3, r2
 8004110:	617b      	str	r3, [r7, #20]
 8004112:	e01a      	b.n	800414a <HAL_RCC_GetSysClockFreq+0xb2>
      }
#if defined(RCC_CFGR_PLLSRC_HSI48_PREDIV)
      else if ((tmpreg & RCC_CFGR_PLLSRC) == RCC_PLLSOURCE_HSI48)
 8004114:	68fa      	ldr	r2, [r7, #12]
 8004116:	23c0      	movs	r3, #192	@ 0xc0
 8004118:	025b      	lsls	r3, r3, #9
 800411a:	401a      	ands	r2, r3
 800411c:	23c0      	movs	r3, #192	@ 0xc0
 800411e:	025b      	lsls	r3, r3, #9
 8004120:	429a      	cmp	r2, r3
 8004122:	d109      	bne.n	8004138 <HAL_RCC_GetSysClockFreq+0xa0>
      {
        /* HSI48 used as PLL clock source : PLLCLK = HSI48/PREDIV * PLLMUL */
        pllclk = (uint32_t)((uint64_t) HSI48_VALUE / (uint64_t) (prediv)) * ((uint64_t) pllmul);
 8004124:	68b9      	ldr	r1, [r7, #8]
 8004126:	4814      	ldr	r0, [pc, #80]	@ (8004178 <HAL_RCC_GetSysClockFreq+0xe0>)
 8004128:	f7fb fff8 	bl	800011c <__udivsi3>
 800412c:	0003      	movs	r3, r0
 800412e:	001a      	movs	r2, r3
 8004130:	687b      	ldr	r3, [r7, #4]
 8004132:	4353      	muls	r3, r2
 8004134:	617b      	str	r3, [r7, #20]
 8004136:	e008      	b.n	800414a <HAL_RCC_GetSysClockFreq+0xb2>
#endif /* RCC_CFGR_PLLSRC_HSI48_PREDIV */
      else
      {
#if  (defined(STM32F042x6) || defined(STM32F048xx) || defined(STM32F070x6) || defined(STM32F071xB) || defined(STM32F072xB) || defined(STM32F078xx) || defined(STM32F070xB) || defined(STM32F091xC) || defined(STM32F098xx) || defined(STM32F030xC))
        /* HSI used as PLL clock source : PLLCLK = HSI/PREDIV * PLLMUL */
        pllclk = (uint32_t)((uint64_t) HSI_VALUE / (uint64_t) (prediv)) * ((uint64_t) pllmul);
 8004138:	68b9      	ldr	r1, [r7, #8]
 800413a:	4810      	ldr	r0, [pc, #64]	@ (800417c <HAL_RCC_GetSysClockFreq+0xe4>)
 800413c:	f7fb ffee 	bl	800011c <__udivsi3>
 8004140:	0003      	movs	r3, r0
 8004142:	001a      	movs	r2, r3
 8004144:	687b      	ldr	r3, [r7, #4]
 8004146:	4353      	muls	r3, r2
 8004148:	617b      	str	r3, [r7, #20]
#else
        /* HSI used as PLL clock source : PLLCLK = HSI/2 * PLLMUL */
        pllclk = (uint32_t)((uint64_t) (HSI_VALUE >> 1U) * ((uint64_t) pllmul));
#endif
      }
      sysclockfreq = pllclk;
 800414a:	697b      	ldr	r3, [r7, #20]
 800414c:	613b      	str	r3, [r7, #16]
      break;
 800414e:	e005      	b.n	800415c <HAL_RCC_GetSysClockFreq+0xc4>
    }
#if defined(RCC_CFGR_SWS_HSI48)
    case RCC_SYSCLKSOURCE_STATUS_HSI48:    /* HSI48 used as system clock source */
    {
      sysclockfreq = HSI48_VALUE;
 8004150:	4b09      	ldr	r3, [pc, #36]	@ (8004178 <HAL_RCC_GetSysClockFreq+0xe0>)
 8004152:	613b      	str	r3, [r7, #16]
      break;
 8004154:	e002      	b.n	800415c <HAL_RCC_GetSysClockFreq+0xc4>
    }
#endif /* RCC_CFGR_SWS_HSI48 */
    case RCC_SYSCLKSOURCE_STATUS_HSI:  /* HSI used as system clock source */
    default: /* HSI used as system clock */
    {
      sysclockfreq = HSI_VALUE;
 8004156:	4b09      	ldr	r3, [pc, #36]	@ (800417c <HAL_RCC_GetSysClockFreq+0xe4>)
 8004158:	613b      	str	r3, [r7, #16]
      break;
 800415a:	46c0      	nop			@ (mov r8, r8)
    }
  }
  return sysclockfreq;
 800415c:	693b      	ldr	r3, [r7, #16]
}
 800415e:	0018      	movs	r0, r3
 8004160:	46bd      	mov	sp, r7
 8004162:	b006      	add	sp, #24
 8004164:	bd80      	pop	{r7, pc}
 8004166:	46c0      	nop			@ (mov r8, r8)
 8004168:	40021000 	.word	0x40021000
 800416c:	017d7840 	.word	0x017d7840
 8004170:	080048c0 	.word	0x080048c0
 8004174:	080048d0 	.word	0x080048d0
 8004178:	02dc6c00 	.word	0x02dc6c00
 800417c:	007a1200 	.word	0x007a1200

08004180 <HAL_SPI_Init>:
  * @param  hspi pointer to a SPI_HandleTypeDef structure that contains
  *               the configuration information for SPI module.
  * @retval HAL status
  */
HAL_StatusTypeDef HAL_SPI_Init(SPI_HandleTypeDef *hspi)
{
 8004180:	b580      	push	{r7, lr}
 8004182:	b084      	sub	sp, #16
 8004184:	af00      	add	r7, sp, #0
 8004186:	6078      	str	r0, [r7, #4]
  uint32_t frxth;

  /* Check the SPI handle allocation */
  if (hspi == NULL)
 8004188:	687b      	ldr	r3, [r7, #4]
 800418a:	2b00      	cmp	r3, #0
 800418c:	d101      	bne.n	8004192 <HAL_SPI_Init+0x12>
  {
    return HAL_ERROR;
 800418e:	2301      	movs	r3, #1
 8004190:	e0a8      	b.n	80042e4 <HAL_SPI_Init+0x164>
  assert_param(IS_SPI_NSS(hspi->Init.NSS));
  assert_param(IS_SPI_NSSP(hspi->Init.NSSPMode));
  assert_param(IS_SPI_BAUDRATE_PRESCALER(hspi->Init.BaudRatePrescaler));
  assert_param(IS_SPI_FIRST_BIT(hspi->Init.FirstBit));
  assert_param(IS_SPI_TIMODE(hspi->Init.TIMode));
  if (hspi->Init.TIMode == SPI_TIMODE_DISABLE)
 8004192:	687b      	ldr	r3, [r7, #4]
 8004194:	6a5b      	ldr	r3, [r3, #36]	@ 0x24
 8004196:	2b00      	cmp	r3, #0
 8004198:	d109      	bne.n	80041ae <HAL_SPI_Init+0x2e>
  {
    assert_param(IS_SPI_CPOL(hspi->Init.CLKPolarity));
    assert_param(IS_SPI_CPHA(hspi->Init.CLKPhase));

    if (hspi->Init.Mode == SPI_MODE_MASTER)
 800419a:	687b      	ldr	r3, [r7, #4]
 800419c:	685a      	ldr	r2, [r3, #4]
 800419e:	2382      	movs	r3, #130	@ 0x82
 80041a0:	005b      	lsls	r3, r3, #1
 80041a2:	429a      	cmp	r2, r3
 80041a4:	d009      	beq.n	80041ba <HAL_SPI_Init+0x3a>
      assert_param(IS_SPI_BAUDRATE_PRESCALER(hspi->Init.BaudRatePrescaler));
    }
    else
    {
      /* Baudrate prescaler not use in Motoraola Slave mode. force to default value */
      hspi->Init.BaudRatePrescaler = SPI_BAUDRATEPRESCALER_2;
 80041a6:	687b      	ldr	r3, [r7, #4]
 80041a8:	2200      	movs	r2, #0
 80041aa:	61da      	str	r2, [r3, #28]
 80041ac:	e005      	b.n	80041ba <HAL_SPI_Init+0x3a>
  else
  {
    assert_param(IS_SPI_BAUDRATE_PRESCALER(hspi->Init.BaudRatePrescaler));

    /* Force polarity and phase to TI protocaol requirements */
    hspi->Init.CLKPolarity = SPI_POLARITY_LOW;
 80041ae:	687b      	ldr	r3, [r7, #4]
 80041b0:	2200      	movs	r2, #0
 80041b2:	611a      	str	r2, [r3, #16]
    hspi->Init.CLKPhase    = SPI_PHASE_1EDGE;
 80041b4:	687b      	ldr	r3, [r7, #4]
 80041b6:	2200      	movs	r2, #0
 80041b8:	615a      	str	r2, [r3, #20]
  {
    assert_param(IS_SPI_CRC_POLYNOMIAL(hspi->Init.CRCPolynomial));
    assert_param(IS_SPI_CRC_LENGTH(hspi->Init.CRCLength));
  }
#else
  hspi->Init.CRCCalculation = SPI_CRCCALCULATION_DISABLE;
 80041ba:	687b      	ldr	r3, [r7, #4]
 80041bc:	2200      	movs	r2, #0
 80041be:	629a      	str	r2, [r3, #40]	@ 0x28
#endif /* USE_SPI_CRC */

  if (hspi->State == HAL_SPI_STATE_RESET)
 80041c0:	687b      	ldr	r3, [r7, #4]
 80041c2:	225d      	movs	r2, #93	@ 0x5d
 80041c4:	5c9b      	ldrb	r3, [r3, r2]
 80041c6:	b2db      	uxtb	r3, r3
 80041c8:	2b00      	cmp	r3, #0
 80041ca:	d107      	bne.n	80041dc <HAL_SPI_Init+0x5c>
  {
    /* Allocate lock resource and initialize it */
    hspi->Lock = HAL_UNLOCKED;
 80041cc:	687b      	ldr	r3, [r7, #4]
 80041ce:	225c      	movs	r2, #92	@ 0x5c
 80041d0:	2100      	movs	r1, #0
 80041d2:	5499      	strb	r1, [r3, r2]

    /* Init the low level hardware : GPIO, CLOCK, NVIC... */
    hspi->MspInitCallback(hspi);
#else
    /* Init the low level hardware : GPIO, CLOCK, NVIC... */
    HAL_SPI_MspInit(hspi);
 80041d4:	687b      	ldr	r3, [r7, #4]
 80041d6:	0018      	movs	r0, r3
 80041d8:	f7fc fd98 	bl	8000d0c <HAL_SPI_MspInit>
#endif /* USE_HAL_SPI_REGISTER_CALLBACKS */
  }

  hspi->State = HAL_SPI_STATE_BUSY;
 80041dc:	687b      	ldr	r3, [r7, #4]
 80041de:	225d      	movs	r2, #93	@ 0x5d
 80041e0:	2102      	movs	r1, #2
 80041e2:	5499      	strb	r1, [r3, r2]

  /* Disable the selected SPI peripheral */
  __HAL_SPI_DISABLE(hspi);
 80041e4:	687b      	ldr	r3, [r7, #4]
 80041e6:	681b      	ldr	r3, [r3, #0]
 80041e8:	681a      	ldr	r2, [r3, #0]
 80041ea:	687b      	ldr	r3, [r7, #4]
 80041ec:	681b      	ldr	r3, [r3, #0]
 80041ee:	2140      	movs	r1, #64	@ 0x40
 80041f0:	438a      	bics	r2, r1
 80041f2:	601a      	str	r2, [r3, #0]

  /* Align by default the rs fifo threshold on the data size */
  if (hspi->Init.DataSize > SPI_DATASIZE_8BIT)
 80041f4:	687b      	ldr	r3, [r7, #4]
 80041f6:	68da      	ldr	r2, [r3, #12]
 80041f8:	23e0      	movs	r3, #224	@ 0xe0
 80041fa:	00db      	lsls	r3, r3, #3
 80041fc:	429a      	cmp	r2, r3
 80041fe:	d902      	bls.n	8004206 <HAL_SPI_Init+0x86>
  {
    frxth = SPI_RXFIFO_THRESHOLD_HF;
 8004200:	2300      	movs	r3, #0
 8004202:	60fb      	str	r3, [r7, #12]
 8004204:	e002      	b.n	800420c <HAL_SPI_Init+0x8c>
  }
  else
  {
    frxth = SPI_RXFIFO_THRESHOLD_QF;
 8004206:	2380      	movs	r3, #128	@ 0x80
 8004208:	015b      	lsls	r3, r3, #5
 800420a:	60fb      	str	r3, [r7, #12]
  }

  /* CRC calculation is valid only for 16Bit and 8 Bit */
  if ((hspi->Init.DataSize != SPI_DATASIZE_16BIT) && (hspi->Init.DataSize != SPI_DATASIZE_8BIT))
 800420c:	687b      	ldr	r3, [r7, #4]
 800420e:	68da      	ldr	r2, [r3, #12]
 8004210:	23f0      	movs	r3, #240	@ 0xf0
 8004212:	011b      	lsls	r3, r3, #4
 8004214:	429a      	cmp	r2, r3
 8004216:	d008      	beq.n	800422a <HAL_SPI_Init+0xaa>
 8004218:	687b      	ldr	r3, [r7, #4]
 800421a:	68da      	ldr	r2, [r3, #12]
 800421c:	23e0      	movs	r3, #224	@ 0xe0
 800421e:	00db      	lsls	r3, r3, #3
 8004220:	429a      	cmp	r2, r3
 8004222:	d002      	beq.n	800422a <HAL_SPI_Init+0xaa>
  {
    /* CRC must be disabled */
    hspi->Init.CRCCalculation = SPI_CRCCALCULATION_DISABLE;
 8004224:	687b      	ldr	r3, [r7, #4]
 8004226:	2200      	movs	r2, #0
 8004228:	629a      	str	r2, [r3, #40]	@ 0x28
  }

  /*----------------------- SPIx CR1 & CR2 Configuration ---------------------*/
  /* Configure : SPI Mode, Communication Mode, Clock polarity and phase, NSS management,
  Communication speed, First bit and CRC calculation state */
  WRITE_REG(hspi->Instance->CR1, ((hspi->Init.Mode & (SPI_CR1_MSTR | SPI_CR1_SSI)) |
 800422a:	687b      	ldr	r3, [r7, #4]
 800422c:	685a      	ldr	r2, [r3, #4]
 800422e:	2382      	movs	r3, #130	@ 0x82
 8004230:	005b      	lsls	r3, r3, #1
 8004232:	401a      	ands	r2, r3
 8004234:	687b      	ldr	r3, [r7, #4]
 8004236:	6899      	ldr	r1, [r3, #8]
 8004238:	2384      	movs	r3, #132	@ 0x84
 800423a:	021b      	lsls	r3, r3, #8
 800423c:	400b      	ands	r3, r1
 800423e:	431a      	orrs	r2, r3
 8004240:	687b      	ldr	r3, [r7, #4]
 8004242:	691b      	ldr	r3, [r3, #16]
 8004244:	2102      	movs	r1, #2
 8004246:	400b      	ands	r3, r1
 8004248:	431a      	orrs	r2, r3
 800424a:	687b      	ldr	r3, [r7, #4]
 800424c:	695b      	ldr	r3, [r3, #20]
 800424e:	2101      	movs	r1, #1
 8004250:	400b      	ands	r3, r1
 8004252:	431a      	orrs	r2, r3
 8004254:	687b      	ldr	r3, [r7, #4]
 8004256:	6999      	ldr	r1, [r3, #24]
 8004258:	2380      	movs	r3, #128	@ 0x80
 800425a:	009b      	lsls	r3, r3, #2
 800425c:	400b      	ands	r3, r1
 800425e:	431a      	orrs	r2, r3
 8004260:	687b      	ldr	r3, [r7, #4]
 8004262:	69db      	ldr	r3, [r3, #28]
 8004264:	2138      	movs	r1, #56	@ 0x38
 8004266:	400b      	ands	r3, r1
 8004268:	431a      	orrs	r2, r3
 800426a:	687b      	ldr	r3, [r7, #4]
 800426c:	6a1b      	ldr	r3, [r3, #32]
 800426e:	2180      	movs	r1, #128	@ 0x80
 8004270:	400b      	ands	r3, r1
 8004272:	431a      	orrs	r2, r3
 8004274:	0011      	movs	r1, r2
 8004276:	687b      	ldr	r3, [r7, #4]
 8004278:	6a9a      	ldr	r2, [r3, #40]	@ 0x28
 800427a:	2380      	movs	r3, #128	@ 0x80
 800427c:	019b      	lsls	r3, r3, #6
 800427e:	401a      	ands	r2, r3
 8004280:	687b      	ldr	r3, [r7, #4]
 8004282:	681b      	ldr	r3, [r3, #0]
 8004284:	430a      	orrs	r2, r1
 8004286:	601a      	str	r2, [r3, #0]
    }
  }
#endif /* USE_SPI_CRC */

  /* Configure : NSS management, TI Mode, NSS Pulse, Data size and Rx Fifo threshold */
  WRITE_REG(hspi->Instance->CR2, (((hspi->Init.NSS >> 16U) & SPI_CR2_SSOE) |
 8004288:	687b      	ldr	r3, [r7, #4]
 800428a:	699b      	ldr	r3, [r3, #24]
 800428c:	0c1b      	lsrs	r3, r3, #16
 800428e:	2204      	movs	r2, #4
 8004290:	401a      	ands	r2, r3
 8004292:	687b      	ldr	r3, [r7, #4]
 8004294:	6a5b      	ldr	r3, [r3, #36]	@ 0x24
 8004296:	2110      	movs	r1, #16
 8004298:	400b      	ands	r3, r1
 800429a:	431a      	orrs	r2, r3
 800429c:	687b      	ldr	r3, [r7, #4]
 800429e:	6b5b      	ldr	r3, [r3, #52]	@ 0x34
 80042a0:	2108      	movs	r1, #8
 80042a2:	400b      	ands	r3, r1
 80042a4:	431a      	orrs	r2, r3
 80042a6:	687b      	ldr	r3, [r7, #4]
 80042a8:	68d9      	ldr	r1, [r3, #12]
 80042aa:	23f0      	movs	r3, #240	@ 0xf0
 80042ac:	011b      	lsls	r3, r3, #4
 80042ae:	400b      	ands	r3, r1
 80042b0:	431a      	orrs	r2, r3
 80042b2:	0011      	movs	r1, r2
 80042b4:	68fa      	ldr	r2, [r7, #12]
 80042b6:	2380      	movs	r3, #128	@ 0x80
 80042b8:	015b      	lsls	r3, r3, #5
 80042ba:	401a      	ands	r2, r3
 80042bc:	687b      	ldr	r3, [r7, #4]
 80042be:	681b      	ldr	r3, [r3, #0]
 80042c0:	430a      	orrs	r2, r1
 80042c2:	605a      	str	r2, [r3, #4]
  }
#endif /* USE_SPI_CRC */

#if defined(SPI_I2SCFGR_I2SMOD)
  /* Activate the SPI mode (Make sure that I2SMOD bit in I2SCFGR register is reset) */
  CLEAR_BIT(hspi->Instance->I2SCFGR, SPI_I2SCFGR_I2SMOD);
 80042c4:	687b      	ldr	r3, [r7, #4]
 80042c6:	681b      	ldr	r3, [r3, #0]
 80042c8:	69da      	ldr	r2, [r3, #28]
 80042ca:	687b      	ldr	r3, [r7, #4]
 80042cc:	681b      	ldr	r3, [r3, #0]
 80042ce:	4907      	ldr	r1, [pc, #28]	@ (80042ec <HAL_SPI_Init+0x16c>)
 80042d0:	400a      	ands	r2, r1
 80042d2:	61da      	str	r2, [r3, #28]
#endif /* SPI_I2SCFGR_I2SMOD */

  hspi->ErrorCode = HAL_SPI_ERROR_NONE;
 80042d4:	687b      	ldr	r3, [r7, #4]
 80042d6:	2200      	movs	r2, #0
 80042d8:	661a      	str	r2, [r3, #96]	@ 0x60
  hspi->State     = HAL_SPI_STATE_READY;
 80042da:	687b      	ldr	r3, [r7, #4]
 80042dc:	225d      	movs	r2, #93	@ 0x5d
 80042de:	2101      	movs	r1, #1
 80042e0:	5499      	strb	r1, [r3, r2]

  return HAL_OK;
 80042e2:	2300      	movs	r3, #0
}
 80042e4:	0018      	movs	r0, r3
 80042e6:	46bd      	mov	sp, r7
 80042e8:	b004      	add	sp, #16
 80042ea:	bd80      	pop	{r7, pc}
 80042ec:	fffff7ff 	.word	0xfffff7ff

080042f0 <HAL_SPI_IRQHandler>:
  * @param  hspi pointer to a SPI_HandleTypeDef structure that contains
  *               the configuration information for the specified SPI module.
  * @retval None
  */
void HAL_SPI_IRQHandler(SPI_HandleTypeDef *hspi)
{
 80042f0:	b580      	push	{r7, lr}
 80042f2:	b088      	sub	sp, #32
 80042f4:	af00      	add	r7, sp, #0
 80042f6:	6078      	str	r0, [r7, #4]
  uint32_t itsource = hspi->Instance->CR2;
 80042f8:	687b      	ldr	r3, [r7, #4]
 80042fa:	681b      	ldr	r3, [r3, #0]
 80042fc:	685b      	ldr	r3, [r3, #4]
 80042fe:	61fb      	str	r3, [r7, #28]
  uint32_t itflag   = hspi->Instance->SR;
 8004300:	687b      	ldr	r3, [r7, #4]
 8004302:	681b      	ldr	r3, [r3, #0]
 8004304:	689b      	ldr	r3, [r3, #8]
 8004306:	61bb      	str	r3, [r7, #24]

  /* SPI in mode Receiver ----------------------------------------------------*/
  if ((SPI_CHECK_FLAG(itflag, SPI_FLAG_OVR) == RESET) &&
 8004308:	69bb      	ldr	r3, [r7, #24]
 800430a:	099b      	lsrs	r3, r3, #6
 800430c:	001a      	movs	r2, r3
 800430e:	2301      	movs	r3, #1
 8004310:	4013      	ands	r3, r2
 8004312:	d10f      	bne.n	8004334 <HAL_SPI_IRQHandler+0x44>
      (SPI_CHECK_FLAG(itflag, SPI_FLAG_RXNE) != RESET) && (SPI_CHECK_IT_SOURCE(itsource, SPI_IT_RXNE) != RESET))
 8004314:	69bb      	ldr	r3, [r7, #24]
 8004316:	2201      	movs	r2, #1
 8004318:	4013      	ands	r3, r2
  if ((SPI_CHECK_FLAG(itflag, SPI_FLAG_OVR) == RESET) &&
 800431a:	d00b      	beq.n	8004334 <HAL_SPI_IRQHandler+0x44>
      (SPI_CHECK_FLAG(itflag, SPI_FLAG_RXNE) != RESET) && (SPI_CHECK_IT_SOURCE(itsource, SPI_IT_RXNE) != RESET))
 800431c:	69fb      	ldr	r3, [r7, #28]
 800431e:	099b      	lsrs	r3, r3, #6
 8004320:	001a      	movs	r2, r3
 8004322:	2301      	movs	r3, #1
 8004324:	4013      	ands	r3, r2
 8004326:	d005      	beq.n	8004334 <HAL_SPI_IRQHandler+0x44>
  {
    hspi->RxISR(hspi);
 8004328:	687b      	ldr	r3, [r7, #4]
 800432a:	6cdb      	ldr	r3, [r3, #76]	@ 0x4c
 800432c:	687a      	ldr	r2, [r7, #4]
 800432e:	0010      	movs	r0, r2
 8004330:	4798      	blx	r3
    return;
 8004332:	e0d5      	b.n	80044e0 <HAL_SPI_IRQHandler+0x1f0>
  }

  /* SPI in mode Transmitter -------------------------------------------------*/
  if ((SPI_CHECK_FLAG(itflag, SPI_FLAG_TXE) != RESET) && (SPI_CHECK_IT_SOURCE(itsource, SPI_IT_TXE) != RESET))
 8004334:	69bb      	ldr	r3, [r7, #24]
 8004336:	085b      	lsrs	r3, r3, #1
 8004338:	001a      	movs	r2, r3
 800433a:	2301      	movs	r3, #1
 800433c:	4013      	ands	r3, r2
 800433e:	d00b      	beq.n	8004358 <HAL_SPI_IRQHandler+0x68>
 8004340:	69fb      	ldr	r3, [r7, #28]
 8004342:	09db      	lsrs	r3, r3, #7
 8004344:	001a      	movs	r2, r3
 8004346:	2301      	movs	r3, #1
 8004348:	4013      	ands	r3, r2
 800434a:	d005      	beq.n	8004358 <HAL_SPI_IRQHandler+0x68>
  {
    hspi->TxISR(hspi);
 800434c:	687b      	ldr	r3, [r7, #4]
 800434e:	6d1b      	ldr	r3, [r3, #80]	@ 0x50
 8004350:	687a      	ldr	r2, [r7, #4]
 8004352:	0010      	movs	r0, r2
 8004354:	4798      	blx	r3
    return;
 8004356:	e0c3      	b.n	80044e0 <HAL_SPI_IRQHandler+0x1f0>
  }

  /* SPI in Error Treatment --------------------------------------------------*/
  if (((SPI_CHECK_FLAG(itflag, SPI_FLAG_MODF) != RESET) || (SPI_CHECK_FLAG(itflag, SPI_FLAG_OVR) != RESET)
 8004358:	69bb      	ldr	r3, [r7, #24]
 800435a:	095b      	lsrs	r3, r3, #5
 800435c:	001a      	movs	r2, r3
 800435e:	2301      	movs	r3, #1
 8004360:	4013      	ands	r3, r2
 8004362:	d10c      	bne.n	800437e <HAL_SPI_IRQHandler+0x8e>
 8004364:	69bb      	ldr	r3, [r7, #24]
 8004366:	099b      	lsrs	r3, r3, #6
 8004368:	001a      	movs	r2, r3
 800436a:	2301      	movs	r3, #1
 800436c:	4013      	ands	r3, r2
 800436e:	d106      	bne.n	800437e <HAL_SPI_IRQHandler+0x8e>
       || (SPI_CHECK_FLAG(itflag, SPI_FLAG_FRE) != RESET)) && (SPI_CHECK_IT_SOURCE(itsource, SPI_IT_ERR) != RESET))
 8004370:	69bb      	ldr	r3, [r7, #24]
 8004372:	0a1b      	lsrs	r3, r3, #8
 8004374:	001a      	movs	r2, r3
 8004376:	2301      	movs	r3, #1
 8004378:	4013      	ands	r3, r2
 800437a:	d100      	bne.n	800437e <HAL_SPI_IRQHandler+0x8e>
 800437c:	e0b0      	b.n	80044e0 <HAL_SPI_IRQHandler+0x1f0>
 800437e:	69fb      	ldr	r3, [r7, #28]
 8004380:	095b      	lsrs	r3, r3, #5
 8004382:	001a      	movs	r2, r3
 8004384:	2301      	movs	r3, #1
 8004386:	4013      	ands	r3, r2
 8004388:	d100      	bne.n	800438c <HAL_SPI_IRQHandler+0x9c>
 800438a:	e0a9      	b.n	80044e0 <HAL_SPI_IRQHandler+0x1f0>
  {
    /* SPI Overrun error interrupt occurred ----------------------------------*/
    if (SPI_CHECK_FLAG(itflag, SPI_FLAG_OVR) != RESET)
 800438c:	69bb      	ldr	r3, [r7, #24]
 800438e:	099b      	lsrs	r3, r3, #6
 8004390:	001a      	movs	r2, r3
 8004392:	2301      	movs	r3, #1
 8004394:	4013      	ands	r3, r2
 8004396:	d023      	beq.n	80043e0 <HAL_SPI_IRQHandler+0xf0>
    {
      if (hspi->State != HAL_SPI_STATE_BUSY_TX)
 8004398:	687b      	ldr	r3, [r7, #4]
 800439a:	225d      	movs	r2, #93	@ 0x5d
 800439c:	5c9b      	ldrb	r3, [r3, r2]
 800439e:	b2db      	uxtb	r3, r3
 80043a0:	2b03      	cmp	r3, #3
 80043a2:	d011      	beq.n	80043c8 <HAL_SPI_IRQHandler+0xd8>
      {
        SET_BIT(hspi->ErrorCode, HAL_SPI_ERROR_OVR);
 80043a4:	687b      	ldr	r3, [r7, #4]
 80043a6:	6e1b      	ldr	r3, [r3, #96]	@ 0x60
 80043a8:	2204      	movs	r2, #4
 80043aa:	431a      	orrs	r2, r3
 80043ac:	687b      	ldr	r3, [r7, #4]
 80043ae:	661a      	str	r2, [r3, #96]	@ 0x60
        __HAL_SPI_CLEAR_OVRFLAG(hspi);
 80043b0:	2300      	movs	r3, #0
 80043b2:	617b      	str	r3, [r7, #20]
 80043b4:	687b      	ldr	r3, [r7, #4]
 80043b6:	681b      	ldr	r3, [r3, #0]
 80043b8:	68db      	ldr	r3, [r3, #12]
 80043ba:	617b      	str	r3, [r7, #20]
 80043bc:	687b      	ldr	r3, [r7, #4]
 80043be:	681b      	ldr	r3, [r3, #0]
 80043c0:	689b      	ldr	r3, [r3, #8]
 80043c2:	617b      	str	r3, [r7, #20]
 80043c4:	697b      	ldr	r3, [r7, #20]
 80043c6:	e00b      	b.n	80043e0 <HAL_SPI_IRQHandler+0xf0>
      }
      else
      {
        __HAL_SPI_CLEAR_OVRFLAG(hspi);
 80043c8:	2300      	movs	r3, #0
 80043ca:	613b      	str	r3, [r7, #16]
 80043cc:	687b      	ldr	r3, [r7, #4]
 80043ce:	681b      	ldr	r3, [r3, #0]
 80043d0:	68db      	ldr	r3, [r3, #12]
 80043d2:	613b      	str	r3, [r7, #16]
 80043d4:	687b      	ldr	r3, [r7, #4]
 80043d6:	681b      	ldr	r3, [r3, #0]
 80043d8:	689b      	ldr	r3, [r3, #8]
 80043da:	613b      	str	r3, [r7, #16]
 80043dc:	693b      	ldr	r3, [r7, #16]
        return;
 80043de:	e07f      	b.n	80044e0 <HAL_SPI_IRQHandler+0x1f0>
      }
    }

    /* SPI Mode Fault error interrupt occurred -------------------------------*/
    if (SPI_CHECK_FLAG(itflag, SPI_FLAG_MODF) != RESET)
 80043e0:	69bb      	ldr	r3, [r7, #24]
 80043e2:	095b      	lsrs	r3, r3, #5
 80043e4:	001a      	movs	r2, r3
 80043e6:	2301      	movs	r3, #1
 80043e8:	4013      	ands	r3, r2
 80043ea:	d014      	beq.n	8004416 <HAL_SPI_IRQHandler+0x126>
    {
      SET_BIT(hspi->ErrorCode, HAL_SPI_ERROR_MODF);
 80043ec:	687b      	ldr	r3, [r7, #4]
 80043ee:	6e1b      	ldr	r3, [r3, #96]	@ 0x60
 80043f0:	2201      	movs	r2, #1
 80043f2:	431a      	orrs	r2, r3
 80043f4:	687b      	ldr	r3, [r7, #4]
 80043f6:	661a      	str	r2, [r3, #96]	@ 0x60
      __HAL_SPI_CLEAR_MODFFLAG(hspi);
 80043f8:	2300      	movs	r3, #0
 80043fa:	60fb      	str	r3, [r7, #12]
 80043fc:	687b      	ldr	r3, [r7, #4]
 80043fe:	681b      	ldr	r3, [r3, #0]
 8004400:	689b      	ldr	r3, [r3, #8]
 8004402:	60fb      	str	r3, [r7, #12]
 8004404:	687b      	ldr	r3, [r7, #4]
 8004406:	681b      	ldr	r3, [r3, #0]
 8004408:	681a      	ldr	r2, [r3, #0]
 800440a:	687b      	ldr	r3, [r7, #4]
 800440c:	681b      	ldr	r3, [r3, #0]
 800440e:	2140      	movs	r1, #64	@ 0x40
 8004410:	438a      	bics	r2, r1
 8004412:	601a      	str	r2, [r3, #0]
 8004414:	68fb      	ldr	r3, [r7, #12]
    }

    /* SPI Frame error interrupt occurred ------------------------------------*/
    if (SPI_CHECK_FLAG(itflag, SPI_FLAG_FRE) != RESET)
 8004416:	69bb      	ldr	r3, [r7, #24]
 8004418:	0a1b      	lsrs	r3, r3, #8
 800441a:	001a      	movs	r2, r3
 800441c:	2301      	movs	r3, #1
 800441e:	4013      	ands	r3, r2
 8004420:	d00c      	beq.n	800443c <HAL_SPI_IRQHandler+0x14c>
    {
      SET_BIT(hspi->ErrorCode, HAL_SPI_ERROR_FRE);
 8004422:	687b      	ldr	r3, [r7, #4]
 8004424:	6e1b      	ldr	r3, [r3, #96]	@ 0x60
 8004426:	2208      	movs	r2, #8
 8004428:	431a      	orrs	r2, r3
 800442a:	687b      	ldr	r3, [r7, #4]
 800442c:	661a      	str	r2, [r3, #96]	@ 0x60
      __HAL_SPI_CLEAR_FREFLAG(hspi);
 800442e:	2300      	movs	r3, #0
 8004430:	60bb      	str	r3, [r7, #8]
 8004432:	687b      	ldr	r3, [r7, #4]
 8004434:	681b      	ldr	r3, [r3, #0]
 8004436:	689b      	ldr	r3, [r3, #8]
 8004438:	60bb      	str	r3, [r7, #8]
 800443a:	68bb      	ldr	r3, [r7, #8]
    }

    if (hspi->ErrorCode != HAL_SPI_ERROR_NONE)
 800443c:	687b      	ldr	r3, [r7, #4]
 800443e:	6e1b      	ldr	r3, [r3, #96]	@ 0x60
 8004440:	2b00      	cmp	r3, #0
 8004442:	d04c      	beq.n	80044de <HAL_SPI_IRQHandler+0x1ee>
    {
      /* Disable all interrupts */
      __HAL_SPI_DISABLE_IT(hspi, SPI_IT_RXNE | SPI_IT_TXE | SPI_IT_ERR);
 8004444:	687b      	ldr	r3, [r7, #4]
 8004446:	681b      	ldr	r3, [r3, #0]
 8004448:	685a      	ldr	r2, [r3, #4]
 800444a:	687b      	ldr	r3, [r7, #4]
 800444c:	681b      	ldr	r3, [r3, #0]
 800444e:	21e0      	movs	r1, #224	@ 0xe0
 8004450:	438a      	bics	r2, r1
 8004452:	605a      	str	r2, [r3, #4]

      hspi->State = HAL_SPI_STATE_READY;
 8004454:	687b      	ldr	r3, [r7, #4]
 8004456:	225d      	movs	r2, #93	@ 0x5d
 8004458:	2101      	movs	r1, #1
 800445a:	5499      	strb	r1, [r3, r2]
      /* Disable the SPI DMA requests if enabled */
      if ((HAL_IS_BIT_SET(itsource, SPI_CR2_TXDMAEN)) || (HAL_IS_BIT_SET(itsource, SPI_CR2_RXDMAEN)))
 800445c:	69fb      	ldr	r3, [r7, #28]
 800445e:	2202      	movs	r2, #2
 8004460:	4013      	ands	r3, r2
 8004462:	d103      	bne.n	800446c <HAL_SPI_IRQHandler+0x17c>
 8004464:	69fb      	ldr	r3, [r7, #28]
 8004466:	2201      	movs	r2, #1
 8004468:	4013      	ands	r3, r2
 800446a:	d032      	beq.n	80044d2 <HAL_SPI_IRQHandler+0x1e2>
      {
        CLEAR_BIT(hspi->Instance->CR2, (SPI_CR2_TXDMAEN | SPI_CR2_RXDMAEN));
 800446c:	687b      	ldr	r3, [r7, #4]
 800446e:	681b      	ldr	r3, [r3, #0]
 8004470:	685a      	ldr	r2, [r3, #4]
 8004472:	687b      	ldr	r3, [r7, #4]
 8004474:	681b      	ldr	r3, [r3, #0]
 8004476:	2103      	movs	r1, #3
 8004478:	438a      	bics	r2, r1
 800447a:	605a      	str	r2, [r3, #4]

        /* Abort the SPI DMA Rx channel */
        if (hspi->hdmarx != NULL)
 800447c:	687b      	ldr	r3, [r7, #4]
 800447e:	6d9b      	ldr	r3, [r3, #88]	@ 0x58
 8004480:	2b00      	cmp	r3, #0
 8004482:	d010      	beq.n	80044a6 <HAL_SPI_IRQHandler+0x1b6>
        {
          /* Set the SPI DMA Abort callback :
          will lead to call HAL_SPI_ErrorCallback() at end of DMA abort procedure */
          hspi->hdmarx->XferAbortCallback = SPI_DMAAbortOnError;
 8004484:	687b      	ldr	r3, [r7, #4]
 8004486:	6d9b      	ldr	r3, [r3, #88]	@ 0x58
 8004488:	4a17      	ldr	r2, [pc, #92]	@ (80044e8 <HAL_SPI_IRQHandler+0x1f8>)
 800448a:	635a      	str	r2, [r3, #52]	@ 0x34
          if (HAL_OK != HAL_DMA_Abort_IT(hspi->hdmarx))
 800448c:	687b      	ldr	r3, [r7, #4]
 800448e:	6d9b      	ldr	r3, [r3, #88]	@ 0x58
 8004490:	0018      	movs	r0, r3
 8004492:	f7fe fceb 	bl	8002e6c <HAL_DMA_Abort_IT>
 8004496:	1e03      	subs	r3, r0, #0
 8004498:	d005      	beq.n	80044a6 <HAL_SPI_IRQHandler+0x1b6>
          {
            SET_BIT(hspi->ErrorCode, HAL_SPI_ERROR_ABORT);
 800449a:	687b      	ldr	r3, [r7, #4]
 800449c:	6e1b      	ldr	r3, [r3, #96]	@ 0x60
 800449e:	2240      	movs	r2, #64	@ 0x40
 80044a0:	431a      	orrs	r2, r3
 80044a2:	687b      	ldr	r3, [r7, #4]
 80044a4:	661a      	str	r2, [r3, #96]	@ 0x60
          }
        }
        /* Abort the SPI DMA Tx channel */
        if (hspi->hdmatx != NULL)
 80044a6:	687b      	ldr	r3, [r7, #4]
 80044a8:	6d5b      	ldr	r3, [r3, #84]	@ 0x54
 80044aa:	2b00      	cmp	r3, #0
 80044ac:	d016      	beq.n	80044dc <HAL_SPI_IRQHandler+0x1ec>
        {
          /* Set the SPI DMA Abort callback :
          will lead to call HAL_SPI_ErrorCallback() at end of DMA abort procedure */
          hspi->hdmatx->XferAbortCallback = SPI_DMAAbortOnError;
 80044ae:	687b      	ldr	r3, [r7, #4]
 80044b0:	6d5b      	ldr	r3, [r3, #84]	@ 0x54
 80044b2:	4a0d      	ldr	r2, [pc, #52]	@ (80044e8 <HAL_SPI_IRQHandler+0x1f8>)
 80044b4:	635a      	str	r2, [r3, #52]	@ 0x34
          if (HAL_OK != HAL_DMA_Abort_IT(hspi->hdmatx))
 80044b6:	687b      	ldr	r3, [r7, #4]
 80044b8:	6d5b      	ldr	r3, [r3, #84]	@ 0x54
 80044ba:	0018      	movs	r0, r3
 80044bc:	f7fe fcd6 	bl	8002e6c <HAL_DMA_Abort_IT>
 80044c0:	1e03      	subs	r3, r0, #0
 80044c2:	d00b      	beq.n	80044dc <HAL_SPI_IRQHandler+0x1ec>
          {
            SET_BIT(hspi->ErrorCode, HAL_SPI_ERROR_ABORT);
 80044c4:	687b      	ldr	r3, [r7, #4]
 80044c6:	6e1b      	ldr	r3, [r3, #96]	@ 0x60
 80044c8:	2240      	movs	r2, #64	@ 0x40
 80044ca:	431a      	orrs	r2, r3
 80044cc:	687b      	ldr	r3, [r7, #4]
 80044ce:	661a      	str	r2, [r3, #96]	@ 0x60
        if (hspi->hdmatx != NULL)
 80044d0:	e004      	b.n	80044dc <HAL_SPI_IRQHandler+0x1ec>
      {
        /* Call user error callback */
#if (USE_HAL_SPI_REGISTER_CALLBACKS == 1U)
        hspi->ErrorCallback(hspi);
#else
        HAL_SPI_ErrorCallback(hspi);
 80044d2:	687b      	ldr	r3, [r7, #4]
 80044d4:	0018      	movs	r0, r3
 80044d6:	f7fd fa65 	bl	80019a4 <HAL_SPI_ErrorCallback>
#endif /* USE_HAL_SPI_REGISTER_CALLBACKS */
      }
    }
    return;
 80044da:	e000      	b.n	80044de <HAL_SPI_IRQHandler+0x1ee>
        if (hspi->hdmatx != NULL)
 80044dc:	46c0      	nop			@ (mov r8, r8)
    return;
 80044de:	46c0      	nop			@ (mov r8, r8)
  }
}
 80044e0:	46bd      	mov	sp, r7
 80044e2:	b008      	add	sp, #32
 80044e4:	bd80      	pop	{r7, pc}
 80044e6:	46c0      	nop			@ (mov r8, r8)
 80044e8:	080044ed 	.word	0x080044ed

080044ec <SPI_DMAAbortOnError>:
  *         (To be called at end of DMA Abort procedure following error occurrence).
  * @param  hdma DMA handle.
  * @retval None
  */
static void SPI_DMAAbortOnError(DMA_HandleTypeDef *hdma)
{
 80044ec:	b580      	push	{r7, lr}
 80044ee:	b084      	sub	sp, #16
 80044f0:	af00      	add	r7, sp, #0
 80044f2:	6078      	str	r0, [r7, #4]
  SPI_HandleTypeDef *hspi = (SPI_HandleTypeDef *)(((DMA_HandleTypeDef *)hdma)->Parent); /* Derogation MISRAC2012-Rule-11.5 */
 80044f4:	687b      	ldr	r3, [r7, #4]
 80044f6:	6a5b      	ldr	r3, [r3, #36]	@ 0x24
 80044f8:	60fb      	str	r3, [r7, #12]
  hspi->RxXferCount = 0U;
 80044fa:	68fb      	ldr	r3, [r7, #12]
 80044fc:	2246      	movs	r2, #70	@ 0x46
 80044fe:	2100      	movs	r1, #0
 8004500:	5299      	strh	r1, [r3, r2]
  hspi->TxXferCount = 0U;
 8004502:	68fb      	ldr	r3, [r7, #12]
 8004504:	2200      	movs	r2, #0
 8004506:	87da      	strh	r2, [r3, #62]	@ 0x3e

  /* Call user error callback */
#if (USE_HAL_SPI_REGISTER_CALLBACKS == 1U)
  hspi->ErrorCallback(hspi);
#else
  HAL_SPI_ErrorCallback(hspi);
 8004508:	68fb      	ldr	r3, [r7, #12]
 800450a:	0018      	movs	r0, r3
 800450c:	f7fd fa4a 	bl	80019a4 <HAL_SPI_ErrorCallback>
#endif /* USE_HAL_SPI_REGISTER_CALLBACKS */
}
 8004510:	46c0      	nop			@ (mov r8, r8)
 8004512:	46bd      	mov	sp, r7
 8004514:	b004      	add	sp, #16
 8004516:	bd80      	pop	{r7, pc}

08004518 <_Znwj>:
 8004518:	b510      	push	{r4, lr}
 800451a:	1e04      	subs	r4, r0, #0
 800451c:	d100      	bne.n	8004520 <_Znwj+0x8>
 800451e:	3401      	adds	r4, #1
 8004520:	0020      	movs	r0, r4
 8004522:	f000 f819 	bl	8004558 <malloc>
 8004526:	2800      	cmp	r0, #0
 8004528:	d000      	beq.n	800452c <_Znwj+0x14>
 800452a:	bd10      	pop	{r4, pc}
 800452c:	f000 f806 	bl	800453c <_ZSt15get_new_handlerv>
 8004530:	2800      	cmp	r0, #0
 8004532:	d101      	bne.n	8004538 <_Znwj+0x20>
 8004534:	f000 f808 	bl	8004548 <abort>
 8004538:	4780      	blx	r0
 800453a:	e7f1      	b.n	8004520 <_Znwj+0x8>

0800453c <_ZSt15get_new_handlerv>:
 800453c:	4b01      	ldr	r3, [pc, #4]	@ (8004544 <_ZSt15get_new_handlerv+0x8>)
 800453e:	6818      	ldr	r0, [r3, #0]
 8004540:	4770      	bx	lr
 8004542:	46c0      	nop			@ (mov r8, r8)
 8004544:	200005f8 	.word	0x200005f8

08004548 <abort>:
 8004548:	2006      	movs	r0, #6
 800454a:	b510      	push	{r4, lr}
 800454c:	f000 f8f2 	bl	8004734 <raise>
 8004550:	2001      	movs	r0, #1
 8004552:	f7fc fc8b 	bl	8000e6c <_exit>
	...

08004558 <malloc>:
 8004558:	b510      	push	{r4, lr}
 800455a:	4b03      	ldr	r3, [pc, #12]	@ (8004568 <malloc+0x10>)
 800455c:	0001      	movs	r1, r0
 800455e:	6818      	ldr	r0, [r3, #0]
 8004560:	f000 f826 	bl	80045b0 <_malloc_r>
 8004564:	bd10      	pop	{r4, pc}
 8004566:	46c0      	nop			@ (mov r8, r8)
 8004568:	20000010 	.word	0x20000010

0800456c <sbrk_aligned>:
 800456c:	b570      	push	{r4, r5, r6, lr}
 800456e:	4e0f      	ldr	r6, [pc, #60]	@ (80045ac <sbrk_aligned+0x40>)
 8004570:	000d      	movs	r5, r1
 8004572:	6831      	ldr	r1, [r6, #0]
 8004574:	0004      	movs	r4, r0
 8004576:	2900      	cmp	r1, #0
 8004578:	d102      	bne.n	8004580 <sbrk_aligned+0x14>
 800457a:	f000 f8fb 	bl	8004774 <_sbrk_r>
 800457e:	6030      	str	r0, [r6, #0]
 8004580:	0029      	movs	r1, r5
 8004582:	0020      	movs	r0, r4
 8004584:	f000 f8f6 	bl	8004774 <_sbrk_r>
 8004588:	1c43      	adds	r3, r0, #1
 800458a:	d103      	bne.n	8004594 <sbrk_aligned+0x28>
 800458c:	2501      	movs	r5, #1
 800458e:	426d      	negs	r5, r5
 8004590:	0028      	movs	r0, r5
 8004592:	bd70      	pop	{r4, r5, r6, pc}
 8004594:	2303      	movs	r3, #3
 8004596:	1cc5      	adds	r5, r0, #3
 8004598:	439d      	bics	r5, r3
 800459a:	42a8      	cmp	r0, r5
 800459c:	d0f8      	beq.n	8004590 <sbrk_aligned+0x24>
 800459e:	1a29      	subs	r1, r5, r0
 80045a0:	0020      	movs	r0, r4
 80045a2:	f000 f8e7 	bl	8004774 <_sbrk_r>
 80045a6:	3001      	adds	r0, #1
 80045a8:	d1f2      	bne.n	8004590 <sbrk_aligned+0x24>
 80045aa:	e7ef      	b.n	800458c <sbrk_aligned+0x20>
 80045ac:	200005fc 	.word	0x200005fc

080045b0 <_malloc_r>:
 80045b0:	b5f7      	push	{r0, r1, r2, r4, r5, r6, r7, lr}
 80045b2:	2203      	movs	r2, #3
 80045b4:	1ccb      	adds	r3, r1, #3
 80045b6:	4393      	bics	r3, r2
 80045b8:	3308      	adds	r3, #8
 80045ba:	0005      	movs	r5, r0
 80045bc:	001f      	movs	r7, r3
 80045be:	2b0c      	cmp	r3, #12
 80045c0:	d234      	bcs.n	800462c <_malloc_r+0x7c>
 80045c2:	270c      	movs	r7, #12
 80045c4:	42b9      	cmp	r1, r7
 80045c6:	d833      	bhi.n	8004630 <_malloc_r+0x80>
 80045c8:	0028      	movs	r0, r5
 80045ca:	f000 f871 	bl	80046b0 <__malloc_lock>
 80045ce:	4e37      	ldr	r6, [pc, #220]	@ (80046ac <_malloc_r+0xfc>)
 80045d0:	6833      	ldr	r3, [r6, #0]
 80045d2:	001c      	movs	r4, r3
 80045d4:	2c00      	cmp	r4, #0
 80045d6:	d12f      	bne.n	8004638 <_malloc_r+0x88>
 80045d8:	0039      	movs	r1, r7
 80045da:	0028      	movs	r0, r5
 80045dc:	f7ff ffc6 	bl	800456c <sbrk_aligned>
 80045e0:	0004      	movs	r4, r0
 80045e2:	1c43      	adds	r3, r0, #1
 80045e4:	d15f      	bne.n	80046a6 <_malloc_r+0xf6>
 80045e6:	6834      	ldr	r4, [r6, #0]
 80045e8:	9400      	str	r4, [sp, #0]
 80045ea:	9b00      	ldr	r3, [sp, #0]
 80045ec:	2b00      	cmp	r3, #0
 80045ee:	d14a      	bne.n	8004686 <_malloc_r+0xd6>
 80045f0:	2c00      	cmp	r4, #0
 80045f2:	d052      	beq.n	800469a <_malloc_r+0xea>
 80045f4:	6823      	ldr	r3, [r4, #0]
 80045f6:	0028      	movs	r0, r5
 80045f8:	18e3      	adds	r3, r4, r3
 80045fa:	9900      	ldr	r1, [sp, #0]
 80045fc:	9301      	str	r3, [sp, #4]
 80045fe:	f000 f8b9 	bl	8004774 <_sbrk_r>
 8004602:	9b01      	ldr	r3, [sp, #4]
 8004604:	4283      	cmp	r3, r0
 8004606:	d148      	bne.n	800469a <_malloc_r+0xea>
 8004608:	6823      	ldr	r3, [r4, #0]
 800460a:	0028      	movs	r0, r5
 800460c:	1aff      	subs	r7, r7, r3
 800460e:	0039      	movs	r1, r7
 8004610:	f7ff ffac 	bl	800456c <sbrk_aligned>
 8004614:	3001      	adds	r0, #1
 8004616:	d040      	beq.n	800469a <_malloc_r+0xea>
 8004618:	6823      	ldr	r3, [r4, #0]
 800461a:	19db      	adds	r3, r3, r7
 800461c:	6023      	str	r3, [r4, #0]
 800461e:	6833      	ldr	r3, [r6, #0]
 8004620:	685a      	ldr	r2, [r3, #4]
 8004622:	2a00      	cmp	r2, #0
 8004624:	d133      	bne.n	800468e <_malloc_r+0xde>
 8004626:	9b00      	ldr	r3, [sp, #0]
 8004628:	6033      	str	r3, [r6, #0]
 800462a:	e019      	b.n	8004660 <_malloc_r+0xb0>
 800462c:	2b00      	cmp	r3, #0
 800462e:	dac9      	bge.n	80045c4 <_malloc_r+0x14>
 8004630:	230c      	movs	r3, #12
 8004632:	602b      	str	r3, [r5, #0]
 8004634:	2000      	movs	r0, #0
 8004636:	bdfe      	pop	{r1, r2, r3, r4, r5, r6, r7, pc}
 8004638:	6821      	ldr	r1, [r4, #0]
 800463a:	1bc9      	subs	r1, r1, r7
 800463c:	d420      	bmi.n	8004680 <_malloc_r+0xd0>
 800463e:	290b      	cmp	r1, #11
 8004640:	d90a      	bls.n	8004658 <_malloc_r+0xa8>
 8004642:	19e2      	adds	r2, r4, r7
 8004644:	6027      	str	r7, [r4, #0]
 8004646:	42a3      	cmp	r3, r4
 8004648:	d104      	bne.n	8004654 <_malloc_r+0xa4>
 800464a:	6032      	str	r2, [r6, #0]
 800464c:	6863      	ldr	r3, [r4, #4]
 800464e:	6011      	str	r1, [r2, #0]
 8004650:	6053      	str	r3, [r2, #4]
 8004652:	e005      	b.n	8004660 <_malloc_r+0xb0>
 8004654:	605a      	str	r2, [r3, #4]
 8004656:	e7f9      	b.n	800464c <_malloc_r+0x9c>
 8004658:	6862      	ldr	r2, [r4, #4]
 800465a:	42a3      	cmp	r3, r4
 800465c:	d10e      	bne.n	800467c <_malloc_r+0xcc>
 800465e:	6032      	str	r2, [r6, #0]
 8004660:	0028      	movs	r0, r5
 8004662:	f000 f82d 	bl	80046c0 <__malloc_unlock>
 8004666:	0020      	movs	r0, r4
 8004668:	2207      	movs	r2, #7
 800466a:	300b      	adds	r0, #11
 800466c:	1d23      	adds	r3, r4, #4
 800466e:	4390      	bics	r0, r2
 8004670:	1ac2      	subs	r2, r0, r3
 8004672:	4298      	cmp	r0, r3
 8004674:	d0df      	beq.n	8004636 <_malloc_r+0x86>
 8004676:	1a1b      	subs	r3, r3, r0
 8004678:	50a3      	str	r3, [r4, r2]
 800467a:	e7dc      	b.n	8004636 <_malloc_r+0x86>
 800467c:	605a      	str	r2, [r3, #4]
 800467e:	e7ef      	b.n	8004660 <_malloc_r+0xb0>
 8004680:	0023      	movs	r3, r4
 8004682:	6864      	ldr	r4, [r4, #4]
 8004684:	e7a6      	b.n	80045d4 <_malloc_r+0x24>
 8004686:	9c00      	ldr	r4, [sp, #0]
 8004688:	6863      	ldr	r3, [r4, #4]
 800468a:	9300      	str	r3, [sp, #0]
 800468c:	e7ad      	b.n	80045ea <_malloc_r+0x3a>
 800468e:	001a      	movs	r2, r3
 8004690:	685b      	ldr	r3, [r3, #4]
 8004692:	42a3      	cmp	r3, r4
 8004694:	d1fb      	bne.n	800468e <_malloc_r+0xde>
 8004696:	2300      	movs	r3, #0
 8004698:	e7da      	b.n	8004650 <_malloc_r+0xa0>
 800469a:	230c      	movs	r3, #12
 800469c:	0028      	movs	r0, r5
 800469e:	602b      	str	r3, [r5, #0]
 80046a0:	f000 f80e 	bl	80046c0 <__malloc_unlock>
 80046a4:	e7c6      	b.n	8004634 <_malloc_r+0x84>
 80046a6:	6007      	str	r7, [r0, #0]
 80046a8:	e7da      	b.n	8004660 <_malloc_r+0xb0>
 80046aa:	46c0      	nop			@ (mov r8, r8)
 80046ac:	20000600 	.word	0x20000600

080046b0 <__malloc_lock>:
 80046b0:	b510      	push	{r4, lr}
 80046b2:	4802      	ldr	r0, [pc, #8]	@ (80046bc <__malloc_lock+0xc>)
 80046b4:	f000 f89a 	bl	80047ec <__retarget_lock_acquire_recursive>
 80046b8:	bd10      	pop	{r4, pc}
 80046ba:	46c0      	nop			@ (mov r8, r8)
 80046bc:	20000740 	.word	0x20000740

080046c0 <__malloc_unlock>:
 80046c0:	b510      	push	{r4, lr}
 80046c2:	4802      	ldr	r0, [pc, #8]	@ (80046cc <__malloc_unlock+0xc>)
 80046c4:	f000 f893 	bl	80047ee <__retarget_lock_release_recursive>
 80046c8:	bd10      	pop	{r4, pc}
 80046ca:	46c0      	nop			@ (mov r8, r8)
 80046cc:	20000740 	.word	0x20000740

080046d0 <memset>:
 80046d0:	0003      	movs	r3, r0
 80046d2:	1882      	adds	r2, r0, r2
 80046d4:	4293      	cmp	r3, r2
 80046d6:	d100      	bne.n	80046da <memset+0xa>
 80046d8:	4770      	bx	lr
 80046da:	7019      	strb	r1, [r3, #0]
 80046dc:	3301      	adds	r3, #1
 80046de:	e7f9      	b.n	80046d4 <memset+0x4>

080046e0 <_raise_r>:
 80046e0:	b570      	push	{r4, r5, r6, lr}
 80046e2:	0004      	movs	r4, r0
 80046e4:	000d      	movs	r5, r1
 80046e6:	291f      	cmp	r1, #31
 80046e8:	d904      	bls.n	80046f4 <_raise_r+0x14>
 80046ea:	2316      	movs	r3, #22
 80046ec:	6003      	str	r3, [r0, #0]
 80046ee:	2001      	movs	r0, #1
 80046f0:	4240      	negs	r0, r0
 80046f2:	bd70      	pop	{r4, r5, r6, pc}
 80046f4:	6bc3      	ldr	r3, [r0, #60]	@ 0x3c
 80046f6:	2b00      	cmp	r3, #0
 80046f8:	d004      	beq.n	8004704 <_raise_r+0x24>
 80046fa:	008a      	lsls	r2, r1, #2
 80046fc:	189b      	adds	r3, r3, r2
 80046fe:	681a      	ldr	r2, [r3, #0]
 8004700:	2a00      	cmp	r2, #0
 8004702:	d108      	bne.n	8004716 <_raise_r+0x36>
 8004704:	0020      	movs	r0, r4
 8004706:	f000 f831 	bl	800476c <_getpid_r>
 800470a:	002a      	movs	r2, r5
 800470c:	0001      	movs	r1, r0
 800470e:	0020      	movs	r0, r4
 8004710:	f000 f81a 	bl	8004748 <_kill_r>
 8004714:	e7ed      	b.n	80046f2 <_raise_r+0x12>
 8004716:	2a01      	cmp	r2, #1
 8004718:	d009      	beq.n	800472e <_raise_r+0x4e>
 800471a:	1c51      	adds	r1, r2, #1
 800471c:	d103      	bne.n	8004726 <_raise_r+0x46>
 800471e:	2316      	movs	r3, #22
 8004720:	6003      	str	r3, [r0, #0]
 8004722:	2001      	movs	r0, #1
 8004724:	e7e5      	b.n	80046f2 <_raise_r+0x12>
 8004726:	2100      	movs	r1, #0
 8004728:	0028      	movs	r0, r5
 800472a:	6019      	str	r1, [r3, #0]
 800472c:	4790      	blx	r2
 800472e:	2000      	movs	r0, #0
 8004730:	e7df      	b.n	80046f2 <_raise_r+0x12>
	...

08004734 <raise>:
 8004734:	b510      	push	{r4, lr}
 8004736:	4b03      	ldr	r3, [pc, #12]	@ (8004744 <raise+0x10>)
 8004738:	0001      	movs	r1, r0
 800473a:	6818      	ldr	r0, [r3, #0]
 800473c:	f7ff ffd0 	bl	80046e0 <_raise_r>
 8004740:	bd10      	pop	{r4, pc}
 8004742:	46c0      	nop			@ (mov r8, r8)
 8004744:	20000010 	.word	0x20000010

08004748 <_kill_r>:
 8004748:	2300      	movs	r3, #0
 800474a:	b570      	push	{r4, r5, r6, lr}
 800474c:	4d06      	ldr	r5, [pc, #24]	@ (8004768 <_kill_r+0x20>)
 800474e:	0004      	movs	r4, r0
 8004750:	0008      	movs	r0, r1
 8004752:	0011      	movs	r1, r2
 8004754:	602b      	str	r3, [r5, #0]
 8004756:	f7fc fb79 	bl	8000e4c <_kill>
 800475a:	1c43      	adds	r3, r0, #1
 800475c:	d103      	bne.n	8004766 <_kill_r+0x1e>
 800475e:	682b      	ldr	r3, [r5, #0]
 8004760:	2b00      	cmp	r3, #0
 8004762:	d000      	beq.n	8004766 <_kill_r+0x1e>
 8004764:	6023      	str	r3, [r4, #0]
 8004766:	bd70      	pop	{r4, r5, r6, pc}
 8004768:	2000073c 	.word	0x2000073c

0800476c <_getpid_r>:
 800476c:	b510      	push	{r4, lr}
 800476e:	f7fc fb67 	bl	8000e40 <_getpid>
 8004772:	bd10      	pop	{r4, pc}

08004774 <_sbrk_r>:
 8004774:	2300      	movs	r3, #0
 8004776:	b570      	push	{r4, r5, r6, lr}
 8004778:	4d06      	ldr	r5, [pc, #24]	@ (8004794 <_sbrk_r+0x20>)
 800477a:	0004      	movs	r4, r0
 800477c:	0008      	movs	r0, r1
 800477e:	602b      	str	r3, [r5, #0]
 8004780:	f7fc fb82 	bl	8000e88 <_sbrk>
 8004784:	1c43      	adds	r3, r0, #1
 8004786:	d103      	bne.n	8004790 <_sbrk_r+0x1c>
 8004788:	682b      	ldr	r3, [r5, #0]
 800478a:	2b00      	cmp	r3, #0
 800478c:	d000      	beq.n	8004790 <_sbrk_r+0x1c>
 800478e:	6023      	str	r3, [r4, #0]
 8004790:	bd70      	pop	{r4, r5, r6, pc}
 8004792:	46c0      	nop			@ (mov r8, r8)
 8004794:	2000073c 	.word	0x2000073c

08004798 <__errno>:
 8004798:	4b01      	ldr	r3, [pc, #4]	@ (80047a0 <__errno+0x8>)
 800479a:	6818      	ldr	r0, [r3, #0]
 800479c:	4770      	bx	lr
 800479e:	46c0      	nop			@ (mov r8, r8)
 80047a0:	20000010 	.word	0x20000010

080047a4 <__libc_init_array>:
 80047a4:	b570      	push	{r4, r5, r6, lr}
 80047a6:	2600      	movs	r6, #0
 80047a8:	4c0c      	ldr	r4, [pc, #48]	@ (80047dc <__libc_init_array+0x38>)
 80047aa:	4d0d      	ldr	r5, [pc, #52]	@ (80047e0 <__libc_init_array+0x3c>)
 80047ac:	1b64      	subs	r4, r4, r5
 80047ae:	10a4      	asrs	r4, r4, #2
 80047b0:	42a6      	cmp	r6, r4
 80047b2:	d109      	bne.n	80047c8 <__libc_init_array+0x24>
 80047b4:	2600      	movs	r6, #0
 80047b6:	f000 f825 	bl	8004804 <_init>
 80047ba:	4c0a      	ldr	r4, [pc, #40]	@ (80047e4 <__libc_init_array+0x40>)
 80047bc:	4d0a      	ldr	r5, [pc, #40]	@ (80047e8 <__libc_init_array+0x44>)
 80047be:	1b64      	subs	r4, r4, r5
 80047c0:	10a4      	asrs	r4, r4, #2
 80047c2:	42a6      	cmp	r6, r4
 80047c4:	d105      	bne.n	80047d2 <__libc_init_array+0x2e>
 80047c6:	bd70      	pop	{r4, r5, r6, pc}
 80047c8:	00b3      	lsls	r3, r6, #2
 80047ca:	58eb      	ldr	r3, [r5, r3]
 80047cc:	4798      	blx	r3
 80047ce:	3601      	adds	r6, #1
 80047d0:	e7ee      	b.n	80047b0 <__libc_init_array+0xc>
 80047d2:	00b3      	lsls	r3, r6, #2
 80047d4:	58eb      	ldr	r3, [r5, r3]
 80047d6:	4798      	blx	r3
 80047d8:	3601      	adds	r6, #1
 80047da:	e7f2      	b.n	80047c2 <__libc_init_array+0x1e>
 80047dc:	080048e0 	.word	0x080048e0
 80047e0:	080048e0 	.word	0x080048e0
 80047e4:	080048e8 	.word	0x080048e8
 80047e8:	080048e0 	.word	0x080048e0

080047ec <__retarget_lock_acquire_recursive>:
 80047ec:	4770      	bx	lr

080047ee <__retarget_lock_release_recursive>:
 80047ee:	4770      	bx	lr

080047f0 <memcpy>:
 80047f0:	2300      	movs	r3, #0
 80047f2:	b510      	push	{r4, lr}
 80047f4:	429a      	cmp	r2, r3
 80047f6:	d100      	bne.n	80047fa <memcpy+0xa>
 80047f8:	bd10      	pop	{r4, pc}
 80047fa:	5ccc      	ldrb	r4, [r1, r3]
 80047fc:	54c4      	strb	r4, [r0, r3]
 80047fe:	3301      	adds	r3, #1
 8004800:	e7f8      	b.n	80047f4 <memcpy+0x4>
	...

08004804 <_init>:
 8004804:	b5f8      	push	{r3, r4, r5, r6, r7, lr}
 8004806:	46c0      	nop			@ (mov r8, r8)
 8004808:	bcf8      	pop	{r3, r4, r5, r6, r7}
 800480a:	bc08      	pop	{r3}
 800480c:	469e      	mov	lr, r3
 800480e:	4770      	bx	lr

08004810 <_fini>:
 8004810:	b5f8      	push	{r3, r4, r5, r6, r7, lr}
 8004812:	46c0      	nop			@ (mov r8, r8)
 8004814:	bcf8      	pop	{r3, r4, r5, r6, r7}
 8004816:	bc08      	pop	{r3}
 8004818:	469e      	mov	lr, r3
 800481a:	4770      	bx	lr
